###############################################################################
#
# IAR ELF Linker V8.20.1.14183/W32 for ARM                05/Jan/2024  12:54:27
# Copyright 2007-2017 IAR Systems AB.
#
#    Output file  =  D:\STM32F4\NewIHM8Git\EWARM\NewIHM8\Exe\NewIHM8.out.tmp
#    Map file     =  D:\STM32F4\NewIHM8Git\EWARM\NewIHM8\List\NewIHM8.map
#    Command line =  
#        -f C:\Users\topgu\AppData\Local\Temp\EW3B9A.tmp
#        (D:\STM32F4\NewIHM8Git\EWARM\NewIHM8\Obj\AcbMccbControl.o
#        D:\STM32F4\NewIHM8Git\EWARM\NewIHM8\Obj\AcbMccbEvent.o
#        D:\STM32F4\NewIHM8Git\EWARM\NewIHM8\Obj\AcbMccbHwSet.o
#        D:\STM32F4\NewIHM8Git\EWARM\NewIHM8\Obj\AcbMccbInfo.o
#        D:\STM32F4\NewIHM8Git\EWARM\NewIHM8\Obj\AcbMccbMeasurement.o
#        D:\STM32F4\NewIHM8Git\EWARM\NewIHM8\Obj\AcbMccbRelaySet.o
#        D:\STM32F4\NewIHM8Git\EWARM\NewIHM8\Obj\backlight.o
#        D:\STM32F4\NewIHM8Git\EWARM\NewIHM8\Obj\BSP.o
#        D:\STM32F4\NewIHM8Git\EWARM\NewIHM8\Obj\cyrillic16_16x16.o
#        D:\STM32F4\NewIHM8Git\EWARM\NewIHM8\Obj\cyrillic20_20x20.o
#        D:\STM32F4\NewIHM8Git\EWARM\NewIHM8\Obj\cyrillic_24x24.o
#        D:\STM32F4\NewIHM8Git\EWARM\NewIHM8\Obj\GUI_X_embOS.o
#        D:\STM32F4\NewIHM8Git\EWARM\NewIHM8\Obj\GUIConf.o
#        D:\STM32F4\NewIHM8Git\EWARM\NewIHM8\Obj\GuiData.o
#        D:\STM32F4\NewIHM8Git\EWARM\NewIHM8\Obj\HardFaultHandler.o
#        D:\STM32F4\NewIHM8Git\EWARM\NewIHM8\Obj\Image.o
#        D:\STM32F4\NewIHM8Git\EWARM\NewIHM8\Obj\JLINKMEM_Process.o
#        D:\STM32F4\NewIHM8Git\EWARM\NewIHM8\Obj\lcd.o
#        D:\STM32F4\NewIHM8Git\EWARM\NewIHM8\Obj\LCDConf_FlexColor_Hmi.o
#        D:\STM32F4\NewIHM8Git\EWARM\NewIHM8\Obj\LS-font16_.o
#        D:\STM32F4\NewIHM8Git\EWARM\NewIHM8\Obj\LS-Font20b_.o
#        D:\STM32F4\NewIHM8Git\EWARM\NewIHM8\Obj\LS-Font20n_.o
#        D:\STM32F4\NewIHM8Git\EWARM\NewIHM8\Obj\LS-font24_.o
#        D:\STM32F4\NewIHM8Git\EWARM\NewIHM8\Obj\LS-font_24x24.o
#        D:\STM32F4\NewIHM8Git\EWARM\NewIHM8\Obj\main.o
#        D:\STM32F4\NewIHM8Git\EWARM\NewIHM8\Obj\MainMenu.o
#        D:\STM32F4\NewIHM8Git\EWARM\NewIHM8\Obj\MenuDLG.o
#        D:\STM32F4\NewIHM8Git\EWARM\NewIHM8\Obj\MLinkControl.o
#        D:\STM32F4\NewIHM8Git\EWARM\NewIHM8\Obj\MLinkEvent.o
#        D:\STM32F4\NewIHM8Git\EWARM\NewIHM8\Obj\MLinkHwSet.o
#        D:\STM32F4\NewIHM8Git\EWARM\NewIHM8\Obj\MLinkInfo.o
#        D:\STM32F4\NewIHM8Git\EWARM\NewIHM8\Obj\MLinkIOSet.o
#        D:\STM32F4\NewIHM8Git\EWARM\NewIHM8\Obj\MLinkOverview.o
#        D:\STM32F4\NewIHM8Git\EWARM\NewIHM8\Obj\modbus.o
#        D:\STM32F4\NewIHM8Git\embOS_CortexM_IAR_V6_Src_V438\Start\Lib\os7m_tlv_dp.a
#        D:\STM32F4\NewIHM8Git\EWARM\NewIHM8\Obj\OS_Error.o
#        D:\STM32F4\NewIHM8Git\EWARM\NewIHM8\Obj\PasswordChange.o
#        D:\STM32F4\NewIHM8Git\EWARM\NewIHM8\Obj\RTOSInit_STM32F4x_CMSIS.o
#        D:\STM32F4\NewIHM8Git\EWARM\NewIHM8\Obj\SEGGER_HardFaultHandler.o
#        D:\STM32F4\NewIHM8Git\EWARM\NewIHM8\Obj\SEGGER_RTT.o
#        D:\STM32F4\NewIHM8Git\EWARM\NewIHM8\Obj\SEGGER_RTT_printf.o
#        D:\STM32F4\NewIHM8Git\EWARM\NewIHM8\Obj\SEGGER_SYSVIEW.o
#        D:\STM32F4\NewIHM8Git\EWARM\NewIHM8\Obj\SEGGER_SYSVIEW_Config_embOS.o
#        D:\STM32F4\NewIHM8Git\EWARM\NewIHM8\Obj\SEGGER_SYSVIEW_embOS.o
#        D:\STM32F4\NewIHM8Git\EWARM\NewIHM8\Obj\SettingInput.o
#        D:\STM32F4\NewIHM8Git\EWARM\NewIHM8\Obj\SettingTime.o
#        D:\STM32F4\NewIHM8Git\EWARM\NewIHM8\Obj\Setup.o
#        D:\STM32F4\NewIHM8Git\EWARM\NewIHM8\Obj\startup_stm32f407xx.o
#        D:\STM32F4\NewIHM8Git\Middlewares\ST\STemWin\Lib\STemWin540_CM4_OS_IAR.a
#        D:\STM32F4\NewIHM8Git\EWARM\NewIHM8\Obj\stm32f4xx_hal.o
#        D:\STM32F4\NewIHM8Git\EWARM\NewIHM8\Obj\stm32f4xx_hal_adc.o
#        D:\STM32F4\NewIHM8Git\EWARM\NewIHM8\Obj\stm32f4xx_hal_cortex.o
#        D:\STM32F4\NewIHM8Git\EWARM\NewIHM8\Obj\stm32f4xx_hal_crc.o
#        D:\STM32F4\NewIHM8Git\EWARM\NewIHM8\Obj\stm32f4xx_hal_dma.o
#        D:\STM32F4\NewIHM8Git\EWARM\NewIHM8\Obj\stm32f4xx_hal_dma_ex.o
#        D:\STM32F4\NewIHM8Git\EWARM\NewIHM8\Obj\stm32f4xx_hal_flash.o
#        D:\STM32F4\NewIHM8Git\EWARM\NewIHM8\Obj\stm32f4xx_hal_flash_ex.o
#        D:\STM32F4\NewIHM8Git\EWARM\NewIHM8\Obj\stm32f4xx_hal_flash_ramfunc.o
#        D:\STM32F4\NewIHM8Git\EWARM\NewIHM8\Obj\stm32f4xx_hal_gpio.o
#        D:\STM32F4\NewIHM8Git\EWARM\NewIHM8\Obj\stm32f4xx_hal_hcd.o
#        D:\STM32F4\NewIHM8Git\EWARM\NewIHM8\Obj\stm32f4xx_hal_i2c.o
#        D:\STM32F4\NewIHM8Git\EWARM\NewIHM8\Obj\stm32f4xx_hal_iwdg.o
#        D:\STM32F4\NewIHM8Git\EWARM\NewIHM8\Obj\stm32f4xx_hal_msp.o
#        D:\STM32F4\NewIHM8Git\EWARM\NewIHM8\Obj\stm32f4xx_hal_pcd.o
#        D:\STM32F4\NewIHM8Git\EWARM\NewIHM8\Obj\stm32f4xx_hal_pcd_ex.o
#        D:\STM32F4\NewIHM8Git\EWARM\NewIHM8\Obj\stm32f4xx_hal_pwr.o
#        D:\STM32F4\NewIHM8Git\EWARM\NewIHM8\Obj\stm32f4xx_hal_pwr_ex.o
#        D:\STM32F4\NewIHM8Git\EWARM\NewIHM8\Obj\stm32f4xx_hal_rcc.o
#        D:\STM32F4\NewIHM8Git\EWARM\NewIHM8\Obj\stm32f4xx_hal_rcc_ex.o
#        D:\STM32F4\NewIHM8Git\EWARM\NewIHM8\Obj\stm32f4xx_hal_rtc.o
#        D:\STM32F4\NewIHM8Git\EWARM\NewIHM8\Obj\stm32f4xx_hal_rtc_ex.o
#        D:\STM32F4\NewIHM8Git\EWARM\NewIHM8\Obj\stm32f4xx_hal_spi.o
#        D:\STM32F4\NewIHM8Git\EWARM\NewIHM8\Obj\stm32f4xx_hal_sram.o
#        D:\STM32F4\NewIHM8Git\EWARM\NewIHM8\Obj\stm32f4xx_hal_tim.o
#        D:\STM32F4\NewIHM8Git\EWARM\NewIHM8\Obj\stm32f4xx_hal_tim_ex.o
#        D:\STM32F4\NewIHM8Git\EWARM\NewIHM8\Obj\stm32f4xx_hal_timebase_TIM.o
#        D:\STM32F4\NewIHM8Git\EWARM\NewIHM8\Obj\stm32f4xx_hal_uart.o
#        D:\STM32F4\NewIHM8Git\EWARM\NewIHM8\Obj\stm32f4xx_it.o
#        D:\STM32F4\NewIHM8Git\EWARM\NewIHM8\Obj\stm32f4xx_ll_fsmc.o
#        D:\STM32F4\NewIHM8Git\EWARM\NewIHM8\Obj\stm32f4xx_ll_usb.o
#        D:\STM32F4\NewIHM8Git\EWARM\NewIHM8\Obj\system_stm32f4xx.o --redirect
#        _Printf=_PrintfFull --redirect _Scanf=_ScanfFull -o
#        D:\STM32F4\NewIHM8Git\EWARM\NewIHM8\Exe\NewIHM8.out.tmp --map
#        D:\STM32F4\NewIHM8Git\EWARM\NewIHM8\List\NewIHM8.map --log call_graph
#        --log_file D:\STM32F4\NewIHM8Git\EWARM\NewIHM8\List\NewIHM8.log
#        --config D:\STM32F4\NewIHM8Git\EWARM\stm32f407xx_flash.icf
#        --semihosting --entry __iar_program_start --redirect
#        __iar_sh_stdout=__iar_sh_stdout_swo --vfe --text_out locale)
#
###############################################################################

*******************************************************************************
*** MESSAGES
***

Warning[Lt009]: Inconsistent wchar_t size
            GUI_Core.o(STemWin540_CM4_OS_IAR.a) and 141 other objects in 14
                      different libraries have wchar_t size 16 bits
            AcbMccbControl.o and 106 other objects, some of them in dl7M_tlf.a
                      and 13 other libraries have wchar_t size 32 bits


*******************************************************************************
*** RUNTIME MODEL ATTRIBUTES
***

CppFlavor       = *
__SystemLibrary = DLib
__dlib_version  = 6


*******************************************************************************
*** HEAP SELECTION
***

The basic heap was selected because no calls to memory allocation
functions were found in the application outside of system library
functions, and there are calls to deallocation functions in the
application.


*******************************************************************************
*** PLACEMENT SUMMARY
***

"A0":  place at 0x0800c000 { ro section .intvec };
"P1":  place in [from 0x0800c000 to 0x080fffff] { ro };
define block CSTACK with size = 2K, alignment = 8 { };
"P3":  place in [from 0x10000000 to 0x1000ffff] {
          block CSTACK, section .ccram };
define block HEAP with size = 1K, alignment = 8 { };
"P4":  place in [from 0x20000000 to 0x2001bfff] |
                [from 0x2001c000 to 0x2001ffff] { rw, block HEAP };
initialize by copy { rw };

No sections matched the following patterns:

  ro section application_specific_ro  in "P2"
  section .backup_sram                in "P5"
  section .ccram                      in "P3"


  Section            Kind        Address     Size  Object
  -------            ----        -------     ----  ------
"A0":                                       0x188
  .intvec                     0x0800c000    0x188  <Block>
    .intvec          ro code  0x0800c000    0x188  startup_stm32f407xx.o [1]
                            - 0x0800c188    0x188

"P1":                                     0x8cdad
  .rodata            const    0x0800c188  0x22230  Image.o [1]
  .rodata            const    0x0802e3b8   0xacb4  LS-font24_.o [1]
  .rodata            const    0x0803906c   0x9638  LS-Font20b_.o [1]
  .rodata            const    0x080426a4   0x9520  LS-Font20n_.o [1]
  .rodata            const    0x0804bbc4   0x8b7c  LS-font_24x24.o [1]
  .rodata            const    0x08054740   0x6584  LS-font16_.o [1]
  .rodata            const    0x0805acc4   0x56f8  cyrillic_24x24.o [1]
  .rodata            const    0x080603bc   0x4780  cyrillic16_16x16.o [1]
  .rodata            const    0x08064b3c   0x46d0  cyrillic20_20x20.o [1]
  .rodata            const    0x0806920c   0x2e6c  GuiData.o [1]
  .rodata            const    0x0806c078   0x1ea8  F32B_ASCII.o [3]
  .rodata            const    0x0806df20   0x1c48  F32_ASCII.o [3]
  .text              ro code  0x0806fb68   0x1604  MainMenu.o [1]
  .text              ro code  0x0807116c    0x304  GUI_Common.o [3]
  .text              ro code  0x08071470     0x40  sprintf.o [4]
  .text              ro code  0x080714b0     0x48  FltToDbl.o [5]
  .text              ro code  0x080714f8     0x68  DblToFlt.o [5]
  .text              ro code  0x08071560     0x2e  DblCmpLe.o [5]
  .text              ro code  0x0807158e     0x1e  xencoding_8859_1.o [4]
  .text              ro code  0x080715ac    0x1fc  GUI_Core.o [3]
  .text              ro code  0x080717a8    0x19c  GUI_DrawLib.o [3]
  .text              ro code  0x08071944    0x198  GUI_DispString.o [3]
  .text              ro code  0x08071adc    0xa68  modbus.o [1]
  .text              ro code  0x08072544    0x1a2  DblMul.o [5]
  .text              ro code  0x080726e6      0xa  xsprout.o [4]
  .text              ro code  0x080726f0    0x246  DblDiv.o [5]
  .text              ro code  0x08072936      0x2  GUICC_888_Index2Color.o [3]
  .text              ro code  0x08072938     0x62  round.o [5]
  .text              ro code  0x0807299a      0x2  GUICC_8888_Index2Color.o [3]
  .text              ro code  0x0807299c    0x42c  MLinkOverview.o [1]
  .text              ro code  0x08072dc8    0xcfc  GUI_BMP.o [3]
  .text              ro code  0x08073ac4      0xc  stm32f4xx_hal.o [1]
  .text              ro code  0x08073ad0     0xf4  GUI_Circ.o [3]
  .text              ro code  0x08073bc4     0x36  strlen.o [7]
  .text              ro code  0x08073bfc   0x156c  main.o [1]
  .text              ro code  0x08075168     0x4c  strcpy.o [7]
  .text              ro code  0x080751b4     0x66  ABImemset.o [7]
  .text              ro code  0x0807521c      0x6  ABImemclr.o [7]
  .text              ro code  0x08075224    0x304  OS_Task.o [6]
  .text              ro code  0x08075528    0xea8  Setup.o [1]
  .text              ro code  0x080763d0    0x7d8  MenuDLG.o [1]
  .text              ro code  0x08076ba8    0x600  WM_Lib.o [3]
  .text              ro code  0x080771a8   0x11d0  WM.o [3]
  .text              ro code  0x08078378     0x68  GUI_Time.o [3]
  .text              ro code  0x080783e0     0xfc  backlight.o [1]
  .text              ro code  0x080784dc    0x1d8  lcd.o [1]
  .text              ro code  0x080786b4    0x14c  GUI_Task.o [3]
  .text              ro code  0x08078800     0x18  LCD_GetColorIndex.o [3]
  .text              ro code  0x08078818    0x5c8  LCD.o [3]
  .text              ro code  0x08078de0     0xa6  ABImemcpy.o [7]
  .text              ro code  0x08078e88     0x44  LCD_SelectLCD.o [3]
  .text              ro code  0x08078ecc     0x24  LCD_UpdateColorIndices.o [3]
  .text              ro code  0x08078ef0    0xf4e  xprintffull.o [4]
  .text              ro code  0x08079e40     0x20  GUIConf.o [1]
  .text              ro code  0x08079e60     0xe4  LCDConf_FlexColor_Hmi.o [1]
  .text              ro code  0x08079f44     0x3c  GUI_X_embOS.o [1]
  .text              ro code  0x08079f80    0x190  LCD_GetEx.o [3]
  .text              ro code  0x0807a110     0xa6  GUI_2DLib.o [3]
  .text              ro code  0x0807a1b8    0x4dc  GUI_DrawLine.o [3]
  .text              ro code  0x0807a694     0x58  GUI_Char.o [3]
  .text              ro code  0x0807a6ec    0x1d8  GUI_CharLine.o [3]
  .text              ro code  0x0807a8c4     0x4c  GUI_UC.o [3]
  .text              ro code  0x0807a910    0x230  GUI__Private.o [3]
  .text              ro code  0x0807ab40     0x28  printf.o [4]
  .text              ro code  0x0807ab68    0x7e2  stm32f4xx_hal_uart.o [1]
  .text              ro code  0x0807b34c    0x5e0  GUI_Alloc.o [3]
  .text              ro code  0x0807b92c    0x214  stm32f4xx_hal_gpio.o [1]
  .text              ro code  0x0807bb40     0xec  GUI_UC_EncodeUTF8.o [3]
  .text              ro code  0x0807bc2c     0x9c  stm32f4xx_hal_cortex.o [1]
  .text              ro code  0x0807bcc8     0x7c  stm32f4xx_hal_timebase_TIM.o [1]
  .text              ro code  0x0807bd44    0x2d0  stm32f4xx_hal_rcc.o [1]
  .text              ro code  0x0807c014    0x1d4  stm32f4xx_hal_rcc.o [1]
  .text              ro code  0x0807c1e8    0x240  stm32f4xx_hal_flash_ex.o [1]
  .text              ro code  0x0807c428     0x24  stm32f4xx_hal_crc.o [1]
  .text              ro code  0x0807c44c     0x54  stm32f4xx_hal_sram.o [1]
  .text              ro code  0x0807c4a0    0x574  stm32f4xx_hal_tim.o [1]
  .text              ro code  0x0807ca14     0x4a  stm32f4xx_hal_tim_ex.o [1]
  .text              ro code  0x0807ca60    0x3b8  stm32f4xx_hal_msp.o [1]
  .text              ro code  0x0807ce18    0x184  stm32f4xx_hal_spi.o [1]
  .text              ro code  0x0807cf9c    0x214  stm32f4xx_hal_flash.o [1]
  .text              ro code  0x0807d1b0    0x7bc  stm32f4xx_hal_i2c.o [1]
  .text              ro code  0x0807d96c      0xa  stm32f4xx_hal.o [1]
  .text              ro code  0x0807d978    0x920  OS_Kern.o [6]
  .text              ro code  0x0807e298    0x1fc  RTOSInit_STM32F4x_CMSIS.o [1]
  .text              ro code  0x0807e494     0x24  OS_Error.o [1]
  .text              ro code  0x0807e4b8    0x10c  OS_Info.o [6]
  .text              ro code  0x0807e5c4    0x198  rtos.o [6]
  .text              ro code  0x0807e75c     0x10  stm32f4xx_hal.o [1]
  .text              ro code  0x0807e76c      0xc  OS_GetCPUState.o [6]
  .text              ro code  0x0807e778      0x6  ABImemclr4.o [7]
  .text              ro code  0x0807e780    0x38c  SettingInput.o [1]
  .text              ro code  0x0807eb0c    0x258  GUI_FillPolygon.o [3]
  .text              ro code  0x0807ed64    0xb24  MLinkControl.o [1]
  .text              ro code  0x0807f888    0x178  iar_Stoulx.o [4]
  .text              ro code  0x0807fa00    0x440  PasswordChange.o [1]
  .text              ro code  0x0807fe40    0x484  SettingTime.o [1]
  .text              ro code  0x080802c4     0x2a  BUTTON_Bitmap.o [3]
  .text              ro code  0x080802f0    0x1e4  WINDOW.o [3]
  .text              ro code  0x080804d4    0x28c  BUTTON.o [3]
  .text              ro code  0x08080760    0x39c  MLinkHwSet.o [1]
  .text              ro code  0x08080afc    0x928  MLinkInfo.o [1]
  .text              ro code  0x08081424    0x784  MLinkIOSet.o [1]
  .text              ro code  0x08081ba8    0x35c  MLinkEvent.o [1]
  .text              ro code  0x08081f04     0xa6  DIALOG.o [3]
  .text              ro code  0x08081faa     0x38  WM_Hide.o [3]
  .text              ro code  0x08081fe4    0x44c  AcbMccbHwSet.o [1]
  .text              ro code  0x08082430   0x1448  AcbMccbMeasurement.o [1]
  .text              ro code  0x08083878    0x7a4  AcbMccbInfo.o [1]
  .text              ro code  0x0808401c    0x73c  AcbMccbRelaySet.o [1]
  .text              ro code  0x08084758    0x9bc  AcbMccbEvent.o [1]
  .text              ro code  0x08085114    0xa78  AcbMccbControl.o [1]
  .text              ro code  0x08085b8c    0x270  WM__Private.o [3]
  .text              ro code  0x08085dfc     0x30  LCD_SetClipRectEx.o [3]
  .text              ro code  0x08085e2c     0x10  GUI_WaitEvent.o [3]
  .text              ro code  0x08085e3c    0x328  GUIDEV.o [3]
  .text              ro code  0x08086164     0x84  WM_Timer.o [3]
  .text              ro code  0x080861e8     0x38  GUI_SelectLayer.o [3]
  .text              ro code  0x08086220    0x160  GUIDEV_Banding.o [3]
  .text              ro code  0x08086380     0x90  GUI_OnKey.o [3]
  .text              ro code  0x08086410     0xd0  GUI__ManageCache.o [3]
  .text              ro code  0x080864e0    0x166  GUI_Device.o [3]
  .text              ro code  0x08086648    0x110  LCD_Color.o [3]
  .text              ro code  0x08086758     0xa4  xlocale_c.o [4]
  .text              ro code  0x080867fc     0x16  strchr.o [7]
  .text              ro code  0x08086814     0x44  xfail_s.o [4]
  .text              ro code  0x08086858     0x58  memchr.o [7]
  .text              ro code  0x080868b0      0xa  xmbcurmax.o [4]
  .text              ro code  0x080868bc    0x22e  I64DivMod.o [7]
  .text              ro code  0x08086aec     0x70  frexp.o [5]
  .text              ro code  0x08086b5c     0x2e  DblCmpGe.o [5]
  .text              ro code  0x08086b8c    0x13a  ldexp.o [5]
  .text              ro code  0x08086cc8     0x3a  DblToS32.o [5]
  .text              ro code  0x08086d04     0x22  S32ToDbl.o [5]
  .text              ro code  0x08086d28     0xe2  DblSub.o [5]
  .text              ro code  0x08086e0c     0x28  DblToU32.o [5]
  .text              ro code  0x08086e34     0x1a  U32ToDbl.o [5]
  .text              ro code  0x08086e50     0x90  LCD_Set.o [3]
  .text              ro code  0x08086ee0    0x648  GUIDRV_FlexColor.o [3]
  .text              ro code  0x08087528    0x2d0  OS_ResourceSemaphore.o [6]
  .text              ro code  0x080877f8    0x8ac  OS_Com.o [6]
  .text              ro code  0x080880a4    0x404  stm32f4xx_hal_dma.o [1]
  .text              ro code  0x080884a8      0x2  stm32f4xx_hal_uart.o [1]
  .text              ro code  0x080884aa      0x2  stm32f4xx_hal_uart.o [1]
  .text              ro code  0x080884ac      0x2  stm32f4xx_hal_uart.o [1]
  .text              ro code  0x080884b0     0x96  ABImemmove.o [7]
  .text              ro code  0x08088548     0xd4  stm32f4xx_ll_fsmc.o [1]
  .text              ro code  0x0808861c      0x2  stm32f4xx_hal_tim.o [1]
  .text              ro code  0x0808861e      0x2  stm32f4xx_hal_tim.o [1]
  .text              ro code  0x08088620      0x2  stm32f4xx_hal_tim_ex.o [1]
  .text              ro code  0x08088622      0x2  stm32f4xx_hal_tim.o [1]
  .text              ro code  0x08088624      0x2  stm32f4xx_hal_tim_ex.o [1]
  .text              ro code  0x08088626      0x2  stm32f4xx_hal_tim.o [1]
  .text              ro code  0x08088628      0x2  stm32f4xx_hal_spi.o [1]
  .text              ro code  0x0808862c     0x4c  OS_InitMode.o [6]
  .text              ro code  0x08088678     0x18  OS_StackInfo.o [6]
  .text              ro code  0x08088690     0x70  OS_SysTick.o [6]
  .text              ro code  0x08088700    0x1d4  JLINKMEM_Process.o [1]
  .text              ro code  0x080888d4     0xd0  system_stm32f4xx.o [1]
  .text              ro code  0x080889a4    0x184  OS_Timing.o [6]
  .text              ro code  0x08088b28     0xa0  SEGGER_SYSVIEW_Config_embOS.o [1]
  .text              ro code  0x08088bc8     0x30  OS_ARMv7M_ISRCheckPrio.o [6]
  .text              ro code  0x08088bf8     0x32  ABImemset48.o [7]
  .text              ro code  0x08088c2c     0xe4  GUI_FillRoundedRect.o [3]
  .text              ro code  0x08088d10     0xf8  GUI_DrawBitmap.o [3]
  .text              ro code  0x08088e08     0x14  isspace.o [4]
  .text              ro code  0x08088e1c     0x14  tolower.o [4]
  .text              ro code  0x08088e30     0xac  GUI_DRAW_BITMAP.o [3]
  .text              ro code  0x08088edc     0x40  BUTTON__SetDrawObj.o [3]
  .text              ro code  0x08088f1c    0x208  WIDGET.o [3]
  .text              ro code  0x08089124     0x5e  WM_SetFocusOnPrevChild.o [3]
  .text              ro code  0x08089184     0x84  WM_SetFocusOnNextChild.o [3]
  .text              ro code  0x08089208     0x68  floor.o [5]
  .text              ro code  0x08089270    0x178  DblAdd.o [5]
  .text              ro code  0x080893e8    0x150  WM_Move.o [3]
  .text              ro code  0x08089538    0x1b8  GUIDEV_UsageBM.o [3]
  .text              ro code  0x080896f0     0x58  GUIDEV_Usage.o [3]
  .text              ro code  0x08089748    0x608  GUIDEV_WriteToActiveOpaque.o [3]
  .text              ro code  0x08089d50    0x13e  GUI_Timer.o [3]
  .text              ro code  0x08089e90     0x34  GUIDEV_GetYSize.o [3]
  .text              ro code  0x08089ec4     0x38  GUIDEV_ReduceYSize.o [3]
  .text              ro code  0x08089efc     0x70  GUIDEV_SetOrg.o [3]
  .text              ro code  0x08089f6c     0x44  GUIDEV_Clear.o [3]
  .text              ro code  0x08089fb0     0x1a  LCD_GetNumDisplays.o [3]
  .text              ro code  0x08089fca      0x6  abort.o [4]
  .text              ro code  0x08089fd0      0x2  I64DivZer.o [7]
  .text              ro code  0x08089fd4    0x854  SEGGER_SYSVIEW.o [1]
  .text              ro code  0x0808a828     0x14  OS_Trace.o [6]
  .text              ro code  0x0808a83c     0x80  WM_BringToTop.o [3]
  .text              ro code  0x0808a8bc    0x274  GUI__CompactPixelIndices.o [3]
  .text              ro code  0x0808ab30     0x2a  GUIDEV_GetDataPtr.o [3]
  .text              ro code  0x0808ab5c     0x14  exit.o [8]
  .text              ro code  0x0808ab70    0x1fc  SEGGER_RTT.o [1]
  .rodata            const    0x0808ad6c   0x1398  F24B_1.o [3]
  .rodata            const    0x0808c104   0x1300  F24B_ASCII.o [3]
  .rodata            const    0x0808d404   0x12b8  F24_ASCII.o [3]
  .rodata            const    0x0808e6bc   0x1048  F20B_ASCII.o [3]
  .rodata            const    0x0808f704    0xfd0  F20_ASCII.o [3]
  .rodata            const    0x080906d4    0xae0  F16B_1.o [3]
  .rodata            const    0x080911b4    0xaa0  F16_ASCII.o [3]
  .rodata            const    0x08091c54    0xa88  F16B_ASCII.o [3]
  .text              ro code  0x080926dc    0x994  GUIDEV_16.o [3]
  .rodata            const    0x08093070    0x984  F13_1.o [3]
  .text              ro code  0x080939f4    0x978  GUIDEV_32.o [3]
  .rodata            const    0x0809436c    0x918  F13_ASCII.o [3]
  .rodata            const    0x08094c84    0x718  F6x8.o [3]
  .text              ro code  0x0809539c    0x620  GUIDRV_FlexColor_16bpp_C0B16.o [3]
  .text              ro code  0x080959bc    0x318  GUIDRV_FlexColor_Func66709.o [3]
  .text              ro code  0x08095cd4    0x2f4  GUI__Alpha.o [3]
  .text              ro code  0x08095fc8    0x1b4  LCD_ReadRect.o [3]
  .text              ro code  0x0809617c    0x120  GUI__ExpandPixelIndices.o [3]
  .rodata            const    0x0809629c    0x260  GUI__DivTbl.o [3]
  .text              ro code  0x080964fc    0x244  BUTTON_SkinFlex.o [3]
  .text              ro code  0x08096740    0x1f8  GUI__DrawTwinArc.o [3]
  .text              ro code  0x08096938    0x1f8  GUI_DrawGradient.o [3]
  .text              ro code  0x08096b30     0x2e  GUI_DRAW.o [3]
  .text              ro code  0x08096b60     0x4e  WM_SetTrans.o [3]
  .text              ro code  0x08096bb0    0x218  LCD_RLE16.o [3]
  .text              ro code  0x08096dc8     0x2c  GUICC_M565.o [3]
  .text              ro code  0x08096df4     0xcc  GUICC_565.o [3]
  .text              ro code  0x08096ec0    0x1f2  lz77_init.o [7]
  .text              ro code  0x080970b4    0x1a8  GUIDEV_WriteToActiveAlpha.o [3]
  .text              ro code  0x0809725c    0x174  GUI_CharM.o [3]
  .text              ro code  0x080973d0    0x170  GUIDEV_StaticDevices.o [3]
  .text              ro code  0x08097540     0x24  GUI_SetAlpha.o [3]
  .text              ro code  0x08097564     0x84  GUIDEV_Write.o [3]
  .text              ro code  0x080975e8     0x10  LCD_AA.o [3]
  .text              ro code  0x080975f8    0x12c  GUI_CharP.o [3]
  .text              ro code  0x08097724    0x120  GUI_CharPExt.o [3]
  .text              ro code  0x08097844    0x11c  GUI_EncExt.o [3]
  .rodata            const    0x08097960    0x100  LCD_Mirror.o [3]
  .text              ro code  0x08097a60     0xc8  stm32f4xx_it.o [1]
  .text              ro code  0x08097b28     0xb8  GUICC_0.o [3]
  .text              ro code  0x08097be0     0xb0  SEGGER_SYSVIEW_embOS.o [1]
  .text              ro code  0x08097c90     0xa8  BUTTON_Skin.o [3]
  .text              ro code  0x08097d38     0x68  WM_GetWindowSize.o [3]
  .text              ro code  0x08097da0     0x80  SEGGER_HardFaultHandler.o [1]
  .rodata            const    0x08097e20     0x64  SEGGER_SYSVIEW_embOS.o [1]
  .text              ro code  0x08097e84     0x60  WIDGET_Effect_Simple.o [3]
  .rodata            const    0x08097ee4     0x48  MenuDLG.o [1]
  .text              ro code  0x08097f2c     0x40  zero_init3.o [7]
  .rodata            const    0x08097f6c     0x34  GUIDRV_FlexColor.o [3]
  .text              ro code  0x08097fa0     0x28  GUICC_8888.o [3]
  .text              ro code  0x08097fc8     0x28  data_init.o [7]
  .text              ro code  0x08097ff0     0x24  GUI_UC_EncodeNone.o [3]
  .text              ro code  0x08098014     0x24  GUICC_M555_Index2Color.o [3]
  .text              ro code  0x08098038     0x22  fpinit_M.o [5]
  .iar.init_table    const    0x0809805c     0x2c  - Linker created -
  .text              ro code  0x08098088     0x1e  cmain.o [7]
  .text              ro code  0x080980a6      0x4  low_level_init.o [4]
  .text              ro code  0x080980aa      0x4  exit.o [4]
  .text              ro code  0x080980b0      0xa  cexit.o [7]
  .rodata            const    0x080980bc     0x1c  OS_Info.o [6]
  .rodata            const    0x080980d8     0x1c  WIDGET_Effect_Simple.o [3]
  .rodata            const    0x080980f4     0x18  GUICC_565.o [3]
  .rodata            const    0x0809810c     0x18  GUICC_0.o [3]
  .rodata            const    0x08098124     0x18  GUICC_8888.o [3]
  .text              ro code  0x0809813c     0x16  xprout.o [4]
  .text              ro code  0x08098154      0xc  putchar.o [4]
  .rodata            const    0x08098160     0x14  MLinkInfo.o [1]
  .text              ro code  0x08098174     0x14  memset.o [7]
  .text              ro code  0x08098188     0x12  HardFaultHandler.o [1]
  .rodata            const    0x0809819c     0x10  LCD_RLE16.o [3]
  .text              ro code  0x080981ac     0x10  startup_stm32f407xx.o [1]
  .rodata            const    0x080981bc      0xc  GUI_EncExt.o [3]
  .rodata            const    0x080981c8      0xc  LCD.o [3]
  .text              ro code  0x080981d4      0xc  cstartup_M.o [7]
  .text              ro code  0x080981e0      0xc  memcpy.o [7]
  .rodata            const    0x080981ec      0x8  system_stm32f4xx.o [1]
  .rodata            const    0x080981f4      0x6  xlocale_c.o [4]
  .rodata            const    0x080981fc      0x4  RTOSInit_STM32F4x_CMSIS.o [1]
  .rodata            const    0x08098200      0x4  OS_Global.o [6]
  .text              ro code  0x08098204      0x4  startup_stm32f407xx.o [1]
  .text              ro code  0x08098208      0x4  startup_stm32f407xx.o [1]
  .text              ro code  0x0809820c      0x4  startup_stm32f407xx.o [1]
  .text              ro code  0x08098210      0x4  startup_stm32f407xx.o [1]
  .text              ro code  0x08098214      0x4  startup_stm32f407xx.o [1]
  .text              ro code  0x08098218      0x4  startup_stm32f407xx.o [1]
  .text              ro code  0x0809821c      0x4  startup_stm32f407xx.o [1]
  .text              ro code  0x08098220      0x4  startup_stm32f407xx.o [1]
  .text              ro code  0x08098224      0x4  startup_stm32f407xx.o [1]
  .text              ro code  0x08098228      0x4  startup_stm32f407xx.o [1]
  .text              ro code  0x0809822c      0x4  startup_stm32f407xx.o [1]
  .text              ro code  0x08098230      0x4  startup_stm32f407xx.o [1]
  .text              ro code  0x08098234      0x4  startup_stm32f407xx.o [1]
  .text              ro code  0x08098238      0x4  startup_stm32f407xx.o [1]
  .text              ro code  0x0809823c      0x4  startup_stm32f407xx.o [1]
  .text              ro code  0x08098240      0x4  startup_stm32f407xx.o [1]
  .text              ro code  0x08098244      0x4  startup_stm32f407xx.o [1]
  .text              ro code  0x08098248      0x4  startup_stm32f407xx.o [1]
  .text              ro code  0x0809824c      0x4  startup_stm32f407xx.o [1]
  .text              ro code  0x08098250      0x4  startup_stm32f407xx.o [1]
  .text              ro code  0x08098254      0x4  startup_stm32f407xx.o [1]
  .text              ro code  0x08098258      0x4  startup_stm32f407xx.o [1]
  .text              ro code  0x0809825c      0x4  startup_stm32f407xx.o [1]
  .text              ro code  0x08098260      0x4  startup_stm32f407xx.o [1]
  .text              ro code  0x08098264      0x4  startup_stm32f407xx.o [1]
  .text              ro code  0x08098268      0x4  startup_stm32f407xx.o [1]
  .text              ro code  0x0809826c      0x4  startup_stm32f407xx.o [1]
  .text              ro code  0x08098270      0x4  startup_stm32f407xx.o [1]
  .text              ro code  0x08098274      0x4  startup_stm32f407xx.o [1]
  .text              ro code  0x08098278      0x4  startup_stm32f407xx.o [1]
  .text              ro code  0x0809827c      0x4  startup_stm32f407xx.o [1]
  .text              ro code  0x08098280      0x4  startup_stm32f407xx.o [1]
  .text              ro code  0x08098284      0x4  startup_stm32f407xx.o [1]
  .text              ro code  0x08098288      0x4  startup_stm32f407xx.o [1]
  .text              ro code  0x0809828c      0x4  startup_stm32f407xx.o [1]
  .text              ro code  0x08098290      0x4  startup_stm32f407xx.o [1]
  .text              ro code  0x08098294      0x4  startup_stm32f407xx.o [1]
  .text              ro code  0x08098298      0x4  startup_stm32f407xx.o [1]
  .text              ro code  0x0809829c      0x4  startup_stm32f407xx.o [1]
  .text              ro code  0x080982a0      0x4  startup_stm32f407xx.o [1]
  .text              ro code  0x080982a4      0x4  startup_stm32f407xx.o [1]
  .text              ro code  0x080982a8      0x4  startup_stm32f407xx.o [1]
  .text              ro code  0x080982ac      0x4  startup_stm32f407xx.o [1]
  .text              ro code  0x080982b0      0x4  startup_stm32f407xx.o [1]
  .text              ro code  0x080982b4      0x4  startup_stm32f407xx.o [1]
  .text              ro code  0x080982b8      0x4  startup_stm32f407xx.o [1]
  .text              ro code  0x080982bc      0x4  startup_stm32f407xx.o [1]
  .text              ro code  0x080982c0      0x4  startup_stm32f407xx.o [1]
  .text              ro code  0x080982c4      0x4  startup_stm32f407xx.o [1]
  .text              ro code  0x080982c8      0x4  startup_stm32f407xx.o [1]
  .text              ro code  0x080982cc      0x4  startup_stm32f407xx.o [1]
  .text              ro code  0x080982d0      0x4  startup_stm32f407xx.o [1]
  .text              ro code  0x080982d4      0x4  startup_stm32f407xx.o [1]
  .text              ro code  0x080982d8      0x4  startup_stm32f407xx.o [1]
  .text              ro code  0x080982dc      0x4  startup_stm32f407xx.o [1]
  .text              ro code  0x080982e0      0x4  startup_stm32f407xx.o [1]
  .text              ro code  0x080982e4      0x4  startup_stm32f407xx.o [1]
  .text              ro code  0x080982e8      0x4  startup_stm32f407xx.o [1]
  .text              ro code  0x080982ec      0x4  startup_stm32f407xx.o [1]
  .text              ro code  0x080982f0      0x4  startup_stm32f407xx.o [1]
  .text              ro code  0x080982f4      0x4  startup_stm32f407xx.o [1]
  .text              ro code  0x080982f8      0x4  startup_stm32f407xx.o [1]
  .text              ro code  0x080982fc      0x4  startup_stm32f407xx.o [1]
  .text              ro code  0x08098300      0x4  startup_stm32f407xx.o [1]
  .text              ro code  0x08098304      0x4  startup_stm32f407xx.o [1]
  .text              ro code  0x08098308      0x4  startup_stm32f407xx.o [1]
  .text              ro code  0x0809830c      0x4  startup_stm32f407xx.o [1]
  .rodata            const    0x08098310      0x0  zero_init3.o [7]
  .rodata            const    0x08098310      0x0  lz77_init.o [7]
  Initializer bytes  const    0x08098310    0xc25  <for P4 s0>
                            - 0x08098f35  0x8cdad

"P3":                                       0x800
  CSTACK                      0x10000000    0x800  <Block>
    CSTACK           uninit   0x10000000    0x800  <Block tail>
                            - 0x10000800    0x800

"P4", part 1 of 2:                         0x22db
  P4 s0                       0x20000000   0x22db  <Init block>
    .data            inited   0x20000000    0x870  GuiData.o [1]
    .data            inited   0x20000870    0x600  GuiData.o [1]
    .data            inited   0x20000e70    0x2a0  GuiData.o [1]
    .data            inited   0x20001110    0x168  GuiData.o [1]
    .data            inited   0x20001278     0xf0  GuiData.o [1]
    .data            inited   0x20001368     0xb4  GuiData.o [1]
    .data            inited   0x2000141c     0x90  GuiData.o [1]
    .data            inited   0x200014ac     0x84  GuiData.o [1]
    .data            inited   0x20001530     0x80  GUI_Core.o [3]
    .data            inited   0x200015b0     0x78  GuiData.o [1]
    .data            inited   0x20001628     0x78  GuiData.o [1]
    .data            inited   0x200016a0     0x78  GuiData.o [1]
    .data            inited   0x20001718     0x6c  GuiData.o [1]
    .data            inited   0x20001784     0x6c  GuiData.o [1]
    .data            inited   0x200017f0     0x54  GuiData.o [1]
    .data            inited   0x20001844     0x48  AcbMccbMeasurement.o [1]
    .data            inited   0x2000188c     0x48  GuiData.o [1]
    .data            inited   0x200018d4     0x48  GuiData.o [1]
    .data            inited   0x2000191c     0x3c  GuiData.o [1]
    .data            inited   0x20001958     0x48  OS_Global.o [6]
    .data            inited   0x200019a0     0x48  xlocale_c.o [4]
    .data            inited   0x200019e8     0x48  xfiles.o [4]
    .data            inited   0x20001a30     0x3c  GuiData.o [1]
    .data            inited   0x20001a6c     0x3c  GuiData.o [1]
    .data            inited   0x20001aa8     0x3c  GuiData.o [1]
    .data            inited   0x20001ae4     0x38  MLinkInfo.o [1]
    .data            inited   0x20001b1c     0x38  xlocale_c.o [4]
    .data            inited   0x20001b54     0x34  BUTTON.o [3]
    .data            inited   0x20001b88     0x30  GuiData.o [1]
    .data            inited   0x20001bb8     0x30  GuiData.o [1]
    .data            inited   0x20001be8     0x30  GuiData.o [1]
    .data            inited   0x20001c18     0x30  GuiData.o [1]
    .data            inited   0x20001c48     0x30  GuiData.o [1]
    .data            inited   0x20001c78     0x30  GuiData.o [1]
    .data            inited   0x20001ca8     0x2c  AcbMccbControl.o [1]
    .data            inited   0x20001cd4     0x24  GuiData.o [1]
    .data            inited   0x20001cf8     0x24  GuiData.o [1]
    .data            inited   0x20001d1c     0x20  GuiData.o [1]
    .data            inited   0x20001d3c     0x20  GuiData.o [1]
    .data            inited   0x20001d5c     0x20  GuiData.o [1]
    .data            inited   0x20001d7c     0x20  BUTTON_SkinFlex.o [3]
    .data            inited   0x20001d9c     0x20  BUTTON_SkinFlex.o [3]
    .data            inited   0x20001dbc     0x20  BUTTON_SkinFlex.o [3]
    .data            inited   0x20001ddc     0x20  BUTTON_SkinFlex.o [3]
    .data            inited   0x20001dfc     0x1c  GUI_Core.o [3]
    .data            inited   0x20001e18     0x1c  GUI_Task.o [3]
    .data            inited   0x20001e34     0x18  GuiData.o [1]
    .data            inited   0x20001e4c     0x18  GuiData.o [1]
    .data            inited   0x20001e64     0x18  GuiData.o [1]
    .data            inited   0x20001e7c     0x18  GuiData.o [1]
    .data            inited   0x20001e94     0x18  GuiData.o [1]
    .data            inited   0x20001eac     0x18  GuiData.o [1]
    .data            inited   0x20001ec4     0x18  GuiData.o [1]
    .data            inited   0x20001edc     0x18  GuiData.o [1]
    .data            inited   0x20001ef4     0x18  GuiData.o [1]
    .data            inited   0x20001f0c     0x18  GuiData.o [1]
    .data            inited   0x20001f24     0x18  GuiData.o [1]
    .data            inited   0x20001f3c     0x18  GuiData.o [1]
    .data            inited   0x20001f54     0x18  GuiData.o [1]
    .data            inited   0x20001f6c     0x18  GuiData.o [1]
    .data            inited   0x20001f84     0x18  GuiData.o [1]
    .data            inited   0x20001f9c     0x18  GuiData.o [1]
    .data            inited   0x20001fb4     0x18  GuiData.o [1]
    .data            inited   0x20001fcc     0x18  GuiData.o [1]
    .data            inited   0x20001fe4     0x18  GuiData.o [1]
    .data            inited   0x20001ffc     0x18  SettingTime.o [1]
    .data            inited   0x20002014     0x14  GuiData.o [1]
    .data            inited   0x20002028     0x14  GuiData.o [1]
    .data            inited   0x2000203c     0x14  GuiData.o [1]
    .data            inited   0x20002050     0x14  GuiData.o [1]
    .data            inited   0x20002064     0x14  GuiData.o [1]
    .data            inited   0x20002078     0x14  GuiData.o [1]
    .data            inited   0x2000208c     0x14  LCD_Color.o [3]
    .data            inited   0x200020a0     0x14  WM_Touch.o [3]
    .data            inited   0x200020b4     0x14  LCD_AA.o [3]
    .data            inited   0x200020c8     0x10  GuiData.o [1]
    .data            inited   0x200020d8     0x10  GuiData.o [1]
    .data            inited   0x200020e8     0x10  GuiData.o [1]
    .data            inited   0x200020f8     0x10  GuiData.o [1]
    .data            inited   0x20002108     0x10  GuiData.o [1]
    .data            inited   0x20002118     0x10  GuiData.o [1]
    .data            inited   0x20002128     0x10  GUI_OnKey.o [3]
    .data            inited   0x20002138     0x10  GUI_BMP.o [3]
    .data            inited   0x20002148      0xc  GuiData.o [1]
    .data            inited   0x20002154      0xc  GuiData.o [1]
    .data            inited   0x20002160      0xc  GuiData.o [1]
    .data            inited   0x2000216c      0xc  GuiData.o [1]
    .data            inited   0x20002178      0xc  GuiData.o [1]
    .data            inited   0x20002184      0xc  GuiData.o [1]
    .data            inited   0x20002190      0xc  GuiData.o [1]
    .data            inited   0x2000219c      0xc  GuiData.o [1]
    .data            inited   0x200021a8      0xc  GuiData.o [1]
    .data            inited   0x200021b4      0xc  GuiData.o [1]
    .data            inited   0x200021c0      0xc  GuiData.o [1]
    .data            inited   0x200021cc      0xc  GuiData.o [1]
    .data            inited   0x200021d8      0xc  GuiData.o [1]
    .data            inited   0x200021e4      0xc  GuiData.o [1]
    .data            inited   0x200021f0      0xc  GuiData.o [1]
    .data            inited   0x200021fc      0xc  GuiData.o [1]
    .data            inited   0x20002208      0xc  GuiData.o [1]
    .data            inited   0x20002214      0xc  GuiData.o [1]
    .data            inited   0x20002220      0xc  GuiData.o [1]
    .data            inited   0x2000222c      0xc  GuiData.o [1]
    .data            inited   0x20002238      0xc  GuiData.o [1]
    .data            inited   0x20002244      0xc  BUTTON_Skin.o [3]
    .data            inited   0x20002250      0x8  GuiData.o [1]
    .data            inited   0x20002258      0x8  GuiData.o [1]
    .data            inited   0x20002260      0x8  GuiData.o [1]
    .data            inited   0x20002268      0x8  GuiData.o [1]
    .data            inited   0x20002270      0x8  GuiData.o [1]
    .data            inited   0x20002278      0x8  GuiData.o [1]
    .data            inited   0x20002280      0x8  GuiData.o [1]
    .data            inited   0x20002288      0x8  GUI_EncExt.o [3]
    .data            inited   0x20002290      0x8  GUIDRV_FlexColor_Func66709.o [3]
    .data            inited   0x20002298      0x8  BUTTON.o [3]
    .data            inited   0x200022a0      0x8  GUI__Alpha.o [3]
    .data            inited   0x200022a8      0x4  GuiData.o [1]
    .data            inited   0x200022ac      0x4  GuiData.o [1]
    .data            inited   0x200022b0      0x4  system_stm32f4xx.o [1]
    .data            inited   0x200022b4      0x4  GUI_Core.o [3]
    .data            inited   0x200022b8      0x4  GUI_Time.o [3]
    .data            inited   0x200022bc      0x4  GUI_BMP.o [3]
    .data            inited   0x200022c0      0x4  WINDOW.o [3]
    .data            inited   0x200022c4      0x4  GUI__Private.o [3]
    .data            inited   0x200022c8      0x4  GUI__Private.o [3]
    .data            inited   0x200022cc      0x4  LCD.o [3]
    .data            inited   0x200022d0      0x4  GUI_CharLine.o [3]
    .data            inited   0x200022d4      0x4  WIDGET.o [3]
    .data            inited   0x200022d8      0x2  GuiData.o [1]
    .data            inited   0x200022da      0x1  GUIDEV_StaticDevices.o [3]
                            - 0x200022db   0x22db

"P4", part 2 of 2:                        0x14d48
  .bss               zero     0x200022dc   0xdc00  GUIConf.o [1]
  .bss               zero     0x2000fedc   0x51a4  main.o [1]
  .bss               zero     0x20015080    0x518  SEGGER_SYSVIEW.o [1]
  .bss               zero     0x20015598    0x4b8  SEGGER_RTT.o [1]
  .bss               zero     0x20015a50    0x284  main.o [1]
  .bss               zero     0x20015cd4    0x210  main.o [1]
  .bss               zero     0x20015ee4    0x1e0  main.o [1]
  .bss               zero     0x200160c4    0x118  main.o [1]
  .bss               zero     0x200161dc     0xec  OS_Com.o [6]
  .bss               zero     0x200162c8     0xc0  GUI_Alloc.o [3]
  .bss               zero     0x20016388     0x98  MainMenu.o [1]
  .bss               zero     0x20016420     0x88  GuiData.o [1]
  .bss               zero     0x200164a8     0x80  MainMenu.o [1]
  .bss               zero     0x20016528     0x7c  WM.o [3]
  .bss               zero     0x200165a4     0x68  AcbMccbMeasurement.o [1]
  .bss               zero     0x2001660c     0x60  main.o [1]
  .bss               zero     0x2001666c     0x60  main.o [1]
  .bss               zero     0x200166cc     0x60  main.o [1]
  .bss               zero     0x2001672c     0x60  main.o [1]
  .bss               zero     0x2001678c     0x60  main.o [1]
  .bss               zero     0x200167ec     0x60  MainMenu.o [1]
  .bss               zero     0x2001684c     0x5c  MLinkOverview.o [1]
  .bss               zero     0x200168a8     0x58  GUI_OnKey.o [3]
  .bss               zero     0x20016900     0x54  main.o [1]
  .bss               zero     0x20016954     0x50  xfiles.o [4]
  .bss               zero     0x200169a8     0x48  AcbMccbMeasurement.o [1]
  .bss               zero     0x200169f0     0x44  SEGGER_HardFaultHandler.o [1]
  .bss               zero     0x20016a34     0x40  main.o [1]
  .bss               zero     0x20016a74     0x40  WM_Touch.o [3]
  .bss               zero     0x20016ab4     0x3c  Setup.o [1]
  .bss               zero     0x20016af0     0x3c  stm32f4xx_it.o [1]
  .bss               zero     0x20016b2c     0x38  LCD_RLE16.o [3]
  .bss               zero     0x20016b64     0x34  main.o [1]
  .bss               zero     0x20016b98     0x34  main.o [1]
  .bss               zero     0x20016bcc     0x34  main.o [1]
  .bss               zero     0x20016c00     0x34  main.o [1]
  .bss               zero     0x20016c34     0x34  main.o [1]
  .bss               zero     0x20016c68     0x34  main.o [1]
  .bss               zero     0x20016c9c     0x30  JLINKMEM_Process.o [1]
  .bss               zero     0x20016ccc     0x30  GUI_BMP.o [3]
  .bss               zero     0x20016cfc     0x24  main.o [1]
  .bss               zero     0x20016d20     0x24  GUI_BMP.o [3]
  .bss               zero     0x20016d44     0x20  GuiData.o [1]
  .bss               zero     0x20016d64     0x20  main.o [1]
  .bss               zero     0x20016d84     0x20  main.o [1]
  .bss               zero     0x20016da4     0x20  stm32f4xx_hal_flash.o [1]
  .bss               zero     0x20016dc4     0x20  OS_Timing.o [6]
  .bss               zero     0x20016de4     0x1c  GUI_FillPolygon.o [3]
  .bss               zero     0x20016e00     0x1c  GUI__Alpha.o [3]
  .bss               zero     0x20016e1c     0x18  MenuDLG.o [1]
  .bss               zero     0x20016e34     0x14  GUI_X_embOS.o [1]
  .bss               zero     0x20016e48     0x14  main.o [1]
  .bss               zero     0x20016e5c     0x14  GUI_Core.o [3]
  .bss               zero     0x20016e70     0x14  GUI_Timer.o [3]
  .bss               zero     0x20016e84     0x10  main.o [1]
  .bss               zero     0x20016e94     0x10  main.o [1]
  .bss               zero     0x20016ea4     0x10  main.o [1]
  .bss               zero     0x20016eb4     0x10  main.o [1]
  .bss               zero     0x20016ec4     0x10  main.o [1]
  .bss               zero     0x20016ed4     0x10  main.o [1]
  .bss               zero     0x20016ee4     0x10  main.o [1]
  .bss               zero     0x20016ef4     0x10  main.o [1]
  .bss               zero     0x20016f04     0x10  GUI__ManageCache.o [3]
  .bss               zero     0x20016f14      0xc  GuiData.o [1]
  .bss               zero     0x20016f20      0xc  GUI_Alloc.o [3]
  .bss               zero     0x20016f2c      0xc  OS_Kern.o [6]
  .bss               zero     0x20016f38      0x8  GuiData.o [1]
  .bss               zero     0x20016f40      0x8  GuiData.o [1]
  .bss               zero     0x20016f48      0x8  GuiData.o [1]
  .bss               zero     0x20016f50      0x8  OS_Task.o [6]
  .bss               zero     0x20016f58      0x8  LCD_GetEx.o [3]
  .bss               zero     0x20016f60      0x4  GuiData.o [1]
  .bss               zero     0x20016f64      0x4  GuiData.o [1]
  .bss               zero     0x20016f68      0x4  GuiData.o [1]
  .bss               zero     0x20016f6c      0x4  GuiData.o [1]
  .bss               zero     0x20016f70      0x4  GuiData.o [1]
  .bss               zero     0x20016f74      0x4  GuiData.o [1]
  .bss               zero     0x20016f78      0x4  main.o [1]
  .bss               zero     0x20016f7c      0x4  main.o [1]
  .bss               zero     0x20016f80      0x4  main.o [1]
  .bss               zero     0x20016f84      0x4  main.o [1]
  .bss               zero     0x20016f88      0x4  main.o [1]
  .bss               zero     0x20016f8c      0x4  MLinkControl.o [1]
  .bss               zero     0x20016f90      0x4  MLinkHwSet.o [1]
  .bss               zero     0x20016f94      0x4  stm32f4xx_hal.o [1]
  .bss               zero     0x20016f98      0x4  stm32f4xx_hal_msp.o [1]
  .bss               zero     0x20016f9c      0x4  GUI_Core.o [3]
  .bss               zero     0x20016fa0      0x4  GUI_Core.o [3]
  .bss               zero     0x20016fa4      0x4  GUI_Core.o [3]
  .bss               zero     0x20016fa8      0x4  GUI_Core.o [3]
  .bss               zero     0x20016fac      0x4  GUI_Core.o [3]
  .bss               zero     0x20016fb0      0x4  GUI_Core.o [3]
  .bss               zero     0x20016fb4      0x4  GUI_Core.o [3]
  .bss               zero     0x20016fb8      0x4  GUI_Core.o [3]
  .bss               zero     0x20016fbc      0x4  OS_Global.o [6]
  .bss               zero     0x20016fc0      0x4  OS_Global.o [6]
  .bss               zero     0x20016fc4      0x4  OS_Global.o [6]
  .bss               zero     0x20016fc8      0x4  OS_Global.o [6]
  .bss               zero     0x20016fcc      0x4  OS_Global.o [6]
  .bss               zero     0x20016fd0      0x4  OS_Global.o [6]
  .bss               zero     0x20016fd4      0x4  OS_Global.o [6]
  .bss               zero     0x20016fd8      0x4  OS_Global.o [6]
  .bss               zero     0x20016fdc      0x4  OS_Global.o [6]
  .bss               zero     0x20016fe0      0x4  GUIDRV_FlexColor.o [3]
  .bss               zero     0x20016fe4      0x4  WM.o [3]
  .bss               zero     0x20016fe8      0x4  GUI_WaitEvent.o [3]
  .bss               zero     0x20016fec      0x4  GUIDEV_16.o [3]
  .bss               zero     0x20016ff0      0x4  WM__Private.o [3]
  .bss               zero     0x20016ff4      0x4  GUIDEV_Banding.o [3]
  .bss               zero     0x20016ff8      0x4  WIDGET_Effect_Simple.o [3]
  .bss               zero     0x20016ffc      0x4  xfail_s.o [4]
  .bss               zero     0x20017000      0x2  GuiData.o [1]
  .bss               zero     0x20017002      0x2  GuiData.o [1]
  .bss               zero     0x20017004      0x2  GuiData.o [1]
  .bss               zero     0x20017006      0x2  GuiData.o [1]
  .bss               zero     0x20017008      0x2  GuiData.o [1]
  .bss               zero     0x2001700a      0x2  GuiData.o [1]
  .bss               zero     0x2001700c      0x2  GuiData.o [1]
  .bss               zero     0x2001700e      0x2  main.o [1]
  .bss               zero     0x20017010      0x2  main.o [1]
  .bss               zero     0x20017012      0x2  GUI_Core.o [3]
  .bss               zero     0x20017014      0x2  GUI_Core.o [3]
  .bss               zero     0x20017016      0x2  GUI_Core.o [3]
  .bss               zero     0x20017018      0x1  main.o [1]
  .bss               zero     0x20017019      0x1  main.o [1]
  .bss               zero     0x2001701a      0x1  SEGGER_SYSVIEW.o [1]
  .bss               zero     0x2001701b      0x1  GUI_Core.o [3]
  .bss               zero     0x2001701c      0x1  OS_Global.o [6]
  .bss               zero     0x2001701d      0x1  OS_Global.o [6]
  .bss               zero     0x2001701e      0x1  OS_Global.o [6]
  .bss               zero     0x2001701f      0x1  OS_Global.o [6]
  .bss               zero     0x20017020      0x1  OS_Global.o [6]
  .bss               zero     0x20017021      0x1  OS_Global.o [6]
                            - 0x20017022  0x14d46


*******************************************************************************
*** INIT TABLE
***

          Address     Size
          -------     ----
Zero (__iar_zero_init3)
    1 destination range, total size 0x14d46:
          0x200022dc  0x14d46

Copy/lz77 (__iar_lz77_init3)
    1 source range, total size 0xc25 (34% of destination):
          0x08098310    0xc25
    1 destination range, total size 0x22db:
          0x20000000   0x22db



*******************************************************************************
*** MODULE SUMMARY
***

    Module                          ro code  ro data  rw data
    ------                          -------  -------  -------
D:\STM32F4\NewIHM8Git\EWARM\NewIHM8\Obj: [1]
    AcbMccbControl.o                  2 680       15       44
    AcbMccbEvent.o                    2 492
    AcbMccbHwSet.o                    1 100
    AcbMccbInfo.o                     1 956
    AcbMccbMeasurement.o              5 192       25      248
    AcbMccbRelaySet.o                 1 852
    GUIConf.o                            32            56 320
    GUI_X_embOS.o                        60                20
    GuiData.o                                 14 642    8 156
    HardFaultHandler.o                   18
    Image.o                                  139 824
    JLINKMEM_Process.o                  468                48
    LCDConf_FlexColor_Hmi.o             228
    LS-Font20b_.o                             38 456
    LS-Font20n_.o                             38 176
    LS-font16_.o                              25 988
    LS-font24_.o                              44 212
    LS-font_24x24.o                           35 708
    MLinkControl.o                    2 852                 4
    MLinkEvent.o                        860
    MLinkHwSet.o                        924                 4
    MLinkIOSet.o                      1 924
    MLinkInfo.o                       2 344       40       56
    MLinkOverview.o                   1 068                92
    MainMenu.o                        5 636               376
    MenuDLG.o                         2 008       72       24
    OS_Error.o                           36
    PasswordChange.o                  1 088
    RTOSInit_STM32F4x_CMSIS.o           508        4
    SEGGER_HardFaultHandler.o           128                68
    SEGGER_RTT.o                        508             1 208
    SEGGER_SYSVIEW.o                  2 132             1 305
    SEGGER_SYSVIEW_Config_embOS.o       160
    SEGGER_SYSVIEW_embOS.o              176      100
    SettingInput.o                      908
    SettingTime.o                     1 156        9       24
    Setup.o                           3 752                60
    backlight.o                         252
    cyrillic16_16x16.o                        18 304
    cyrillic20_20x20.o                        18 128
    cyrillic_24x24.o                          22 264
    lcd.o                               472
    main.o                            5 484            24 046
    modbus.o                          2 664
    startup_stm32f407xx.o               676
    stm32f4xx_hal.o                      38                 4
    stm32f4xx_hal_cortex.o              156
    stm32f4xx_hal_crc.o                  36
    stm32f4xx_hal_dma.o               1 028
    stm32f4xx_hal_flash.o               532                32
    stm32f4xx_hal_flash_ex.o            576
    stm32f4xx_hal_gpio.o                532
    stm32f4xx_hal_i2c.o               1 980
    stm32f4xx_hal_msp.o                 952                 4
    stm32f4xx_hal_rcc.o               1 188
    stm32f4xx_hal_spi.o                 390
    stm32f4xx_hal_sram.o                 84
    stm32f4xx_hal_tim.o               1 404
    stm32f4xx_hal_tim_ex.o               78
    stm32f4xx_hal_timebase_TIM.o        124
    stm32f4xx_hal_uart.o              2 024
    stm32f4xx_it.o                      200                60
    stm32f4xx_ll_fsmc.o                 212
    system_stm32f4xx.o                  208        9        4
    ---------------------------------------------------------
    Total:                           65 536  395 976   92 207

command line: [2]
    ---------------------------------------------------------
    Total:

STemWin540_CM4_OS_IAR.a: [3]
    BUTTON.o                            652       21       60
    BUTTON_Bitmap.o                      42
    BUTTON_Skin.o                       168        4       12
    BUTTON_SkinFlex.o                   580       45      128
    BUTTON__SetDrawObj.o                 64
    DIALOG.o                            166
    F13_1.o                                    2 436
    F13_ASCII.o                                2 328
    F16B_1.o                                   2 784
    F16B_ASCII.o                               2 696
    F16_ASCII.o                                2 720
    F20B_ASCII.o                               4 168
    F20_ASCII.o                                4 048
    F24B_1.o                                   5 016
    F24B_ASCII.o                               4 864
    F24_ASCII.o                                4 792
    F32B_ASCII.o                               7 848
    F32_ASCII.o                                7 240
    F6x8.o                                     1 816
    GUICC_0.o                           184       24
    GUICC_565.o                         204       24
    GUICC_8888.o                         40       24
    GUICC_8888_Index2Color.o              2
    GUICC_888_Index2Color.o               2
    GUICC_M555_Index2Color.o             36
    GUICC_M565.o                         44
    GUIDEV.o                            808
    GUIDEV_16.o                       2 452                 4
    GUIDEV_32.o                       2 424
    GUIDEV_Banding.o                    352                 4
    GUIDEV_Clear.o                       68
    GUIDEV_GetDataPtr.o                  42
    GUIDEV_GetYSize.o                    52
    GUIDEV_ReduceYSize.o                 56
    GUIDEV_SetOrg.o                     112
    GUIDEV_StaticDevices.o              368                 1
    GUIDEV_Usage.o                       88
    GUIDEV_UsageBM.o                    440
    GUIDEV_Write.o                      132
    GUIDEV_WriteToActiveAlpha.o         424
    GUIDEV_WriteToActiveOpaque.o      1 544
    GUIDRV_FlexColor.o                1 608       52        4
    GUIDRV_FlexColor_16bpp_C0B16.o    1 568
    GUIDRV_FlexColor_Func66709.o        792        3        8
    GUI_2DLib.o                         166
    GUI_Alloc.o                       1 504               204
    GUI_BMP.o                         3 324        6      104
    GUI_Char.o                           88
    GUI_CharLine.o                      472        1        4
    GUI_CharM.o                         372
    GUI_CharP.o                         300
    GUI_CharPExt.o                      288
    GUI_Circ.o                          244
    GUI_Common.o                        772
    GUI_Core.o                          508       56      219
    GUI_DRAW.o                           46
    GUI_DRAW_BITMAP.o                   172
    GUI_Device.o                        358
    GUI_DispString.o                    408
    GUI_DrawBitmap.o                    248
    GUI_DrawGradient.o                  504
    GUI_DrawLib.o                       412
    GUI_DrawLine.o                    1 244
    GUI_EncExt.o                        284       14        8
    GUI_FillPolygon.o                   600                28
    GUI_FillRoundedRect.o               228
    GUI_OnKey.o                         144        6      104
    GUI_SelectLayer.o                    56
    GUI_SetAlpha.o                       36
    GUI_Task.o                          332       10       28
    GUI_Time.o                          104        2        4
    GUI_Timer.o                         318                20
    GUI_UC.o                             76
    GUI_UC_EncodeNone.o                  36
    GUI_UC_EncodeUTF8.o                 236
    GUI_WaitEvent.o                      16                 4
    GUI__Alpha.o                        756        3       36
    GUI__CompactPixelIndices.o          628
    GUI__DivTbl.o                                608
    GUI__DrawTwinArc.o                  504
    GUI__ExpandPixelIndices.o           288
    GUI__ManageCache.o                  208                16
    GUI__Private.o                      560        3        8
    LCD.o                             1 480       14        4
    LCD_AA.o                             16        6       20
    LCD_Color.o                         272        7       20
    LCD_GetColorIndex.o                  24
    LCD_GetEx.o                         400                 8
    LCD_GetNumDisplays.o                 26
    LCD_Mirror.o                                 256
    LCD_RLE16.o                         536       16       56
    LCD_ReadRect.o                      436
    LCD_SelectLCD.o                      68
    LCD_Set.o                           144
    LCD_SetClipRectEx.o                  48
    LCD_UpdateColorIndices.o             36
    WIDGET.o                            520        1        4
    WIDGET_Effect_Simple.o               96       28        4
    WINDOW.o                            484        1        4
    WM.o                              4 560               128
    WM_BringToTop.o                     128
    WM_GetWindowSize.o                  104
    WM_Hide.o                            56
    WM_Lib.o                          1 536
    WM_Move.o                           336
    WM_SetFocusOnNextChild.o            132
    WM_SetFocusOnPrevChild.o             94
    WM_SetTrans.o                        78
    WM_Timer.o                          132
    WM_Touch.o                                     7       84
    WM__Private.o                       624                 4
    ---------------------------------------------------------
    Total:                           44 720   53 998    1 344

dl7M_tlf.a: [4]
    abort.o                               6
    exit.o                                4
    iar_Stoulx.o                        376
    isspace.o                            20
    low_level_init.o                      4
    printf.o                             40
    putchar.o                            12
    sprintf.o                            64
    tolower.o                            20
    xencoding_8859_1.o                   30
    xfail_s.o                            68                 4
    xfiles.o                                      25      152
    xlocale_c.o                         164       50      128
    xmbcurmax.o                          10
    xprintffull.o                     3 918
    xprout.o                             22
    xsprout.o                            10
    ---------------------------------------------------------
    Total:                            4 768       75      284

m7M_tls.a: [5]
    DblAdd.o                            376
    DblCmpGe.o                           46
    DblCmpLe.o                           46
    DblDiv.o                            582
    DblMul.o                            418
    DblSub.o                            226
    DblToFlt.o                          104
    DblToS32.o                           58
    DblToU32.o                           40
    FltToDbl.o                           72
    S32ToDbl.o                           34
    U32ToDbl.o                           26
    floor.o                             104
    fpinit_M.o                           34
    frexp.o                             112
    ldexp.o                             314
    round.o                              98
    ---------------------------------------------------------
    Total:                            2 690

os7m_tlv_dp.a: [6]
    OS_ARMv7M_ISRCheckPrio.o             48
    OS_Com.o                          2 220               236
    OS_GetCPUState.o                     12
    OS_Global.o                                   29      114
    OS_Info.o                           268       28
    OS_InitMode.o                        76
    OS_Kern.o                         2 336                12
    OS_ResourceSemaphore.o              720
    OS_StackInfo.o                       24
    OS_SysTick.o                        112
    OS_Task.o                           772                 8
    OS_Timing.o                         388                32
    OS_Trace.o                           20
    rtos.o                              408
    ---------------------------------------------------------
    Total:                            7 404       57      402

rt7M_tl.a: [7]
    ABImemclr.o                           6
    ABImemclr4.o                          6
    ABImemcpy.o                         166
    ABImemmove.o                        150
    ABImemset.o                         102
    ABImemset48.o                        50
    I64DivMod.o                         558
    I64DivZer.o                           2
    cexit.o                              10
    cmain.o                              30
    cstartup_M.o                         12
    data_init.o                          40
    lz77_init.o                         498
    memchr.o                             88
    memcpy.o                             12
    memset.o                             20
    strchr.o                             22
    strcpy.o                             76
    strlen.o                             54
    zero_init3.o                         64
    ---------------------------------------------------------
    Total:                            1 966

shb_l.a: [8]
    exit.o                               20
    ---------------------------------------------------------
    Total:                               20

    Gaps                                 70        8        4
    Linker created                                45    2 048
-------------------------------------------------------------
    Grand Total:                    127 174  450 159   96 289


*******************************************************************************
*** ENTRY LIST
***

Entry                      Address    Size  Type      Object
-----                      -------    ----  ----      ------
.iar.init_table$$Base   0x0809805c           --   Gb  - Linker created -
.iar.init_table$$Limit  0x08098088           --   Gb  - Linker created -
.intvec$$Base           0x0800c000           --   Gb  - Linker created -
.intvec$$Limit          0x0800c188           --   Gb  - Linker created -
?main                   0x08098089          Code  Gb  cmain.o [7]
AHBPrescTable           0x08088994    0x10  Data  Gb  system_stm32f4xx.o [1]
APBPrescTable           0x080981ec     0x8  Data  Gb  system_stm32f4xx.o [1]
API                     0x080896d8    0x18  Data  Lc  GUIDEV_UsageBM.o [3]
Abs                     0x0807a1c3     0x8  Code  Lc  GUI_DrawLine.o [3]
AcbMccbControl          0x080857f7   0x1fc  Code  Gb  AcbMccbControl.o [1]
AcbMccbControlDisp      0x080854d5   0x280  Code  Lc  AcbMccbControl.o [1]
AcbMccbControlSend      0x08085115    0x3c  Code  Lc  AcbMccbControl.o [1]
AcbMccbEvent            0x08084e03   0x114  Code  Gb  AcbMccbEvent.o [1]
AcbMccbHwSet            0x08082291    0xd2  Code  Gb  AcbMccbHwSet.o [1]
AcbMccbHwSetDisp        0x080821d9    0xa8  Code  Lc  AcbMccbHwSet.o [1]
AcbMccbHwSetSend        0x08081fe5    0x3a  Code  Lc  AcbMccbHwSet.o [1]
AcbMccbInfomation       0x08083dd1    0xfa  Code  Gb  AcbMccbInfo.o [1]
AcbMccbIoValueDisp      0x08085151   0x354  Code  Lc  AcbMccbControl.o [1]
AcbMccbIoValueDisp::IoStatus_Offset
                        0x08085b74     0xc  Data  Lc  AcbMccbControl.o [1]
AcbMccbIoValueDisp::IoStatus_bit
                        0x08085b80     0xc  Data  Lc  AcbMccbControl.o [1]
AcbMccbIoValueDisp::colorOnFillColor
                        0x20001cc8     0xc  Data  Lc  AcbMccbControl.o [1]
AcbMccbMeasurement      0x080835b9   0x174  Code  Gb  AcbMccbMeasurement.o [1]
AcbMccbMeasurementDisp  0x0808337d   0x1d6  Code  Lc  AcbMccbMeasurement.o [1]
AcbMccbMeasurementDispPQ
                        0x080831bb   0x126  Code  Lc  AcbMccbMeasurement.o [1]
AcbMccbMeasurementDispVIP
                        0x08082d85    0xf4  Code  Lc  AcbMccbMeasurement.o [1]
AcbMccbMeasurementRecv  0x080826f9   0x2e6  Code  Lc  AcbMccbMeasurement.o [1]
AcbMccbMeasurementSend  0x0808251b    0x84  Code  Lc  AcbMccbMeasurement.o [1]
AcbMccbOverView         0x0806fde7   0x152  Code  Lc  MainMenu.o [1]
AcbMccbOverViewValue    0x0806ffa5   0x3fc  Code  Lc  MainMenu.o [1]
AcbMccbOverViewValue::Ampare
                        0x200164a8    0x80  Data  Lc  MainMenu.o [1]
AcbMccbRelaySet         0x080845b5    0xd6  Code  Gb  AcbMccbRelaySet.o [1]
AcbMccbRelaySetInitDisp
                        0x0808449b   0x11a  Code  Lc  AcbMccbRelaySet.o [1]
AcbMccbValueDisp        0x0808359f    0x1a  Code  Lc  AcbMccbMeasurement.o [1]
AcbMccbValueDispEnergy  0x08082e79    0x86  Code  Lc  AcbMccbMeasurement.o [1]
AcbMccbValueDispPQ      0x08082f51   0x1da  Code  Lc  AcbMccbMeasurement.o [1]
AcbMccbValueDispPQ::displayFlag
                        0x20001844    0x48  Data  Lc  AcbMccbMeasurement.o [1]
AcbMccbValueDispVIP     0x08082a67   0x294  Code  Lc  AcbMccbMeasurement.o [1]
AcbMccbcbStatus         0x20001cac     0x1  Data  Lc  AcbMccbControl.o [1]
Angle                   0x200169d0    0x20  Data  Lc  AcbMccbMeasurement.o [1]
BUTTON_Callback         0x0808056f    0xc2  Code  Gb  BUTTON.o [3]
BUTTON_CreateIndirect   0x0808069d    0x44  Code  Gb  BUTTON.o [3]
BUTTON_CreateUser       0x08080631    0x6c  Code  Gb  BUTTON.o [3]
BUTTON_DrawSkinFlex     0x080964fd   0x21a  Code  Gb  BUTTON_SkinFlex.o [3]
BUTTON_SetBitmap        0x080802e3     0xc  Code  Gb  BUTTON_Bitmap.o [3]
BUTTON_SetBitmapEx      0x080802c5    0x1e  Code  Gb  BUTTON_Bitmap.o [3]
BUTTON_SetPressed       0x08080751    0x10  Code  Gb  BUTTON.o [3]
BUTTON_SetText          0x08080705    0x4c  Code  Gb  BUTTON.o [3]
BUTTON__DefaultProps    0x20001b54    0x30  Data  Gb  BUTTON.o [3]
BUTTON__SetDrawObj      0x08088edd    0x40  Code  Gb  BUTTON__SetDrawObj.o [3]
BUTTON__Skin            0x20002244     0xc  Data  Gb  BUTTON_Skin.o [3]
BUTTON__pSkinDefault    0x20001b84     0x4  Data  Gb  BUTTON.o [3]
BacklightBrghtness      0x08078457    0x40  Code  Gb  backlight.o [1]
BaseDisp                0x0806fc2b    0x3c  Code  Gb  MainMenu.o [1]
BaseDisp2               0x08084759    0x72  Code  Lc  AcbMccbEvent.o [1]
BaseDisp3               0x08082431    0x38  Code  Lc  AcbMccbMeasurement.o [1]
BaseDispU32             0x08080afd    0x16  Code  Lc  MLinkInfo.o [1]
BusFault_Handler        0x08097a85     0x8  Code  Gb  stm32f4xx_it.o [1]
ButtonDisp              0x0807ff9b    0xa8  Code  Gb  SettingTime.o [1]
ButtonItem              0x20016e1c    0x18  Data  Lc  MenuDLG.o [1]
CPU_Command_Write       0x080784dd     0x8  Code  Gb  lcd.o [1]
CPU_Data_Read           0x080784eb     0x6  Code  Gb  lcd.o [1]
CPU_Data_Write          0x080784e5     0x6  Code  Gb  lcd.o [1]
CRC16                   0x08071add    0x30  Code  Gb  modbus.o [1]
CSTACK$$Base            0x10000000           --   Gb  - Linker created -
CSTACK$$Limit           0x10000800           --   Gb  - Linker created -
CacheMore               0x08086789    0x24  Code  Lc  xlocale_c.o [4]
ChineseInitButton       0x080763d3    0xf8  Code  Lc  MenuDLG.o [1]
CommStatusDisp          0x08070401    0x52  Code  Lc  MainMenu.o [1]
CommTimerClear          0x08070453    0x16  Code  Gb  MainMenu.o [1]
CommTimerInit           0x08070469     0xa  Code  Gb  MainMenu.o [1]
ConnectSetting          0x20001d1c    0x20  Data  Gb  GuiData.o [1]
ControlDoStatus         0x20016f8c     0x4  Data  Lc  MLinkControl.o [1]
ControlErrorMessage     0x0807ed65    0xba  Code  Gb  MLinkControl.o [1]
ControlSet              0x0807f019   0x186  Code  Gb  MLinkControl.o [1]
CountDisp               0x08081ba9    0x5a  Code  Gb  MLinkEvent.o [1]
CreateMenu              0x0807677f   0x1f0  Code  Gb  MenuDLG.o [1]
CreateMenu::_aDialogCreate
                        0x08076ae4    0xc4  Data  Lc  MenuDLG.o [1]
DMA1_Stream5_IRQHandler
                        0x08097abd     0x6  Code  Gb  stm32f4xx_it.o [1]
DMA1_Stream6_IRQHandler
                        0x08097ac3     0x6  Code  Gb  stm32f4xx_it.o [1]
DMA2_Stream2_IRQHandler
                        0x08097ae9     0x6  Code  Gb  stm32f4xx_it.o [1]
DMA2_Stream7_IRQHandler
                        0x08097aef     0x6  Code  Gb  stm32f4xx_it.o [1]
DMA_CalcBaseAndBitshift
                        0x08088475    0x2a  Code  Lc  stm32f4xx_hal_dma.o [1]
DMA_CalcBaseAndBitshift::flagBitshiftOffset
                        0x080884a0     0x8  Data  Lc  stm32f4xx_hal_dma.o [1]
DMA_SetConfig           0x08088455    0x20  Code  Lc  stm32f4xx_hal_dma.o [1]
DOWN_POINT              0x200021cc     0xc  Data  Gb  GuiData.o [1]
DateTimeDisp            0x0807fe87   0x114  Code  Lc  SettingTime.o [1]
DebugMon_Handler        0x08097a97     0x2  Code  Gb  stm32f4xx_it.o [1]
DefaultSettingValue     0x20002028    0x14  Data  Gb  GuiData.o [1]
DemandMakeString        0x080825d5   0x106  Code  Lc  AcbMccbMeasurement.o [1]
DeviceDescroptionSend   0x08075529    0x42  Code  Lc  Setup.o [1]
DeviceInfoSend          0x08080b83    0x30  Code  Lc  MLinkInfo.o [1]
DeviceInfoValueDisp     0x08080c05   0x104  Code  Lc  MLinkInfo.o [1]
DeviceInitDisp          0x08080d09    0xa0  Code  Lc  MLinkInfo.o [1]
DispFormat              0x0806fc79    0xf2  Code  Gb  MainMenu.o [1]
DispFormat3             0x080824a5    0x5a  Code  Lc  AcbMccbMeasurement.o [1]
DispFormatU32           0x08080b13    0x64  Code  Lc  MLinkInfo.o [1]
DispMLinkStatus         0x0807299d    0x58  Code  Gb  MLinkOverview.o [1]
DispStatus              0x0806fda1    0x46  Code  Gb  MainMenu.o [1]
DisplayConnectSetting   0x0807571d   0x16e  Code  Lc  Setup.o [1]
DisplayConnectSettingMenu
                        0x0807556b   0x19a  Code  Lc  Setup.o [1]
DisplayDeviceDispValue  0x08075fe9    0x7e  Code  Lc  Setup.o [1]
DisplaySetting          0x08075e27   0x132  Code  Lc  Setup.o [1]
DisplaySettingMenu      0x08075895   0x282  Code  Lc  Setup.o [1]
EXTI4_IRQHandler        0x08097ab7     0x6  Code  Gb  stm32f4xx_it.o [1]
EXTI9_5_IRQHandler      0x08097ac9    0x20  Code  Gb  stm32f4xx_it.o [1]
EmWinTask               0x080741bb    0x18  Code  Lc  main.o [1]
Energy                  0x200169a8    0x28  Data  Lc  AcbMccbMeasurement.o [1]
EnglishInitButton       0x080763d1     0x2  Code  Lc  MenuDLG.o [1]
EraseInitStruct         0x20016d0c    0x14  Data  Lc  main.o [1]
EventDataRecv           0x08084855   0x2e2  Code  Gb  AcbMccbEvent.o [1]
EventMenu               0x08084c31   0x1d2  Code  Lc  AcbMccbEvent.o [1]
EventMenuDisp           0x08084b4f    0xc8  Code  Lc  AcbMccbEvent.o [1]
EventSend               0x080847d5    0x78  Code  Gb  AcbMccbEvent.o [1]
FLASH_Erase_Sector      0x0807c37b    0x4c  Code  Gb  stm32f4xx_hal_flash_ex.o [1]
FLASH_FlushCaches       0x0807c3c7    0x50  Code  Gb  stm32f4xx_hal_flash_ex.o [1]
FLASH_MassErase         0x0807c35b    0x20  Code  Lc  stm32f4xx_hal_flash_ex.o [1]
FLASH_Program_Byte      0x0807d111    0x14  Code  Lc  stm32f4xx_hal_flash.o [1]
FLASH_Program_DoubleWord
                        0x0807d0af    0x24  Code  Lc  stm32f4xx_hal_flash.o [1]
FLASH_Program_HalfWord  0x0807d0e5    0x12  Code  Lc  stm32f4xx_hal_flash.o [1]
FLASH_Program_Word      0x0807d0d3    0x12  Code  Lc  stm32f4xx_hal_flash.o [1]
FLASH_SetErrorCode      0x0807d125    0x60  Code  Lc  stm32f4xx_hal_flash.o [1]
FLASH_WaitForLastOperation
                        0x0807d063    0x4c  Code  Gb  stm32f4xx_hal_flash.o [1]
FSMC_NORSRAM_Extended_Timing_Init
                        0x080885d9    0x3c  Code  Gb  stm32f4xx_ll_fsmc.o [1]
FSMC_NORSRAM_Init       0x08088549    0x50  Code  Gb  stm32f4xx_ll_fsmc.o [1]
FSMC_NORSRAM_Timing_Init
                        0x08088599    0x40  Code  Gb  stm32f4xx_ll_fsmc.o [1]
FactoryResetInitDisp    0x08075b49    0x6a  Code  Lc  Setup.o [1]
FactoryRest             0x08075bcd   0x11c  Code  Lc  Setup.o [1]
FaultCountRead          0x08074a1d    0x58  Code  Gb  main.o [1]
FaultCountWrite         0x08074a7d    0xc4  Code  Gb  main.o [1]
FlashRead               0x080748c9    0x64  Code  Gb  main.o [1]
FlashWrite              0x08074935    0xe4  Code  Gb  main.o [1]
GL_DrawBitmap           0x08088d11    0x8e  Code  Gb  GUI_DrawBitmap.o [3]
GL_DrawLine1Ex          0x0807a387   0x1b2  Code  Gb  GUI_DrawLine.o [3]
GL_DrawLineEx           0x0807a549    0xda  Code  Gb  GUI_DrawLine.o [3]
GL_DrawLineToEx         0x0807a623    0x26  Code  Gb  GUI_DrawLine.o [3]
GL_DrawPoint            0x08071801    0x1e  Code  Gb  GUI_DrawLib.o [3]
GL_FillCircle           0x08073ad1    0xa4  Code  Gb  GUI_Circ.o [3]
GL_FillPolygon          0x0807eb61   0x188  Code  Gb  GUI_FillPolygon.o [3]
GL_MoveTo               0x0807a111     0xa  Code  Gb  GUI_2DLib.o [3]
GL_SetDefault           0x0807138b    0x3a  Code  Gb  GUI_Common.o [3]
GUIDRV_FlexColor_API    0x08097f6c    0x34  Data  Gb  GUIDRV_FlexColor.o [3]
GUIDRV_FlexColor_Config
                        0x0808746d    0x3e  Code  Gb  GUIDRV_FlexColor.o [3]
GUIDRV_FlexColor_SetFunc
                        0x080874ab    0x34  Code  Gb  GUIDRV_FlexColor.o [3]
GUIDRV_FlexColor_SetFunc66709
                        0x08095c5b    0x44  Code  Gb  GUIDRV_FlexColor_Func66709.o [3]
GUIDRV_FlexColor_SetMode16bppC0B16
                        0x0809595d    0x3e  Code  Gb  GUIDRV_FlexColor_16bpp_C0B16.o [3]
GUIDRV_FlexColor__GetPixelIndexNoCache
                        0x08087307    0xb0  Code  Gb  GUIDRV_FlexColor.o [3]
GUIDRV_FlexColor__InitOnce
                        0x080873c1    0x38  Code  Gb  GUIDRV_FlexColor.o [3]
GUIDRV_FlexColor__SetLog2Phys
                        0x08087435    0x38  Code  Gb  GUIDRV_FlexColor.o [3]
GUIDRV_FlexColor__SetPixelIndexNoCache
                        0x0808727b    0x84  Code  Gb  GUIDRV_FlexColor.o [3]
GUIMONO_DispChar        0x0809725d   0x104  Code  Gb  GUI_CharM.o [3]
GUIMONO_GetCharDistX    0x0809737d    0x12  Code  Gb  GUI_CharM.o [3]
GUIMONO_GetFontInfo     0x08097395     0x6  Code  Gb  GUI_CharM.o [3]
GUIMONO_IsInFont        0x0809739b    0x36  Code  Gb  GUI_CharM.o [3]
GUIPROP_DispChar        0x0809760d    0xc8  Code  Gb  GUI_CharP.o [3]
GUIPROP_EXT_DispChar    0x08097739    0x90  Code  Gb  GUI_CharPExt.o [3]
GUIPROP_EXT_GetCharDistX
                        0x080977c9    0x30  Code  Gb  GUI_CharPExt.o [3]
GUIPROP_EXT_GetCharInfo
                        0x0809780d    0x28  Code  Gb  GUI_CharPExt.o [3]
GUIPROP_EXT_GetFontInfo
                        0x080977f9     0x6  Code  Gb  GUI_CharPExt.o [3]
GUIPROP_EXT_IsInFont    0x080977ff     0xe  Code  Gb  GUI_CharPExt.o [3]
GUIPROP_EXT__ClearLine  0x08097845    0xd8  Code  Gb  GUI_EncExt.o [3]
GUIPROP_EXT__DispLine   0x0809791d    0x38  Code  Gb  GUI_EncExt.o [3]
GUIPROP_EXT__FindChar   0x08097725    0x14  Code  Gb  GUI_CharPExt.o [3]
GUIPROP_GetCharDistX    0x080976d5    0x36  Code  Gb  GUI_CharP.o [3]
GUIPROP_GetFontInfo     0x08097711     0x6  Code  Gb  GUI_CharP.o [3]
GUIPROP_IsInFont        0x08097717     0xe  Code  Gb  GUI_CharP.o [3]
GUIPROP__FindChar       0x080975f9    0x14  Code  Gb  GUI_CharP.o [3]
GUITASK_CopyContext     0x08078799    0x58  Code  Gb  GUI_Task.o [3]
GUITASK_Init            0x0807875f    0x3a  Code  Gb  GUI_Task.o [3]
GUITASK_Init::RegisterExit
                        0x20001e2c     0x8  Data  Lc  GUI_Task.o [3]
GUITASK__EntranceCnt    0x20001e28     0x4  Data  Gb  GUI_Task.o [3]
GUI_AA__ClipX0          0x20016fb4     0x4  Data  Gb  GUI_Core.o [3]
GUI_ALLOC_AllocNoInit   0x0807b793    0x18  Code  Gb  GUI_Alloc.o [3]
GUI_ALLOC_AllocZero     0x0807b8eb    0x30  Code  Gb  GUI_Alloc.o [3]
GUI_ALLOC_AssignMemory  0x0807b86f     0xc  Code  Gb  GUI_Alloc.o [3]
GUI_ALLOC_Free          0x0807b893    0x24  Code  Gb  GUI_Alloc.o [3]
GUI_ALLOC_FreeFixedBlock
                        0x0807b6d7    0x12  Code  Gb  GUI_Alloc.o [3]
GUI_ALLOC_FreePtr       0x0807b8b7    0x12  Code  Gb  GUI_Alloc.o [3]
GUI_ALLOC_FreePtrArray  0x0807b8d1    0x1a  Code  Gb  GUI_Alloc.o [3]
GUI_ALLOC_GetFixedBlock
                        0x0807b6e9    0xaa  Code  Gb  GUI_Alloc.o [3]
GUI_ALLOC_GetMaxSize    0x0807b7f9    0x32  Code  Gb  GUI_Alloc.o [3]
GUI_ALLOC_GetSize       0x0807b87b    0x18  Code  Gb  GUI_Alloc.o [3]
GUI_ALLOC_Lock          0x0807b85b     0xa  Code  Gb  GUI_Alloc.o [3]
GUI_ALLOC_LockH         0x0807b7b9    0x16  Code  Gb  GUI_Alloc.o [3]
GUI_ALLOC_RequestSize   0x0807b82b    0x28  Code  Gb  GUI_Alloc.o [3]
GUI_ALLOC_Unlock        0x0807b865     0xa  Code  Gb  GUI_Alloc.o [3]
GUI_ALLOC_UnlockH       0x0807b7cf    0x2a  Code  Gb  GUI_Alloc.o [3]
GUI_ALLOC__Context      0x200162c8    0xc0  Data  Gb  GUI_Alloc.o [3]
GUI_ALLOC_h2p           0x0807b7ab     0xe  Code  Gb  GUI_Alloc.o [3]
GUI_BMP_Draw            0x08073a39    0x12  Code  Gb  GUI_BMP.o [3]
GUI_BMP_DrawEx          0x08073a21    0x18  Code  Gb  GUI_BMP.o [3]
GUI_BMP__GetData        0x08073935     0xa  Code  Gb  GUI_BMP.o [3]
GUI_BMP__Init           0x0807393f    0xd0  Code  Gb  GUI_BMP.o [3]
GUI_BMP__ReadData       0x0807390b    0x2a  Code  Gb  GUI_BMP.o [3]
GUI_BMP__ReadPalette    0x080738bf    0x3a  Code  Gb  GUI_BMP.o [3]
GUI_BitmapMethodsRLE16  0x0809819c    0x10  Data  Gb  LCD_RLE16.o [3]
GUI_CalcColorDist       0x0807116d    0x3e  Code  Gb  GUI_Common.o [3]
GUI_CharInfo_Font16ASCII
                        0x08091924   0x300  Data  Lc  F16_ASCII.o [3]
GUI_CharLine_pfLog2Vis  0x200022d0     0x4  Data  Gb  GUI_CharLine.o [3]
GUI_Clear               0x08071653    0x1a  Code  Gb  GUI_Core.o [3]
GUI_ClearRect           0x080715df    0x62  Code  Gb  GUI_Core.o [3]
GUI_ClearRectEx         0x08071641    0x12  Code  Gb  GUI_Core.o [3]
GUI_CreateDialogBox     0x08081f05    0xa6  Code  Gb  DIALOG.o [3]
GUI_DCACHE__pfClearCacheHook
                        0x20016e60     0x4  Data  Gb  GUI_Core.o [3]
GUI_DEVICE_Create       0x08086505    0x46  Code  Gb  GUI_Device.o [3]
GUI_DEVICE_CreateAndLink
                        0x080865fd    0x24  Code  Gb  GUI_Device.o [3]
GUI_DEVICE_Delete       0x08086501     0x4  Code  Gb  GUI_Device.o [3]
GUI_DEVICE_Link         0x0808657d    0x80  Code  Gb  GUI_Device.o [3]
GUI_DEVICE_LinkDevices  0x08086635    0x12  Code  Gb  GUI_Device.o [3]
GUI_DEVICE_Unlink       0x0808654b    0x32  Code  Gb  GUI_Device.o [3]
GUI_DEVICE_UnlinkTaskDevices
                        0x08086631     0x4  Code  Gb  GUI_Device.o [3]
GUI_DEVICE__GetpDriver  0x080864e1    0x20  Code  Gb  GUI_Device.o [3]
GUI_DRAW_BITMAP_Create  0x08088e8b    0x44  Code  Gb  GUI_DRAW_BITMAP.o [3]
GUI_DRAW__Draw          0x08096b31    0x2e  Code  Gb  GUI_DRAW.o [3]
GUI_DecChar             0x20001dfc     0x1  Data  Gb  GUI_Core.o [3]
GUI_Delay               0x08078379    0x60  Code  Gb  GUI_Time.o [3]
GUI_DispStringInRect    0x08071ad7     0x6  Code  Gb  GUI_DispString.o [3]
GUI_DispStringInRectMax
                        0x08071a8d    0x4a  Code  Gb  GUI_DispString.o [3]
GUI_DrawBitmap          0x08088d9f    0x60  Code  Gb  GUI_DrawBitmap.o [3]
GUI_DrawGradientV       0x08096ab5    0x36  Code  Gb  GUI_DrawGradient.o [3]
GUI_DrawHLine           0x080717a9    0x50  Code  Gb  GUI_DrawLib.o [3]
GUI_DrawPolyLine        0x0807182b    0x50  Code  Gb  GUI_DrawLib.o [3]
GUI_DrawRect            0x0807a11b    0x84  Code  Gb  GUI_2DLib.o [3]
GUI_DrawRectEx          0x0807a1a5    0x12  Code  Gb  GUI_2DLib.o [3]
GUI_DrawVLine           0x08071889    0x38  Code  Gb  GUI_DrawLib.o [3]
GUI_ENC_APIList_EXT     0x080981bc     0xc  Data  Gb  GUI_EncExt.o [3]
GUI_Exec                0x080712b5    0x14  Code  Gb  GUI_Common.o [3]
GUI_Exec1               0x08071279    0x3c  Code  Gb  GUI_Common.o [3]
GUI_F6x8_Mono           0x08095364    0x14  Data  Lc  F6x8.o [3]
GUI_F6x8_TI8859_1       0x0809535c     0x8  Data  Lc  F6x8.o [3]
GUI_F6x8_TL8859_1       0x0809519c   0x1c0  Data  Lc  F6x8.o [3]
GUI_FillCircle          0x08073b7d    0x30  Code  Gb  GUI_Circ.o [3]
GUI_FillPolygon         0x0807ece9    0x6a  Code  Gb  GUI_FillPolygon.o [3]
GUI_FillRect            0x080718c7    0x42  Code  Gb  GUI_DrawLib.o [3]
GUI_FillRectEx          0x08071923    0x12  Code  Gb  GUI_DrawLib.o [3]
GUI_FillRoundedRect     0x08088cb3    0x5a  Code  Gb  GUI_FillRoundedRect.o [3]
GUI_Font13ASCII_CharInfo
                        0x08094980   0x2f8  Data  Lc  F13_ASCII.o [3]
GUI_Font13ASCII_Prop1   0x08094c78     0xc  Data  Gb  F13_ASCII.o [3]
GUI_Font13_1            0x080939d0    0x24  Data  Gb  F13_1.o [3]
GUI_Font13_1_CharInfo   0x080936c4   0x300  Data  Lc  F13_1.o [3]
GUI_Font13_1_Prop1      0x080939c4     0xc  Data  Lc  F13_1.o [3]
GUI_Font16ASCIIProp1    0x08091c24     0xc  Data  Gb  F16_ASCII.o [3]
GUI_Font16B_1           0x08091190    0x24  Data  Gb  F16B_1.o [3]
GUI_Font16B_1_CharInfo  0x08090e84   0x300  Data  Lc  F16B_1.o [3]
GUI_Font16B_1_Prop1     0x08091184     0xc  Data  Lc  F16B_1.o [3]
GUI_Font16B_ASCII       0x080926b8    0x24  Data  Gb  F16B_ASCII.o [3]
GUI_Font16B_ASCII_CharInfo
                        0x080923b4   0x2f8  Data  Gb  F16B_ASCII.o [3]
GUI_Font16B_ASCII_Prop1
                        0x080926ac     0xc  Data  Gb  F16B_ASCII.o [3]
GUI_Font16_ASCII        0x08091c30    0x24  Data  Gb  F16_ASCII.o [3]
GUI_Font20B_ASCII       0x0808f6e0    0x24  Data  Gb  F20B_ASCII.o [3]
GUI_Font20B_ASCII_CharInfo
                        0x0808f3dc   0x2f8  Data  Gb  F20B_ASCII.o [3]
GUI_Font20B_ASCII_Prop1
                        0x0808f6d4     0xc  Data  Gb  F20B_ASCII.o [3]
GUI_Font20_ASCII        0x080906b0    0x24  Data  Gb  F20_ASCII.o [3]
GUI_Font20_ASCII_CharInfo
                        0x080903ac   0x2f8  Data  Gb  F20_ASCII.o [3]
GUI_Font20_ASCII_Prop1  0x080906a4     0xc  Data  Gb  F20_ASCII.o [3]
GUI_Font24B_1           0x0808c0e0    0x24  Data  Gb  F24B_1.o [3]
GUI_Font24B_1_CharInfo  0x0808bdd4   0x300  Data  Lc  F24B_1.o [3]
GUI_Font24B_1_Prop1     0x0808c0d4     0xc  Data  Lc  F24B_1.o [3]
GUI_Font24B_ASCII       0x0808d3e0    0x24  Data  Gb  F24B_ASCII.o [3]
GUI_Font24B_ASCII_CharInfo
                        0x0808d0dc   0x2f8  Data  Gb  F24B_ASCII.o [3]
GUI_Font24B_ASCII_Prop1
                        0x0808d3d4     0xc  Data  Gb  F24B_ASCII.o [3]
GUI_Font24_ASCII        0x0808e698    0x24  Data  Gb  F24_ASCII.o [3]
GUI_Font24_ASCII_CharInfo
                        0x0808e394   0x2f8  Data  Gb  F24_ASCII.o [3]
GUI_Font24_ASCII_Prop1  0x0808e68c     0xc  Data  Gb  F24_ASCII.o [3]
GUI_Font32B_ASCII       0x0806defc    0x24  Data  Gb  F32B_ASCII.o [3]
GUI_Font32B_ASCII_CharInfo
                        0x0806dbf8   0x2f8  Data  Gb  F32B_ASCII.o [3]
GUI_Font32B_ASCII_Prop1
                        0x0806def0     0xc  Data  Gb  F32B_ASCII.o [3]
GUI_Font32_ASCII        0x0806fb44    0x24  Data  Gb  F32_ASCII.o [3]
GUI_Font32_ASCII_CharInfo
                        0x0806f840   0x2f8  Data  Gb  F32_ASCII.o [3]
GUI_Font32_ASCII_Prop1  0x0806fb38     0xc  Data  Gb  F32_ASCII.o [3]
GUI_Font6x8             0x08095378    0x24  Data  Gb  F6x8.o [3]
GUI_FontLSFont20b_      0x08042680    0x24  Data  Gb  LS-Font20b_.o [1]
GUI_FontLSFont20b__CharInfo
                        0x0803fad0  0x1914  Data  Gb  LS-Font20b_.o [1]
GUI_FontLSFont20b__Prop1
                        0x08042674     0xc  Data  Gb  LS-Font20b_.o [1]
GUI_FontLSFont20b__Prop10
                        0x08042608     0xc  Data  Gb  LS-Font20b_.o [1]
GUI_FontLSFont20b__Prop100
                        0x080421d0     0xc  Data  Gb  LS-Font20b_.o [1]
GUI_FontLSFont20b__Prop101
                        0x080421c4     0xc  Data  Gb  LS-Font20b_.o [1]
GUI_FontLSFont20b__Prop102
                        0x080421b8     0xc  Data  Gb  LS-Font20b_.o [1]
GUI_FontLSFont20b__Prop103
                        0x080421ac     0xc  Data  Gb  LS-Font20b_.o [1]
GUI_FontLSFont20b__Prop104
                        0x080421a0     0xc  Data  Gb  LS-Font20b_.o [1]
GUI_FontLSFont20b__Prop105
                        0x08042194     0xc  Data  Gb  LS-Font20b_.o [1]
GUI_FontLSFont20b__Prop106
                        0x08042188     0xc  Data  Gb  LS-Font20b_.o [1]
GUI_FontLSFont20b__Prop107
                        0x0804217c     0xc  Data  Gb  LS-Font20b_.o [1]
GUI_FontLSFont20b__Prop108
                        0x08042170     0xc  Data  Gb  LS-Font20b_.o [1]
GUI_FontLSFont20b__Prop109
                        0x08042164     0xc  Data  Gb  LS-Font20b_.o [1]
GUI_FontLSFont20b__Prop11
                        0x080425fc     0xc  Data  Gb  LS-Font20b_.o [1]
GUI_FontLSFont20b__Prop110
                        0x08042158     0xc  Data  Gb  LS-Font20b_.o [1]
GUI_FontLSFont20b__Prop111
                        0x0804214c     0xc  Data  Gb  LS-Font20b_.o [1]
GUI_FontLSFont20b__Prop112
                        0x08042140     0xc  Data  Gb  LS-Font20b_.o [1]
GUI_FontLSFont20b__Prop113
                        0x08042134     0xc  Data  Gb  LS-Font20b_.o [1]
GUI_FontLSFont20b__Prop114
                        0x08042128     0xc  Data  Gb  LS-Font20b_.o [1]
GUI_FontLSFont20b__Prop115
                        0x0804211c     0xc  Data  Gb  LS-Font20b_.o [1]
GUI_FontLSFont20b__Prop116
                        0x08042110     0xc  Data  Gb  LS-Font20b_.o [1]
GUI_FontLSFont20b__Prop117
                        0x08042104     0xc  Data  Gb  LS-Font20b_.o [1]
GUI_FontLSFont20b__Prop118
                        0x080420f8     0xc  Data  Gb  LS-Font20b_.o [1]
GUI_FontLSFont20b__Prop119
                        0x080420ec     0xc  Data  Gb  LS-Font20b_.o [1]
GUI_FontLSFont20b__Prop12
                        0x080425f0     0xc  Data  Gb  LS-Font20b_.o [1]
GUI_FontLSFont20b__Prop120
                        0x080420e0     0xc  Data  Gb  LS-Font20b_.o [1]
GUI_FontLSFont20b__Prop121
                        0x080420d4     0xc  Data  Gb  LS-Font20b_.o [1]
GUI_FontLSFont20b__Prop122
                        0x080420c8     0xc  Data  Gb  LS-Font20b_.o [1]
GUI_FontLSFont20b__Prop123
                        0x080420bc     0xc  Data  Gb  LS-Font20b_.o [1]
GUI_FontLSFont20b__Prop124
                        0x080420b0     0xc  Data  Gb  LS-Font20b_.o [1]
GUI_FontLSFont20b__Prop125
                        0x080420a4     0xc  Data  Gb  LS-Font20b_.o [1]
GUI_FontLSFont20b__Prop126
                        0x08042098     0xc  Data  Gb  LS-Font20b_.o [1]
GUI_FontLSFont20b__Prop127
                        0x0804208c     0xc  Data  Gb  LS-Font20b_.o [1]
GUI_FontLSFont20b__Prop128
                        0x08042080     0xc  Data  Gb  LS-Font20b_.o [1]
GUI_FontLSFont20b__Prop129
                        0x08042074     0xc  Data  Gb  LS-Font20b_.o [1]
GUI_FontLSFont20b__Prop13
                        0x080425e4     0xc  Data  Gb  LS-Font20b_.o [1]
GUI_FontLSFont20b__Prop130
                        0x08042068     0xc  Data  Gb  LS-Font20b_.o [1]
GUI_FontLSFont20b__Prop131
                        0x0804205c     0xc  Data  Gb  LS-Font20b_.o [1]
GUI_FontLSFont20b__Prop132
                        0x08042050     0xc  Data  Gb  LS-Font20b_.o [1]
GUI_FontLSFont20b__Prop133
                        0x08042044     0xc  Data  Gb  LS-Font20b_.o [1]
GUI_FontLSFont20b__Prop134
                        0x08042038     0xc  Data  Gb  LS-Font20b_.o [1]
GUI_FontLSFont20b__Prop135
                        0x0804202c     0xc  Data  Gb  LS-Font20b_.o [1]
GUI_FontLSFont20b__Prop136
                        0x08042020     0xc  Data  Gb  LS-Font20b_.o [1]
GUI_FontLSFont20b__Prop137
                        0x08042014     0xc  Data  Gb  LS-Font20b_.o [1]
GUI_FontLSFont20b__Prop138
                        0x08042008     0xc  Data  Gb  LS-Font20b_.o [1]
GUI_FontLSFont20b__Prop139
                        0x08041ffc     0xc  Data  Gb  LS-Font20b_.o [1]
GUI_FontLSFont20b__Prop14
                        0x080425d8     0xc  Data  Gb  LS-Font20b_.o [1]
GUI_FontLSFont20b__Prop140
                        0x08041ff0     0xc  Data  Gb  LS-Font20b_.o [1]
GUI_FontLSFont20b__Prop141
                        0x08041fe4     0xc  Data  Gb  LS-Font20b_.o [1]
GUI_FontLSFont20b__Prop142
                        0x08041fd8     0xc  Data  Gb  LS-Font20b_.o [1]
GUI_FontLSFont20b__Prop143
                        0x08041fcc     0xc  Data  Gb  LS-Font20b_.o [1]
GUI_FontLSFont20b__Prop144
                        0x08041fc0     0xc  Data  Gb  LS-Font20b_.o [1]
GUI_FontLSFont20b__Prop145
                        0x08041fb4     0xc  Data  Gb  LS-Font20b_.o [1]
GUI_FontLSFont20b__Prop146
                        0x08041fa8     0xc  Data  Gb  LS-Font20b_.o [1]
GUI_FontLSFont20b__Prop147
                        0x08041f9c     0xc  Data  Gb  LS-Font20b_.o [1]
GUI_FontLSFont20b__Prop148
                        0x08041f90     0xc  Data  Gb  LS-Font20b_.o [1]
GUI_FontLSFont20b__Prop149
                        0x08041f84     0xc  Data  Gb  LS-Font20b_.o [1]
GUI_FontLSFont20b__Prop15
                        0x080425cc     0xc  Data  Gb  LS-Font20b_.o [1]
GUI_FontLSFont20b__Prop150
                        0x08041f78     0xc  Data  Gb  LS-Font20b_.o [1]
GUI_FontLSFont20b__Prop151
                        0x08041f6c     0xc  Data  Gb  LS-Font20b_.o [1]
GUI_FontLSFont20b__Prop152
                        0x08041f60     0xc  Data  Gb  LS-Font20b_.o [1]
GUI_FontLSFont20b__Prop153
                        0x08041f54     0xc  Data  Gb  LS-Font20b_.o [1]
GUI_FontLSFont20b__Prop154
                        0x08041f48     0xc  Data  Gb  LS-Font20b_.o [1]
GUI_FontLSFont20b__Prop155
                        0x08041f3c     0xc  Data  Gb  LS-Font20b_.o [1]
GUI_FontLSFont20b__Prop156
                        0x08041f30     0xc  Data  Gb  LS-Font20b_.o [1]
GUI_FontLSFont20b__Prop157
                        0x08041f24     0xc  Data  Gb  LS-Font20b_.o [1]
GUI_FontLSFont20b__Prop158
                        0x08041f18     0xc  Data  Gb  LS-Font20b_.o [1]
GUI_FontLSFont20b__Prop159
                        0x08041f0c     0xc  Data  Gb  LS-Font20b_.o [1]
GUI_FontLSFont20b__Prop16
                        0x080425c0     0xc  Data  Gb  LS-Font20b_.o [1]
GUI_FontLSFont20b__Prop160
                        0x08041f00     0xc  Data  Gb  LS-Font20b_.o [1]
GUI_FontLSFont20b__Prop161
                        0x08041ef4     0xc  Data  Gb  LS-Font20b_.o [1]
GUI_FontLSFont20b__Prop162
                        0x08041ee8     0xc  Data  Gb  LS-Font20b_.o [1]
GUI_FontLSFont20b__Prop163
                        0x08041edc     0xc  Data  Gb  LS-Font20b_.o [1]
GUI_FontLSFont20b__Prop164
                        0x08041ed0     0xc  Data  Gb  LS-Font20b_.o [1]
GUI_FontLSFont20b__Prop165
                        0x08041ec4     0xc  Data  Gb  LS-Font20b_.o [1]
GUI_FontLSFont20b__Prop166
                        0x08041eb8     0xc  Data  Gb  LS-Font20b_.o [1]
GUI_FontLSFont20b__Prop167
                        0x08041eac     0xc  Data  Gb  LS-Font20b_.o [1]
GUI_FontLSFont20b__Prop168
                        0x08041ea0     0xc  Data  Gb  LS-Font20b_.o [1]
GUI_FontLSFont20b__Prop169
                        0x08041e94     0xc  Data  Gb  LS-Font20b_.o [1]
GUI_FontLSFont20b__Prop17
                        0x080425b4     0xc  Data  Gb  LS-Font20b_.o [1]
GUI_FontLSFont20b__Prop170
                        0x08041e88     0xc  Data  Gb  LS-Font20b_.o [1]
GUI_FontLSFont20b__Prop171
                        0x08041e7c     0xc  Data  Gb  LS-Font20b_.o [1]
GUI_FontLSFont20b__Prop172
                        0x08041e70     0xc  Data  Gb  LS-Font20b_.o [1]
GUI_FontLSFont20b__Prop173
                        0x08041e64     0xc  Data  Gb  LS-Font20b_.o [1]
GUI_FontLSFont20b__Prop174
                        0x08041e58     0xc  Data  Gb  LS-Font20b_.o [1]
GUI_FontLSFont20b__Prop175
                        0x08041e4c     0xc  Data  Gb  LS-Font20b_.o [1]
GUI_FontLSFont20b__Prop176
                        0x08041e40     0xc  Data  Gb  LS-Font20b_.o [1]
GUI_FontLSFont20b__Prop177
                        0x08041e34     0xc  Data  Gb  LS-Font20b_.o [1]
GUI_FontLSFont20b__Prop178
                        0x08041e28     0xc  Data  Gb  LS-Font20b_.o [1]
GUI_FontLSFont20b__Prop179
                        0x08041e1c     0xc  Data  Gb  LS-Font20b_.o [1]
GUI_FontLSFont20b__Prop18
                        0x080425a8     0xc  Data  Gb  LS-Font20b_.o [1]
GUI_FontLSFont20b__Prop180
                        0x08041e10     0xc  Data  Gb  LS-Font20b_.o [1]
GUI_FontLSFont20b__Prop181
                        0x08041e04     0xc  Data  Gb  LS-Font20b_.o [1]
GUI_FontLSFont20b__Prop182
                        0x08041df8     0xc  Data  Gb  LS-Font20b_.o [1]
GUI_FontLSFont20b__Prop183
                        0x08041dec     0xc  Data  Gb  LS-Font20b_.o [1]
GUI_FontLSFont20b__Prop184
                        0x08041de0     0xc  Data  Gb  LS-Font20b_.o [1]
GUI_FontLSFont20b__Prop185
                        0x08041dd4     0xc  Data  Gb  LS-Font20b_.o [1]
GUI_FontLSFont20b__Prop186
                        0x08041dc8     0xc  Data  Gb  LS-Font20b_.o [1]
GUI_FontLSFont20b__Prop187
                        0x08041dbc     0xc  Data  Gb  LS-Font20b_.o [1]
GUI_FontLSFont20b__Prop188
                        0x08041db0     0xc  Data  Gb  LS-Font20b_.o [1]
GUI_FontLSFont20b__Prop189
                        0x08041da4     0xc  Data  Gb  LS-Font20b_.o [1]
GUI_FontLSFont20b__Prop19
                        0x0804259c     0xc  Data  Gb  LS-Font20b_.o [1]
GUI_FontLSFont20b__Prop190
                        0x08041d98     0xc  Data  Gb  LS-Font20b_.o [1]
GUI_FontLSFont20b__Prop191
                        0x08041d8c     0xc  Data  Gb  LS-Font20b_.o [1]
GUI_FontLSFont20b__Prop192
                        0x08041d80     0xc  Data  Gb  LS-Font20b_.o [1]
GUI_FontLSFont20b__Prop193
                        0x08041d74     0xc  Data  Gb  LS-Font20b_.o [1]
GUI_FontLSFont20b__Prop194
                        0x08041d68     0xc  Data  Gb  LS-Font20b_.o [1]
GUI_FontLSFont20b__Prop195
                        0x08041d5c     0xc  Data  Gb  LS-Font20b_.o [1]
GUI_FontLSFont20b__Prop196
                        0x08041d50     0xc  Data  Gb  LS-Font20b_.o [1]
GUI_FontLSFont20b__Prop197
                        0x08041d44     0xc  Data  Gb  LS-Font20b_.o [1]
GUI_FontLSFont20b__Prop198
                        0x08041d38     0xc  Data  Gb  LS-Font20b_.o [1]
GUI_FontLSFont20b__Prop199
                        0x08041d2c     0xc  Data  Gb  LS-Font20b_.o [1]
GUI_FontLSFont20b__Prop2
                        0x08042668     0xc  Data  Gb  LS-Font20b_.o [1]
GUI_FontLSFont20b__Prop20
                        0x08042590     0xc  Data  Gb  LS-Font20b_.o [1]
GUI_FontLSFont20b__Prop200
                        0x08041d20     0xc  Data  Gb  LS-Font20b_.o [1]
GUI_FontLSFont20b__Prop201
                        0x08041d14     0xc  Data  Gb  LS-Font20b_.o [1]
GUI_FontLSFont20b__Prop202
                        0x08041d08     0xc  Data  Gb  LS-Font20b_.o [1]
GUI_FontLSFont20b__Prop203
                        0x08041cfc     0xc  Data  Gb  LS-Font20b_.o [1]
GUI_FontLSFont20b__Prop204
                        0x08041cf0     0xc  Data  Gb  LS-Font20b_.o [1]
GUI_FontLSFont20b__Prop205
                        0x08041ce4     0xc  Data  Gb  LS-Font20b_.o [1]
GUI_FontLSFont20b__Prop206
                        0x08041cd8     0xc  Data  Gb  LS-Font20b_.o [1]
GUI_FontLSFont20b__Prop207
                        0x08041ccc     0xc  Data  Gb  LS-Font20b_.o [1]
GUI_FontLSFont20b__Prop208
                        0x08041cc0     0xc  Data  Gb  LS-Font20b_.o [1]
GUI_FontLSFont20b__Prop209
                        0x08041cb4     0xc  Data  Gb  LS-Font20b_.o [1]
GUI_FontLSFont20b__Prop21
                        0x08042584     0xc  Data  Gb  LS-Font20b_.o [1]
GUI_FontLSFont20b__Prop210
                        0x08041ca8     0xc  Data  Gb  LS-Font20b_.o [1]
GUI_FontLSFont20b__Prop211
                        0x08041c9c     0xc  Data  Gb  LS-Font20b_.o [1]
GUI_FontLSFont20b__Prop212
                        0x08041c90     0xc  Data  Gb  LS-Font20b_.o [1]
GUI_FontLSFont20b__Prop213
                        0x08041c84     0xc  Data  Gb  LS-Font20b_.o [1]
GUI_FontLSFont20b__Prop214
                        0x08041c78     0xc  Data  Gb  LS-Font20b_.o [1]
GUI_FontLSFont20b__Prop215
                        0x08041c6c     0xc  Data  Gb  LS-Font20b_.o [1]
GUI_FontLSFont20b__Prop216
                        0x08041c60     0xc  Data  Gb  LS-Font20b_.o [1]
GUI_FontLSFont20b__Prop217
                        0x08041c54     0xc  Data  Gb  LS-Font20b_.o [1]
GUI_FontLSFont20b__Prop218
                        0x08041c48     0xc  Data  Gb  LS-Font20b_.o [1]
GUI_FontLSFont20b__Prop219
                        0x08041c3c     0xc  Data  Gb  LS-Font20b_.o [1]
GUI_FontLSFont20b__Prop22
                        0x08042578     0xc  Data  Gb  LS-Font20b_.o [1]
GUI_FontLSFont20b__Prop220
                        0x08041c30     0xc  Data  Gb  LS-Font20b_.o [1]
GUI_FontLSFont20b__Prop221
                        0x08041c24     0xc  Data  Gb  LS-Font20b_.o [1]
GUI_FontLSFont20b__Prop222
                        0x08041c18     0xc  Data  Gb  LS-Font20b_.o [1]
GUI_FontLSFont20b__Prop223
                        0x08041c0c     0xc  Data  Gb  LS-Font20b_.o [1]
GUI_FontLSFont20b__Prop224
                        0x08041c00     0xc  Data  Gb  LS-Font20b_.o [1]
GUI_FontLSFont20b__Prop225
                        0x08041bf4     0xc  Data  Gb  LS-Font20b_.o [1]
GUI_FontLSFont20b__Prop226
                        0x08041be8     0xc  Data  Gb  LS-Font20b_.o [1]
GUI_FontLSFont20b__Prop227
                        0x08041bdc     0xc  Data  Gb  LS-Font20b_.o [1]
GUI_FontLSFont20b__Prop228
                        0x08041bd0     0xc  Data  Gb  LS-Font20b_.o [1]
GUI_FontLSFont20b__Prop229
                        0x08041bc4     0xc  Data  Gb  LS-Font20b_.o [1]
GUI_FontLSFont20b__Prop23
                        0x0804256c     0xc  Data  Gb  LS-Font20b_.o [1]
GUI_FontLSFont20b__Prop230
                        0x08041bb8     0xc  Data  Gb  LS-Font20b_.o [1]
GUI_FontLSFont20b__Prop231
                        0x08041bac     0xc  Data  Gb  LS-Font20b_.o [1]
GUI_FontLSFont20b__Prop232
                        0x08041ba0     0xc  Data  Gb  LS-Font20b_.o [1]
GUI_FontLSFont20b__Prop233
                        0x08041b94     0xc  Data  Gb  LS-Font20b_.o [1]
GUI_FontLSFont20b__Prop234
                        0x08041b88     0xc  Data  Gb  LS-Font20b_.o [1]
GUI_FontLSFont20b__Prop235
                        0x08041b7c     0xc  Data  Gb  LS-Font20b_.o [1]
GUI_FontLSFont20b__Prop236
                        0x08041b70     0xc  Data  Gb  LS-Font20b_.o [1]
GUI_FontLSFont20b__Prop237
                        0x08041b64     0xc  Data  Gb  LS-Font20b_.o [1]
GUI_FontLSFont20b__Prop238
                        0x08041b58     0xc  Data  Gb  LS-Font20b_.o [1]
GUI_FontLSFont20b__Prop239
                        0x08041b4c     0xc  Data  Gb  LS-Font20b_.o [1]
GUI_FontLSFont20b__Prop24
                        0x08042560     0xc  Data  Gb  LS-Font20b_.o [1]
GUI_FontLSFont20b__Prop240
                        0x08041b40     0xc  Data  Gb  LS-Font20b_.o [1]
GUI_FontLSFont20b__Prop241
                        0x08041b34     0xc  Data  Gb  LS-Font20b_.o [1]
GUI_FontLSFont20b__Prop242
                        0x08041b28     0xc  Data  Gb  LS-Font20b_.o [1]
GUI_FontLSFont20b__Prop243
                        0x08041b1c     0xc  Data  Gb  LS-Font20b_.o [1]
GUI_FontLSFont20b__Prop244
                        0x08041b10     0xc  Data  Gb  LS-Font20b_.o [1]
GUI_FontLSFont20b__Prop245
                        0x08041b04     0xc  Data  Gb  LS-Font20b_.o [1]
GUI_FontLSFont20b__Prop246
                        0x08041af8     0xc  Data  Gb  LS-Font20b_.o [1]
GUI_FontLSFont20b__Prop247
                        0x08041aec     0xc  Data  Gb  LS-Font20b_.o [1]
GUI_FontLSFont20b__Prop248
                        0x08041ae0     0xc  Data  Gb  LS-Font20b_.o [1]
GUI_FontLSFont20b__Prop249
                        0x08041ad4     0xc  Data  Gb  LS-Font20b_.o [1]
GUI_FontLSFont20b__Prop25
                        0x08042554     0xc  Data  Gb  LS-Font20b_.o [1]
GUI_FontLSFont20b__Prop250
                        0x08041ac8     0xc  Data  Gb  LS-Font20b_.o [1]
GUI_FontLSFont20b__Prop251
                        0x08041abc     0xc  Data  Gb  LS-Font20b_.o [1]
GUI_FontLSFont20b__Prop252
                        0x08041ab0     0xc  Data  Gb  LS-Font20b_.o [1]
GUI_FontLSFont20b__Prop253
                        0x08041aa4     0xc  Data  Gb  LS-Font20b_.o [1]
GUI_FontLSFont20b__Prop254
                        0x08041a98     0xc  Data  Gb  LS-Font20b_.o [1]
GUI_FontLSFont20b__Prop255
                        0x08041a8c     0xc  Data  Gb  LS-Font20b_.o [1]
GUI_FontLSFont20b__Prop256
                        0x08041a80     0xc  Data  Gb  LS-Font20b_.o [1]
GUI_FontLSFont20b__Prop257
                        0x08041a74     0xc  Data  Gb  LS-Font20b_.o [1]
GUI_FontLSFont20b__Prop258
                        0x08041a68     0xc  Data  Gb  LS-Font20b_.o [1]
GUI_FontLSFont20b__Prop259
                        0x08041a5c     0xc  Data  Gb  LS-Font20b_.o [1]
GUI_FontLSFont20b__Prop26
                        0x08042548     0xc  Data  Gb  LS-Font20b_.o [1]
GUI_FontLSFont20b__Prop260
                        0x08041a50     0xc  Data  Gb  LS-Font20b_.o [1]
GUI_FontLSFont20b__Prop261
                        0x08041a44     0xc  Data  Gb  LS-Font20b_.o [1]
GUI_FontLSFont20b__Prop262
                        0x08041a38     0xc  Data  Gb  LS-Font20b_.o [1]
GUI_FontLSFont20b__Prop263
                        0x08041a2c     0xc  Data  Gb  LS-Font20b_.o [1]
GUI_FontLSFont20b__Prop264
                        0x08041a20     0xc  Data  Gb  LS-Font20b_.o [1]
GUI_FontLSFont20b__Prop265
                        0x08041a14     0xc  Data  Gb  LS-Font20b_.o [1]
GUI_FontLSFont20b__Prop266
                        0x08041a08     0xc  Data  Gb  LS-Font20b_.o [1]
GUI_FontLSFont20b__Prop267
                        0x080419fc     0xc  Data  Gb  LS-Font20b_.o [1]
GUI_FontLSFont20b__Prop268
                        0x080419f0     0xc  Data  Gb  LS-Font20b_.o [1]
GUI_FontLSFont20b__Prop269
                        0x080419e4     0xc  Data  Gb  LS-Font20b_.o [1]
GUI_FontLSFont20b__Prop27
                        0x0804253c     0xc  Data  Gb  LS-Font20b_.o [1]
GUI_FontLSFont20b__Prop270
                        0x080419d8     0xc  Data  Gb  LS-Font20b_.o [1]
GUI_FontLSFont20b__Prop271
                        0x080419cc     0xc  Data  Gb  LS-Font20b_.o [1]
GUI_FontLSFont20b__Prop272
                        0x080419c0     0xc  Data  Gb  LS-Font20b_.o [1]
GUI_FontLSFont20b__Prop273
                        0x080419b4     0xc  Data  Gb  LS-Font20b_.o [1]
GUI_FontLSFont20b__Prop274
                        0x080419a8     0xc  Data  Gb  LS-Font20b_.o [1]
GUI_FontLSFont20b__Prop275
                        0x0804199c     0xc  Data  Gb  LS-Font20b_.o [1]
GUI_FontLSFont20b__Prop276
                        0x08041990     0xc  Data  Gb  LS-Font20b_.o [1]
GUI_FontLSFont20b__Prop277
                        0x08041984     0xc  Data  Gb  LS-Font20b_.o [1]
GUI_FontLSFont20b__Prop278
                        0x08041978     0xc  Data  Gb  LS-Font20b_.o [1]
GUI_FontLSFont20b__Prop279
                        0x0804196c     0xc  Data  Gb  LS-Font20b_.o [1]
GUI_FontLSFont20b__Prop28
                        0x08042530     0xc  Data  Gb  LS-Font20b_.o [1]
GUI_FontLSFont20b__Prop280
                        0x08041960     0xc  Data  Gb  LS-Font20b_.o [1]
GUI_FontLSFont20b__Prop281
                        0x08041954     0xc  Data  Gb  LS-Font20b_.o [1]
GUI_FontLSFont20b__Prop282
                        0x08041948     0xc  Data  Gb  LS-Font20b_.o [1]
GUI_FontLSFont20b__Prop283
                        0x0804193c     0xc  Data  Gb  LS-Font20b_.o [1]
GUI_FontLSFont20b__Prop284
                        0x08041930     0xc  Data  Gb  LS-Font20b_.o [1]
GUI_FontLSFont20b__Prop285
                        0x08041924     0xc  Data  Gb  LS-Font20b_.o [1]
GUI_FontLSFont20b__Prop286
                        0x08041918     0xc  Data  Gb  LS-Font20b_.o [1]
GUI_FontLSFont20b__Prop287
                        0x0804190c     0xc  Data  Gb  LS-Font20b_.o [1]
GUI_FontLSFont20b__Prop288
                        0x08041900     0xc  Data  Gb  LS-Font20b_.o [1]
GUI_FontLSFont20b__Prop289
                        0x080418f4     0xc  Data  Gb  LS-Font20b_.o [1]
GUI_FontLSFont20b__Prop29
                        0x08042524     0xc  Data  Gb  LS-Font20b_.o [1]
GUI_FontLSFont20b__Prop290
                        0x080418e8     0xc  Data  Gb  LS-Font20b_.o [1]
GUI_FontLSFont20b__Prop291
                        0x080418dc     0xc  Data  Gb  LS-Font20b_.o [1]
GUI_FontLSFont20b__Prop292
                        0x080418d0     0xc  Data  Gb  LS-Font20b_.o [1]
GUI_FontLSFont20b__Prop293
                        0x080418c4     0xc  Data  Gb  LS-Font20b_.o [1]
GUI_FontLSFont20b__Prop294
                        0x080418b8     0xc  Data  Gb  LS-Font20b_.o [1]
GUI_FontLSFont20b__Prop295
                        0x080418ac     0xc  Data  Gb  LS-Font20b_.o [1]
GUI_FontLSFont20b__Prop296
                        0x080418a0     0xc  Data  Gb  LS-Font20b_.o [1]
GUI_FontLSFont20b__Prop297
                        0x08041894     0xc  Data  Gb  LS-Font20b_.o [1]
GUI_FontLSFont20b__Prop298
                        0x08041888     0xc  Data  Gb  LS-Font20b_.o [1]
GUI_FontLSFont20b__Prop299
                        0x0804187c     0xc  Data  Gb  LS-Font20b_.o [1]
GUI_FontLSFont20b__Prop3
                        0x0804265c     0xc  Data  Gb  LS-Font20b_.o [1]
GUI_FontLSFont20b__Prop30
                        0x08042518     0xc  Data  Gb  LS-Font20b_.o [1]
GUI_FontLSFont20b__Prop300
                        0x08041870     0xc  Data  Gb  LS-Font20b_.o [1]
GUI_FontLSFont20b__Prop301
                        0x08041864     0xc  Data  Gb  LS-Font20b_.o [1]
GUI_FontLSFont20b__Prop302
                        0x08041858     0xc  Data  Gb  LS-Font20b_.o [1]
GUI_FontLSFont20b__Prop303
                        0x0804184c     0xc  Data  Gb  LS-Font20b_.o [1]
GUI_FontLSFont20b__Prop304
                        0x08041840     0xc  Data  Gb  LS-Font20b_.o [1]
GUI_FontLSFont20b__Prop305
                        0x08041834     0xc  Data  Gb  LS-Font20b_.o [1]
GUI_FontLSFont20b__Prop306
                        0x08041828     0xc  Data  Gb  LS-Font20b_.o [1]
GUI_FontLSFont20b__Prop307
                        0x0804181c     0xc  Data  Gb  LS-Font20b_.o [1]
GUI_FontLSFont20b__Prop308
                        0x08041810     0xc  Data  Gb  LS-Font20b_.o [1]
GUI_FontLSFont20b__Prop309
                        0x08041804     0xc  Data  Gb  LS-Font20b_.o [1]
GUI_FontLSFont20b__Prop31
                        0x0804250c     0xc  Data  Gb  LS-Font20b_.o [1]
GUI_FontLSFont20b__Prop310
                        0x080417f8     0xc  Data  Gb  LS-Font20b_.o [1]
GUI_FontLSFont20b__Prop311
                        0x080417ec     0xc  Data  Gb  LS-Font20b_.o [1]
GUI_FontLSFont20b__Prop312
                        0x080417e0     0xc  Data  Gb  LS-Font20b_.o [1]
GUI_FontLSFont20b__Prop313
                        0x080417d4     0xc  Data  Gb  LS-Font20b_.o [1]
GUI_FontLSFont20b__Prop314
                        0x080417c8     0xc  Data  Gb  LS-Font20b_.o [1]
GUI_FontLSFont20b__Prop315
                        0x080417bc     0xc  Data  Gb  LS-Font20b_.o [1]
GUI_FontLSFont20b__Prop316
                        0x080417b0     0xc  Data  Gb  LS-Font20b_.o [1]
GUI_FontLSFont20b__Prop317
                        0x080417a4     0xc  Data  Gb  LS-Font20b_.o [1]
GUI_FontLSFont20b__Prop318
                        0x08041798     0xc  Data  Gb  LS-Font20b_.o [1]
GUI_FontLSFont20b__Prop319
                        0x0804178c     0xc  Data  Gb  LS-Font20b_.o [1]
GUI_FontLSFont20b__Prop32
                        0x08042500     0xc  Data  Gb  LS-Font20b_.o [1]
GUI_FontLSFont20b__Prop320
                        0x08041780     0xc  Data  Gb  LS-Font20b_.o [1]
GUI_FontLSFont20b__Prop321
                        0x08041774     0xc  Data  Gb  LS-Font20b_.o [1]
GUI_FontLSFont20b__Prop322
                        0x08041768     0xc  Data  Gb  LS-Font20b_.o [1]
GUI_FontLSFont20b__Prop323
                        0x0804175c     0xc  Data  Gb  LS-Font20b_.o [1]
GUI_FontLSFont20b__Prop324
                        0x08041750     0xc  Data  Gb  LS-Font20b_.o [1]
GUI_FontLSFont20b__Prop325
                        0x08041744     0xc  Data  Gb  LS-Font20b_.o [1]
GUI_FontLSFont20b__Prop326
                        0x08041738     0xc  Data  Gb  LS-Font20b_.o [1]
GUI_FontLSFont20b__Prop327
                        0x0804172c     0xc  Data  Gb  LS-Font20b_.o [1]
GUI_FontLSFont20b__Prop328
                        0x08041720     0xc  Data  Gb  LS-Font20b_.o [1]
GUI_FontLSFont20b__Prop329
                        0x08041714     0xc  Data  Gb  LS-Font20b_.o [1]
GUI_FontLSFont20b__Prop33
                        0x080424f4     0xc  Data  Gb  LS-Font20b_.o [1]
GUI_FontLSFont20b__Prop330
                        0x08041708     0xc  Data  Gb  LS-Font20b_.o [1]
GUI_FontLSFont20b__Prop331
                        0x080416fc     0xc  Data  Gb  LS-Font20b_.o [1]
GUI_FontLSFont20b__Prop332
                        0x080416f0     0xc  Data  Gb  LS-Font20b_.o [1]
GUI_FontLSFont20b__Prop333
                        0x080416e4     0xc  Data  Gb  LS-Font20b_.o [1]
GUI_FontLSFont20b__Prop334
                        0x080416d8     0xc  Data  Gb  LS-Font20b_.o [1]
GUI_FontLSFont20b__Prop335
                        0x080416cc     0xc  Data  Gb  LS-Font20b_.o [1]
GUI_FontLSFont20b__Prop336
                        0x080416c0     0xc  Data  Gb  LS-Font20b_.o [1]
GUI_FontLSFont20b__Prop337
                        0x080416b4     0xc  Data  Gb  LS-Font20b_.o [1]
GUI_FontLSFont20b__Prop338
                        0x080416a8     0xc  Data  Gb  LS-Font20b_.o [1]
GUI_FontLSFont20b__Prop339
                        0x0804169c     0xc  Data  Gb  LS-Font20b_.o [1]
GUI_FontLSFont20b__Prop34
                        0x080424e8     0xc  Data  Gb  LS-Font20b_.o [1]
GUI_FontLSFont20b__Prop340
                        0x08041690     0xc  Data  Gb  LS-Font20b_.o [1]
GUI_FontLSFont20b__Prop341
                        0x08041684     0xc  Data  Gb  LS-Font20b_.o [1]
GUI_FontLSFont20b__Prop342
                        0x08041678     0xc  Data  Gb  LS-Font20b_.o [1]
GUI_FontLSFont20b__Prop343
                        0x0804166c     0xc  Data  Gb  LS-Font20b_.o [1]
GUI_FontLSFont20b__Prop344
                        0x08041660     0xc  Data  Gb  LS-Font20b_.o [1]
GUI_FontLSFont20b__Prop345
                        0x08041654     0xc  Data  Gb  LS-Font20b_.o [1]
GUI_FontLSFont20b__Prop346
                        0x08041648     0xc  Data  Gb  LS-Font20b_.o [1]
GUI_FontLSFont20b__Prop347
                        0x0804163c     0xc  Data  Gb  LS-Font20b_.o [1]
GUI_FontLSFont20b__Prop348
                        0x08041630     0xc  Data  Gb  LS-Font20b_.o [1]
GUI_FontLSFont20b__Prop349
                        0x08041624     0xc  Data  Gb  LS-Font20b_.o [1]
GUI_FontLSFont20b__Prop35
                        0x080424dc     0xc  Data  Gb  LS-Font20b_.o [1]
GUI_FontLSFont20b__Prop350
                        0x08041618     0xc  Data  Gb  LS-Font20b_.o [1]
GUI_FontLSFont20b__Prop351
                        0x0804160c     0xc  Data  Gb  LS-Font20b_.o [1]
GUI_FontLSFont20b__Prop352
                        0x08041600     0xc  Data  Gb  LS-Font20b_.o [1]
GUI_FontLSFont20b__Prop353
                        0x080415f4     0xc  Data  Gb  LS-Font20b_.o [1]
GUI_FontLSFont20b__Prop354
                        0x080415e8     0xc  Data  Gb  LS-Font20b_.o [1]
GUI_FontLSFont20b__Prop355
                        0x080415dc     0xc  Data  Gb  LS-Font20b_.o [1]
GUI_FontLSFont20b__Prop356
                        0x080415d0     0xc  Data  Gb  LS-Font20b_.o [1]
GUI_FontLSFont20b__Prop357
                        0x080415c4     0xc  Data  Gb  LS-Font20b_.o [1]
GUI_FontLSFont20b__Prop358
                        0x080415b8     0xc  Data  Gb  LS-Font20b_.o [1]
GUI_FontLSFont20b__Prop359
                        0x080415ac     0xc  Data  Gb  LS-Font20b_.o [1]
GUI_FontLSFont20b__Prop36
                        0x080424d0     0xc  Data  Gb  LS-Font20b_.o [1]
GUI_FontLSFont20b__Prop360
                        0x080415a0     0xc  Data  Gb  LS-Font20b_.o [1]
GUI_FontLSFont20b__Prop361
                        0x08041594     0xc  Data  Gb  LS-Font20b_.o [1]
GUI_FontLSFont20b__Prop362
                        0x08041588     0xc  Data  Gb  LS-Font20b_.o [1]
GUI_FontLSFont20b__Prop363
                        0x0804157c     0xc  Data  Gb  LS-Font20b_.o [1]
GUI_FontLSFont20b__Prop364
                        0x08041570     0xc  Data  Gb  LS-Font20b_.o [1]
GUI_FontLSFont20b__Prop365
                        0x08041564     0xc  Data  Gb  LS-Font20b_.o [1]
GUI_FontLSFont20b__Prop366
                        0x08041558     0xc  Data  Gb  LS-Font20b_.o [1]
GUI_FontLSFont20b__Prop367
                        0x0804154c     0xc  Data  Gb  LS-Font20b_.o [1]
GUI_FontLSFont20b__Prop368
                        0x08041540     0xc  Data  Gb  LS-Font20b_.o [1]
GUI_FontLSFont20b__Prop369
                        0x08041534     0xc  Data  Gb  LS-Font20b_.o [1]
GUI_FontLSFont20b__Prop37
                        0x080424c4     0xc  Data  Gb  LS-Font20b_.o [1]
GUI_FontLSFont20b__Prop370
                        0x08041528     0xc  Data  Gb  LS-Font20b_.o [1]
GUI_FontLSFont20b__Prop371
                        0x0804151c     0xc  Data  Gb  LS-Font20b_.o [1]
GUI_FontLSFont20b__Prop372
                        0x08041510     0xc  Data  Gb  LS-Font20b_.o [1]
GUI_FontLSFont20b__Prop373
                        0x08041504     0xc  Data  Gb  LS-Font20b_.o [1]
GUI_FontLSFont20b__Prop374
                        0x080414f8     0xc  Data  Gb  LS-Font20b_.o [1]
GUI_FontLSFont20b__Prop375
                        0x080414ec     0xc  Data  Gb  LS-Font20b_.o [1]
GUI_FontLSFont20b__Prop376
                        0x080414e0     0xc  Data  Gb  LS-Font20b_.o [1]
GUI_FontLSFont20b__Prop377
                        0x080414d4     0xc  Data  Gb  LS-Font20b_.o [1]
GUI_FontLSFont20b__Prop378
                        0x080414c8     0xc  Data  Gb  LS-Font20b_.o [1]
GUI_FontLSFont20b__Prop379
                        0x080414bc     0xc  Data  Gb  LS-Font20b_.o [1]
GUI_FontLSFont20b__Prop38
                        0x080424b8     0xc  Data  Gb  LS-Font20b_.o [1]
GUI_FontLSFont20b__Prop380
                        0x080414b0     0xc  Data  Gb  LS-Font20b_.o [1]
GUI_FontLSFont20b__Prop381
                        0x080414a4     0xc  Data  Gb  LS-Font20b_.o [1]
GUI_FontLSFont20b__Prop382
                        0x08041498     0xc  Data  Gb  LS-Font20b_.o [1]
GUI_FontLSFont20b__Prop383
                        0x0804148c     0xc  Data  Gb  LS-Font20b_.o [1]
GUI_FontLSFont20b__Prop384
                        0x08041480     0xc  Data  Gb  LS-Font20b_.o [1]
GUI_FontLSFont20b__Prop385
                        0x08041474     0xc  Data  Gb  LS-Font20b_.o [1]
GUI_FontLSFont20b__Prop386
                        0x08041468     0xc  Data  Gb  LS-Font20b_.o [1]
GUI_FontLSFont20b__Prop387
                        0x0804145c     0xc  Data  Gb  LS-Font20b_.o [1]
GUI_FontLSFont20b__Prop388
                        0x08041450     0xc  Data  Gb  LS-Font20b_.o [1]
GUI_FontLSFont20b__Prop389
                        0x08041444     0xc  Data  Gb  LS-Font20b_.o [1]
GUI_FontLSFont20b__Prop39
                        0x080424ac     0xc  Data  Gb  LS-Font20b_.o [1]
GUI_FontLSFont20b__Prop390
                        0x08041438     0xc  Data  Gb  LS-Font20b_.o [1]
GUI_FontLSFont20b__Prop391
                        0x0804142c     0xc  Data  Gb  LS-Font20b_.o [1]
GUI_FontLSFont20b__Prop392
                        0x08041420     0xc  Data  Gb  LS-Font20b_.o [1]
GUI_FontLSFont20b__Prop393
                        0x08041414     0xc  Data  Gb  LS-Font20b_.o [1]
GUI_FontLSFont20b__Prop394
                        0x08041408     0xc  Data  Gb  LS-Font20b_.o [1]
GUI_FontLSFont20b__Prop395
                        0x080413fc     0xc  Data  Gb  LS-Font20b_.o [1]
GUI_FontLSFont20b__Prop396
                        0x080413f0     0xc  Data  Gb  LS-Font20b_.o [1]
GUI_FontLSFont20b__Prop397
                        0x080413e4     0xc  Data  Gb  LS-Font20b_.o [1]
GUI_FontLSFont20b__Prop4
                        0x08042650     0xc  Data  Gb  LS-Font20b_.o [1]
GUI_FontLSFont20b__Prop40
                        0x080424a0     0xc  Data  Gb  LS-Font20b_.o [1]
GUI_FontLSFont20b__Prop41
                        0x08042494     0xc  Data  Gb  LS-Font20b_.o [1]
GUI_FontLSFont20b__Prop42
                        0x08042488     0xc  Data  Gb  LS-Font20b_.o [1]
GUI_FontLSFont20b__Prop43
                        0x0804247c     0xc  Data  Gb  LS-Font20b_.o [1]
GUI_FontLSFont20b__Prop44
                        0x08042470     0xc  Data  Gb  LS-Font20b_.o [1]
GUI_FontLSFont20b__Prop45
                        0x08042464     0xc  Data  Gb  LS-Font20b_.o [1]
GUI_FontLSFont20b__Prop46
                        0x08042458     0xc  Data  Gb  LS-Font20b_.o [1]
GUI_FontLSFont20b__Prop47
                        0x0804244c     0xc  Data  Gb  LS-Font20b_.o [1]
GUI_FontLSFont20b__Prop48
                        0x08042440     0xc  Data  Gb  LS-Font20b_.o [1]
GUI_FontLSFont20b__Prop49
                        0x08042434     0xc  Data  Gb  LS-Font20b_.o [1]
GUI_FontLSFont20b__Prop5
                        0x08042644     0xc  Data  Gb  LS-Font20b_.o [1]
GUI_FontLSFont20b__Prop50
                        0x08042428     0xc  Data  Gb  LS-Font20b_.o [1]
GUI_FontLSFont20b__Prop51
                        0x0804241c     0xc  Data  Gb  LS-Font20b_.o [1]
GUI_FontLSFont20b__Prop52
                        0x08042410     0xc  Data  Gb  LS-Font20b_.o [1]
GUI_FontLSFont20b__Prop53
                        0x08042404     0xc  Data  Gb  LS-Font20b_.o [1]
GUI_FontLSFont20b__Prop54
                        0x080423f8     0xc  Data  Gb  LS-Font20b_.o [1]
GUI_FontLSFont20b__Prop55
                        0x080423ec     0xc  Data  Gb  LS-Font20b_.o [1]
GUI_FontLSFont20b__Prop56
                        0x080423e0     0xc  Data  Gb  LS-Font20b_.o [1]
GUI_FontLSFont20b__Prop57
                        0x080423d4     0xc  Data  Gb  LS-Font20b_.o [1]
GUI_FontLSFont20b__Prop58
                        0x080423c8     0xc  Data  Gb  LS-Font20b_.o [1]
GUI_FontLSFont20b__Prop59
                        0x080423bc     0xc  Data  Gb  LS-Font20b_.o [1]
GUI_FontLSFont20b__Prop6
                        0x08042638     0xc  Data  Gb  LS-Font20b_.o [1]
GUI_FontLSFont20b__Prop60
                        0x080423b0     0xc  Data  Gb  LS-Font20b_.o [1]
GUI_FontLSFont20b__Prop61
                        0x080423a4     0xc  Data  Gb  LS-Font20b_.o [1]
GUI_FontLSFont20b__Prop62
                        0x08042398     0xc  Data  Gb  LS-Font20b_.o [1]
GUI_FontLSFont20b__Prop63
                        0x0804238c     0xc  Data  Gb  LS-Font20b_.o [1]
GUI_FontLSFont20b__Prop64
                        0x08042380     0xc  Data  Gb  LS-Font20b_.o [1]
GUI_FontLSFont20b__Prop65
                        0x08042374     0xc  Data  Gb  LS-Font20b_.o [1]
GUI_FontLSFont20b__Prop66
                        0x08042368     0xc  Data  Gb  LS-Font20b_.o [1]
GUI_FontLSFont20b__Prop67
                        0x0804235c     0xc  Data  Gb  LS-Font20b_.o [1]
GUI_FontLSFont20b__Prop68
                        0x08042350     0xc  Data  Gb  LS-Font20b_.o [1]
GUI_FontLSFont20b__Prop69
                        0x08042344     0xc  Data  Gb  LS-Font20b_.o [1]
GUI_FontLSFont20b__Prop7
                        0x0804262c     0xc  Data  Gb  LS-Font20b_.o [1]
GUI_FontLSFont20b__Prop70
                        0x08042338     0xc  Data  Gb  LS-Font20b_.o [1]
GUI_FontLSFont20b__Prop71
                        0x0804232c     0xc  Data  Gb  LS-Font20b_.o [1]
GUI_FontLSFont20b__Prop72
                        0x08042320     0xc  Data  Gb  LS-Font20b_.o [1]
GUI_FontLSFont20b__Prop73
                        0x08042314     0xc  Data  Gb  LS-Font20b_.o [1]
GUI_FontLSFont20b__Prop74
                        0x08042308     0xc  Data  Gb  LS-Font20b_.o [1]
GUI_FontLSFont20b__Prop75
                        0x080422fc     0xc  Data  Gb  LS-Font20b_.o [1]
GUI_FontLSFont20b__Prop76
                        0x080422f0     0xc  Data  Gb  LS-Font20b_.o [1]
GUI_FontLSFont20b__Prop77
                        0x080422e4     0xc  Data  Gb  LS-Font20b_.o [1]
GUI_FontLSFont20b__Prop78
                        0x080422d8     0xc  Data  Gb  LS-Font20b_.o [1]
GUI_FontLSFont20b__Prop79
                        0x080422cc     0xc  Data  Gb  LS-Font20b_.o [1]
GUI_FontLSFont20b__Prop8
                        0x08042620     0xc  Data  Gb  LS-Font20b_.o [1]
GUI_FontLSFont20b__Prop80
                        0x080422c0     0xc  Data  Gb  LS-Font20b_.o [1]
GUI_FontLSFont20b__Prop81
                        0x080422b4     0xc  Data  Gb  LS-Font20b_.o [1]
GUI_FontLSFont20b__Prop82
                        0x080422a8     0xc  Data  Gb  LS-Font20b_.o [1]
GUI_FontLSFont20b__Prop83
                        0x0804229c     0xc  Data  Gb  LS-Font20b_.o [1]
GUI_FontLSFont20b__Prop84
                        0x08042290     0xc  Data  Gb  LS-Font20b_.o [1]
GUI_FontLSFont20b__Prop85
                        0x08042284     0xc  Data  Gb  LS-Font20b_.o [1]
GUI_FontLSFont20b__Prop86
                        0x08042278     0xc  Data  Gb  LS-Font20b_.o [1]
GUI_FontLSFont20b__Prop87
                        0x0804226c     0xc  Data  Gb  LS-Font20b_.o [1]
GUI_FontLSFont20b__Prop88
                        0x08042260     0xc  Data  Gb  LS-Font20b_.o [1]
GUI_FontLSFont20b__Prop89
                        0x08042254     0xc  Data  Gb  LS-Font20b_.o [1]
GUI_FontLSFont20b__Prop9
                        0x08042614     0xc  Data  Gb  LS-Font20b_.o [1]
GUI_FontLSFont20b__Prop90
                        0x08042248     0xc  Data  Gb  LS-Font20b_.o [1]
GUI_FontLSFont20b__Prop91
                        0x0804223c     0xc  Data  Gb  LS-Font20b_.o [1]
GUI_FontLSFont20b__Prop92
                        0x08042230     0xc  Data  Gb  LS-Font20b_.o [1]
GUI_FontLSFont20b__Prop93
                        0x08042224     0xc  Data  Gb  LS-Font20b_.o [1]
GUI_FontLSFont20b__Prop94
                        0x08042218     0xc  Data  Gb  LS-Font20b_.o [1]
GUI_FontLSFont20b__Prop95
                        0x0804220c     0xc  Data  Gb  LS-Font20b_.o [1]
GUI_FontLSFont20b__Prop96
                        0x08042200     0xc  Data  Gb  LS-Font20b_.o [1]
GUI_FontLSFont20b__Prop97
                        0x080421f4     0xc  Data  Gb  LS-Font20b_.o [1]
GUI_FontLSFont20b__Prop98
                        0x080421e8     0xc  Data  Gb  LS-Font20b_.o [1]
GUI_FontLSFont20b__Prop99
                        0x080421dc     0xc  Data  Gb  LS-Font20b_.o [1]
GUI_FontLSFont20n_      0x0804bba0    0x24  Data  Gb  LS-Font20n_.o [1]
GUI_FontLSFont20n__CharInfo
                        0x08049008  0x1908  Data  Gb  LS-Font20n_.o [1]
GUI_FontLSFont20n__Prop1
                        0x0804bb94     0xc  Data  Gb  LS-Font20n_.o [1]
GUI_FontLSFont20n__Prop10
                        0x0804bb28     0xc  Data  Gb  LS-Font20n_.o [1]
GUI_FontLSFont20n__Prop100
                        0x0804b6f0     0xc  Data  Gb  LS-Font20n_.o [1]
GUI_FontLSFont20n__Prop101
                        0x0804b6e4     0xc  Data  Gb  LS-Font20n_.o [1]
GUI_FontLSFont20n__Prop102
                        0x0804b6d8     0xc  Data  Gb  LS-Font20n_.o [1]
GUI_FontLSFont20n__Prop103
                        0x0804b6cc     0xc  Data  Gb  LS-Font20n_.o [1]
GUI_FontLSFont20n__Prop104
                        0x0804b6c0     0xc  Data  Gb  LS-Font20n_.o [1]
GUI_FontLSFont20n__Prop105
                        0x0804b6b4     0xc  Data  Gb  LS-Font20n_.o [1]
GUI_FontLSFont20n__Prop106
                        0x0804b6a8     0xc  Data  Gb  LS-Font20n_.o [1]
GUI_FontLSFont20n__Prop107
                        0x0804b69c     0xc  Data  Gb  LS-Font20n_.o [1]
GUI_FontLSFont20n__Prop108
                        0x0804b690     0xc  Data  Gb  LS-Font20n_.o [1]
GUI_FontLSFont20n__Prop109
                        0x0804b684     0xc  Data  Gb  LS-Font20n_.o [1]
GUI_FontLSFont20n__Prop11
                        0x0804bb1c     0xc  Data  Gb  LS-Font20n_.o [1]
GUI_FontLSFont20n__Prop110
                        0x0804b678     0xc  Data  Gb  LS-Font20n_.o [1]
GUI_FontLSFont20n__Prop111
                        0x0804b66c     0xc  Data  Gb  LS-Font20n_.o [1]
GUI_FontLSFont20n__Prop112
                        0x0804b660     0xc  Data  Gb  LS-Font20n_.o [1]
GUI_FontLSFont20n__Prop113
                        0x0804b654     0xc  Data  Gb  LS-Font20n_.o [1]
GUI_FontLSFont20n__Prop114
                        0x0804b648     0xc  Data  Gb  LS-Font20n_.o [1]
GUI_FontLSFont20n__Prop115
                        0x0804b63c     0xc  Data  Gb  LS-Font20n_.o [1]
GUI_FontLSFont20n__Prop116
                        0x0804b630     0xc  Data  Gb  LS-Font20n_.o [1]
GUI_FontLSFont20n__Prop117
                        0x0804b624     0xc  Data  Gb  LS-Font20n_.o [1]
GUI_FontLSFont20n__Prop118
                        0x0804b618     0xc  Data  Gb  LS-Font20n_.o [1]
GUI_FontLSFont20n__Prop119
                        0x0804b60c     0xc  Data  Gb  LS-Font20n_.o [1]
GUI_FontLSFont20n__Prop12
                        0x0804bb10     0xc  Data  Gb  LS-Font20n_.o [1]
GUI_FontLSFont20n__Prop120
                        0x0804b600     0xc  Data  Gb  LS-Font20n_.o [1]
GUI_FontLSFont20n__Prop121
                        0x0804b5f4     0xc  Data  Gb  LS-Font20n_.o [1]
GUI_FontLSFont20n__Prop122
                        0x0804b5e8     0xc  Data  Gb  LS-Font20n_.o [1]
GUI_FontLSFont20n__Prop123
                        0x0804b5dc     0xc  Data  Gb  LS-Font20n_.o [1]
GUI_FontLSFont20n__Prop124
                        0x0804b5d0     0xc  Data  Gb  LS-Font20n_.o [1]
GUI_FontLSFont20n__Prop125
                        0x0804b5c4     0xc  Data  Gb  LS-Font20n_.o [1]
GUI_FontLSFont20n__Prop126
                        0x0804b5b8     0xc  Data  Gb  LS-Font20n_.o [1]
GUI_FontLSFont20n__Prop127
                        0x0804b5ac     0xc  Data  Gb  LS-Font20n_.o [1]
GUI_FontLSFont20n__Prop128
                        0x0804b5a0     0xc  Data  Gb  LS-Font20n_.o [1]
GUI_FontLSFont20n__Prop129
                        0x0804b594     0xc  Data  Gb  LS-Font20n_.o [1]
GUI_FontLSFont20n__Prop13
                        0x0804bb04     0xc  Data  Gb  LS-Font20n_.o [1]
GUI_FontLSFont20n__Prop130
                        0x0804b588     0xc  Data  Gb  LS-Font20n_.o [1]
GUI_FontLSFont20n__Prop131
                        0x0804b57c     0xc  Data  Gb  LS-Font20n_.o [1]
GUI_FontLSFont20n__Prop132
                        0x0804b570     0xc  Data  Gb  LS-Font20n_.o [1]
GUI_FontLSFont20n__Prop133
                        0x0804b564     0xc  Data  Gb  LS-Font20n_.o [1]
GUI_FontLSFont20n__Prop134
                        0x0804b558     0xc  Data  Gb  LS-Font20n_.o [1]
GUI_FontLSFont20n__Prop135
                        0x0804b54c     0xc  Data  Gb  LS-Font20n_.o [1]
GUI_FontLSFont20n__Prop136
                        0x0804b540     0xc  Data  Gb  LS-Font20n_.o [1]
GUI_FontLSFont20n__Prop137
                        0x0804b534     0xc  Data  Gb  LS-Font20n_.o [1]
GUI_FontLSFont20n__Prop138
                        0x0804b528     0xc  Data  Gb  LS-Font20n_.o [1]
GUI_FontLSFont20n__Prop139
                        0x0804b51c     0xc  Data  Gb  LS-Font20n_.o [1]
GUI_FontLSFont20n__Prop14
                        0x0804baf8     0xc  Data  Gb  LS-Font20n_.o [1]
GUI_FontLSFont20n__Prop140
                        0x0804b510     0xc  Data  Gb  LS-Font20n_.o [1]
GUI_FontLSFont20n__Prop141
                        0x0804b504     0xc  Data  Gb  LS-Font20n_.o [1]
GUI_FontLSFont20n__Prop142
                        0x0804b4f8     0xc  Data  Gb  LS-Font20n_.o [1]
GUI_FontLSFont20n__Prop143
                        0x0804b4ec     0xc  Data  Gb  LS-Font20n_.o [1]
GUI_FontLSFont20n__Prop144
                        0x0804b4e0     0xc  Data  Gb  LS-Font20n_.o [1]
GUI_FontLSFont20n__Prop145
                        0x0804b4d4     0xc  Data  Gb  LS-Font20n_.o [1]
GUI_FontLSFont20n__Prop146
                        0x0804b4c8     0xc  Data  Gb  LS-Font20n_.o [1]
GUI_FontLSFont20n__Prop147
                        0x0804b4bc     0xc  Data  Gb  LS-Font20n_.o [1]
GUI_FontLSFont20n__Prop148
                        0x0804b4b0     0xc  Data  Gb  LS-Font20n_.o [1]
GUI_FontLSFont20n__Prop149
                        0x0804b4a4     0xc  Data  Gb  LS-Font20n_.o [1]
GUI_FontLSFont20n__Prop15
                        0x0804baec     0xc  Data  Gb  LS-Font20n_.o [1]
GUI_FontLSFont20n__Prop150
                        0x0804b498     0xc  Data  Gb  LS-Font20n_.o [1]
GUI_FontLSFont20n__Prop151
                        0x0804b48c     0xc  Data  Gb  LS-Font20n_.o [1]
GUI_FontLSFont20n__Prop152
                        0x0804b480     0xc  Data  Gb  LS-Font20n_.o [1]
GUI_FontLSFont20n__Prop153
                        0x0804b474     0xc  Data  Gb  LS-Font20n_.o [1]
GUI_FontLSFont20n__Prop154
                        0x0804b468     0xc  Data  Gb  LS-Font20n_.o [1]
GUI_FontLSFont20n__Prop155
                        0x0804b45c     0xc  Data  Gb  LS-Font20n_.o [1]
GUI_FontLSFont20n__Prop156
                        0x0804b450     0xc  Data  Gb  LS-Font20n_.o [1]
GUI_FontLSFont20n__Prop157
                        0x0804b444     0xc  Data  Gb  LS-Font20n_.o [1]
GUI_FontLSFont20n__Prop158
                        0x0804b438     0xc  Data  Gb  LS-Font20n_.o [1]
GUI_FontLSFont20n__Prop159
                        0x0804b42c     0xc  Data  Gb  LS-Font20n_.o [1]
GUI_FontLSFont20n__Prop16
                        0x0804bae0     0xc  Data  Gb  LS-Font20n_.o [1]
GUI_FontLSFont20n__Prop160
                        0x0804b420     0xc  Data  Gb  LS-Font20n_.o [1]
GUI_FontLSFont20n__Prop161
                        0x0804b414     0xc  Data  Gb  LS-Font20n_.o [1]
GUI_FontLSFont20n__Prop162
                        0x0804b408     0xc  Data  Gb  LS-Font20n_.o [1]
GUI_FontLSFont20n__Prop163
                        0x0804b3fc     0xc  Data  Gb  LS-Font20n_.o [1]
GUI_FontLSFont20n__Prop164
                        0x0804b3f0     0xc  Data  Gb  LS-Font20n_.o [1]
GUI_FontLSFont20n__Prop165
                        0x0804b3e4     0xc  Data  Gb  LS-Font20n_.o [1]
GUI_FontLSFont20n__Prop166
                        0x0804b3d8     0xc  Data  Gb  LS-Font20n_.o [1]
GUI_FontLSFont20n__Prop167
                        0x0804b3cc     0xc  Data  Gb  LS-Font20n_.o [1]
GUI_FontLSFont20n__Prop168
                        0x0804b3c0     0xc  Data  Gb  LS-Font20n_.o [1]
GUI_FontLSFont20n__Prop169
                        0x0804b3b4     0xc  Data  Gb  LS-Font20n_.o [1]
GUI_FontLSFont20n__Prop17
                        0x0804bad4     0xc  Data  Gb  LS-Font20n_.o [1]
GUI_FontLSFont20n__Prop170
                        0x0804b3a8     0xc  Data  Gb  LS-Font20n_.o [1]
GUI_FontLSFont20n__Prop171
                        0x0804b39c     0xc  Data  Gb  LS-Font20n_.o [1]
GUI_FontLSFont20n__Prop172
                        0x0804b390     0xc  Data  Gb  LS-Font20n_.o [1]
GUI_FontLSFont20n__Prop173
                        0x0804b384     0xc  Data  Gb  LS-Font20n_.o [1]
GUI_FontLSFont20n__Prop174
                        0x0804b378     0xc  Data  Gb  LS-Font20n_.o [1]
GUI_FontLSFont20n__Prop175
                        0x0804b36c     0xc  Data  Gb  LS-Font20n_.o [1]
GUI_FontLSFont20n__Prop176
                        0x0804b360     0xc  Data  Gb  LS-Font20n_.o [1]
GUI_FontLSFont20n__Prop177
                        0x0804b354     0xc  Data  Gb  LS-Font20n_.o [1]
GUI_FontLSFont20n__Prop178
                        0x0804b348     0xc  Data  Gb  LS-Font20n_.o [1]
GUI_FontLSFont20n__Prop179
                        0x0804b33c     0xc  Data  Gb  LS-Font20n_.o [1]
GUI_FontLSFont20n__Prop18
                        0x0804bac8     0xc  Data  Gb  LS-Font20n_.o [1]
GUI_FontLSFont20n__Prop180
                        0x0804b330     0xc  Data  Gb  LS-Font20n_.o [1]
GUI_FontLSFont20n__Prop181
                        0x0804b324     0xc  Data  Gb  LS-Font20n_.o [1]
GUI_FontLSFont20n__Prop182
                        0x0804b318     0xc  Data  Gb  LS-Font20n_.o [1]
GUI_FontLSFont20n__Prop183
                        0x0804b30c     0xc  Data  Gb  LS-Font20n_.o [1]
GUI_FontLSFont20n__Prop184
                        0x0804b300     0xc  Data  Gb  LS-Font20n_.o [1]
GUI_FontLSFont20n__Prop185
                        0x0804b2f4     0xc  Data  Gb  LS-Font20n_.o [1]
GUI_FontLSFont20n__Prop186
                        0x0804b2e8     0xc  Data  Gb  LS-Font20n_.o [1]
GUI_FontLSFont20n__Prop187
                        0x0804b2dc     0xc  Data  Gb  LS-Font20n_.o [1]
GUI_FontLSFont20n__Prop188
                        0x0804b2d0     0xc  Data  Gb  LS-Font20n_.o [1]
GUI_FontLSFont20n__Prop189
                        0x0804b2c4     0xc  Data  Gb  LS-Font20n_.o [1]
GUI_FontLSFont20n__Prop19
                        0x0804babc     0xc  Data  Gb  LS-Font20n_.o [1]
GUI_FontLSFont20n__Prop190
                        0x0804b2b8     0xc  Data  Gb  LS-Font20n_.o [1]
GUI_FontLSFont20n__Prop191
                        0x0804b2ac     0xc  Data  Gb  LS-Font20n_.o [1]
GUI_FontLSFont20n__Prop192
                        0x0804b2a0     0xc  Data  Gb  LS-Font20n_.o [1]
GUI_FontLSFont20n__Prop193
                        0x0804b294     0xc  Data  Gb  LS-Font20n_.o [1]
GUI_FontLSFont20n__Prop194
                        0x0804b288     0xc  Data  Gb  LS-Font20n_.o [1]
GUI_FontLSFont20n__Prop195
                        0x0804b27c     0xc  Data  Gb  LS-Font20n_.o [1]
GUI_FontLSFont20n__Prop196
                        0x0804b270     0xc  Data  Gb  LS-Font20n_.o [1]
GUI_FontLSFont20n__Prop197
                        0x0804b264     0xc  Data  Gb  LS-Font20n_.o [1]
GUI_FontLSFont20n__Prop198
                        0x0804b258     0xc  Data  Gb  LS-Font20n_.o [1]
GUI_FontLSFont20n__Prop199
                        0x0804b24c     0xc  Data  Gb  LS-Font20n_.o [1]
GUI_FontLSFont20n__Prop2
                        0x0804bb88     0xc  Data  Gb  LS-Font20n_.o [1]
GUI_FontLSFont20n__Prop20
                        0x0804bab0     0xc  Data  Gb  LS-Font20n_.o [1]
GUI_FontLSFont20n__Prop200
                        0x0804b240     0xc  Data  Gb  LS-Font20n_.o [1]
GUI_FontLSFont20n__Prop201
                        0x0804b234     0xc  Data  Gb  LS-Font20n_.o [1]
GUI_FontLSFont20n__Prop202
                        0x0804b228     0xc  Data  Gb  LS-Font20n_.o [1]
GUI_FontLSFont20n__Prop203
                        0x0804b21c     0xc  Data  Gb  LS-Font20n_.o [1]
GUI_FontLSFont20n__Prop204
                        0x0804b210     0xc  Data  Gb  LS-Font20n_.o [1]
GUI_FontLSFont20n__Prop205
                        0x0804b204     0xc  Data  Gb  LS-Font20n_.o [1]
GUI_FontLSFont20n__Prop206
                        0x0804b1f8     0xc  Data  Gb  LS-Font20n_.o [1]
GUI_FontLSFont20n__Prop207
                        0x0804b1ec     0xc  Data  Gb  LS-Font20n_.o [1]
GUI_FontLSFont20n__Prop208
                        0x0804b1e0     0xc  Data  Gb  LS-Font20n_.o [1]
GUI_FontLSFont20n__Prop209
                        0x0804b1d4     0xc  Data  Gb  LS-Font20n_.o [1]
GUI_FontLSFont20n__Prop21
                        0x0804baa4     0xc  Data  Gb  LS-Font20n_.o [1]
GUI_FontLSFont20n__Prop210
                        0x0804b1c8     0xc  Data  Gb  LS-Font20n_.o [1]
GUI_FontLSFont20n__Prop211
                        0x0804b1bc     0xc  Data  Gb  LS-Font20n_.o [1]
GUI_FontLSFont20n__Prop212
                        0x0804b1b0     0xc  Data  Gb  LS-Font20n_.o [1]
GUI_FontLSFont20n__Prop213
                        0x0804b1a4     0xc  Data  Gb  LS-Font20n_.o [1]
GUI_FontLSFont20n__Prop214
                        0x0804b198     0xc  Data  Gb  LS-Font20n_.o [1]
GUI_FontLSFont20n__Prop215
                        0x0804b18c     0xc  Data  Gb  LS-Font20n_.o [1]
GUI_FontLSFont20n__Prop216
                        0x0804b180     0xc  Data  Gb  LS-Font20n_.o [1]
GUI_FontLSFont20n__Prop217
                        0x0804b174     0xc  Data  Gb  LS-Font20n_.o [1]
GUI_FontLSFont20n__Prop218
                        0x0804b168     0xc  Data  Gb  LS-Font20n_.o [1]
GUI_FontLSFont20n__Prop219
                        0x0804b15c     0xc  Data  Gb  LS-Font20n_.o [1]
GUI_FontLSFont20n__Prop22
                        0x0804ba98     0xc  Data  Gb  LS-Font20n_.o [1]
GUI_FontLSFont20n__Prop220
                        0x0804b150     0xc  Data  Gb  LS-Font20n_.o [1]
GUI_FontLSFont20n__Prop221
                        0x0804b144     0xc  Data  Gb  LS-Font20n_.o [1]
GUI_FontLSFont20n__Prop222
                        0x0804b138     0xc  Data  Gb  LS-Font20n_.o [1]
GUI_FontLSFont20n__Prop223
                        0x0804b12c     0xc  Data  Gb  LS-Font20n_.o [1]
GUI_FontLSFont20n__Prop224
                        0x0804b120     0xc  Data  Gb  LS-Font20n_.o [1]
GUI_FontLSFont20n__Prop225
                        0x0804b114     0xc  Data  Gb  LS-Font20n_.o [1]
GUI_FontLSFont20n__Prop226
                        0x0804b108     0xc  Data  Gb  LS-Font20n_.o [1]
GUI_FontLSFont20n__Prop227
                        0x0804b0fc     0xc  Data  Gb  LS-Font20n_.o [1]
GUI_FontLSFont20n__Prop228
                        0x0804b0f0     0xc  Data  Gb  LS-Font20n_.o [1]
GUI_FontLSFont20n__Prop229
                        0x0804b0e4     0xc  Data  Gb  LS-Font20n_.o [1]
GUI_FontLSFont20n__Prop23
                        0x0804ba8c     0xc  Data  Gb  LS-Font20n_.o [1]
GUI_FontLSFont20n__Prop230
                        0x0804b0d8     0xc  Data  Gb  LS-Font20n_.o [1]
GUI_FontLSFont20n__Prop231
                        0x0804b0cc     0xc  Data  Gb  LS-Font20n_.o [1]
GUI_FontLSFont20n__Prop232
                        0x0804b0c0     0xc  Data  Gb  LS-Font20n_.o [1]
GUI_FontLSFont20n__Prop233
                        0x0804b0b4     0xc  Data  Gb  LS-Font20n_.o [1]
GUI_FontLSFont20n__Prop234
                        0x0804b0a8     0xc  Data  Gb  LS-Font20n_.o [1]
GUI_FontLSFont20n__Prop235
                        0x0804b09c     0xc  Data  Gb  LS-Font20n_.o [1]
GUI_FontLSFont20n__Prop236
                        0x0804b090     0xc  Data  Gb  LS-Font20n_.o [1]
GUI_FontLSFont20n__Prop237
                        0x0804b084     0xc  Data  Gb  LS-Font20n_.o [1]
GUI_FontLSFont20n__Prop238
                        0x0804b078     0xc  Data  Gb  LS-Font20n_.o [1]
GUI_FontLSFont20n__Prop239
                        0x0804b06c     0xc  Data  Gb  LS-Font20n_.o [1]
GUI_FontLSFont20n__Prop24
                        0x0804ba80     0xc  Data  Gb  LS-Font20n_.o [1]
GUI_FontLSFont20n__Prop240
                        0x0804b060     0xc  Data  Gb  LS-Font20n_.o [1]
GUI_FontLSFont20n__Prop241
                        0x0804b054     0xc  Data  Gb  LS-Font20n_.o [1]
GUI_FontLSFont20n__Prop242
                        0x0804b048     0xc  Data  Gb  LS-Font20n_.o [1]
GUI_FontLSFont20n__Prop243
                        0x0804b03c     0xc  Data  Gb  LS-Font20n_.o [1]
GUI_FontLSFont20n__Prop244
                        0x0804b030     0xc  Data  Gb  LS-Font20n_.o [1]
GUI_FontLSFont20n__Prop245
                        0x0804b024     0xc  Data  Gb  LS-Font20n_.o [1]
GUI_FontLSFont20n__Prop246
                        0x0804b018     0xc  Data  Gb  LS-Font20n_.o [1]
GUI_FontLSFont20n__Prop247
                        0x0804b00c     0xc  Data  Gb  LS-Font20n_.o [1]
GUI_FontLSFont20n__Prop248
                        0x0804b000     0xc  Data  Gb  LS-Font20n_.o [1]
GUI_FontLSFont20n__Prop249
                        0x0804aff4     0xc  Data  Gb  LS-Font20n_.o [1]
GUI_FontLSFont20n__Prop25
                        0x0804ba74     0xc  Data  Gb  LS-Font20n_.o [1]
GUI_FontLSFont20n__Prop250
                        0x0804afe8     0xc  Data  Gb  LS-Font20n_.o [1]
GUI_FontLSFont20n__Prop251
                        0x0804afdc     0xc  Data  Gb  LS-Font20n_.o [1]
GUI_FontLSFont20n__Prop252
                        0x0804afd0     0xc  Data  Gb  LS-Font20n_.o [1]
GUI_FontLSFont20n__Prop253
                        0x0804afc4     0xc  Data  Gb  LS-Font20n_.o [1]
GUI_FontLSFont20n__Prop254
                        0x0804afb8     0xc  Data  Gb  LS-Font20n_.o [1]
GUI_FontLSFont20n__Prop255
                        0x0804afac     0xc  Data  Gb  LS-Font20n_.o [1]
GUI_FontLSFont20n__Prop256
                        0x0804afa0     0xc  Data  Gb  LS-Font20n_.o [1]
GUI_FontLSFont20n__Prop257
                        0x0804af94     0xc  Data  Gb  LS-Font20n_.o [1]
GUI_FontLSFont20n__Prop258
                        0x0804af88     0xc  Data  Gb  LS-Font20n_.o [1]
GUI_FontLSFont20n__Prop259
                        0x0804af7c     0xc  Data  Gb  LS-Font20n_.o [1]
GUI_FontLSFont20n__Prop26
                        0x0804ba68     0xc  Data  Gb  LS-Font20n_.o [1]
GUI_FontLSFont20n__Prop260
                        0x0804af70     0xc  Data  Gb  LS-Font20n_.o [1]
GUI_FontLSFont20n__Prop261
                        0x0804af64     0xc  Data  Gb  LS-Font20n_.o [1]
GUI_FontLSFont20n__Prop262
                        0x0804af58     0xc  Data  Gb  LS-Font20n_.o [1]
GUI_FontLSFont20n__Prop263
                        0x0804af4c     0xc  Data  Gb  LS-Font20n_.o [1]
GUI_FontLSFont20n__Prop264
                        0x0804af40     0xc  Data  Gb  LS-Font20n_.o [1]
GUI_FontLSFont20n__Prop265
                        0x0804af34     0xc  Data  Gb  LS-Font20n_.o [1]
GUI_FontLSFont20n__Prop266
                        0x0804af28     0xc  Data  Gb  LS-Font20n_.o [1]
GUI_FontLSFont20n__Prop267
                        0x0804af1c     0xc  Data  Gb  LS-Font20n_.o [1]
GUI_FontLSFont20n__Prop268
                        0x0804af10     0xc  Data  Gb  LS-Font20n_.o [1]
GUI_FontLSFont20n__Prop269
                        0x0804af04     0xc  Data  Gb  LS-Font20n_.o [1]
GUI_FontLSFont20n__Prop27
                        0x0804ba5c     0xc  Data  Gb  LS-Font20n_.o [1]
GUI_FontLSFont20n__Prop270
                        0x0804aef8     0xc  Data  Gb  LS-Font20n_.o [1]
GUI_FontLSFont20n__Prop271
                        0x0804aeec     0xc  Data  Gb  LS-Font20n_.o [1]
GUI_FontLSFont20n__Prop272
                        0x0804aee0     0xc  Data  Gb  LS-Font20n_.o [1]
GUI_FontLSFont20n__Prop273
                        0x0804aed4     0xc  Data  Gb  LS-Font20n_.o [1]
GUI_FontLSFont20n__Prop274
                        0x0804aec8     0xc  Data  Gb  LS-Font20n_.o [1]
GUI_FontLSFont20n__Prop275
                        0x0804aebc     0xc  Data  Gb  LS-Font20n_.o [1]
GUI_FontLSFont20n__Prop276
                        0x0804aeb0     0xc  Data  Gb  LS-Font20n_.o [1]
GUI_FontLSFont20n__Prop277
                        0x0804aea4     0xc  Data  Gb  LS-Font20n_.o [1]
GUI_FontLSFont20n__Prop278
                        0x0804ae98     0xc  Data  Gb  LS-Font20n_.o [1]
GUI_FontLSFont20n__Prop279
                        0x0804ae8c     0xc  Data  Gb  LS-Font20n_.o [1]
GUI_FontLSFont20n__Prop28
                        0x0804ba50     0xc  Data  Gb  LS-Font20n_.o [1]
GUI_FontLSFont20n__Prop280
                        0x0804ae80     0xc  Data  Gb  LS-Font20n_.o [1]
GUI_FontLSFont20n__Prop281
                        0x0804ae74     0xc  Data  Gb  LS-Font20n_.o [1]
GUI_FontLSFont20n__Prop282
                        0x0804ae68     0xc  Data  Gb  LS-Font20n_.o [1]
GUI_FontLSFont20n__Prop283
                        0x0804ae5c     0xc  Data  Gb  LS-Font20n_.o [1]
GUI_FontLSFont20n__Prop284
                        0x0804ae50     0xc  Data  Gb  LS-Font20n_.o [1]
GUI_FontLSFont20n__Prop285
                        0x0804ae44     0xc  Data  Gb  LS-Font20n_.o [1]
GUI_FontLSFont20n__Prop286
                        0x0804ae38     0xc  Data  Gb  LS-Font20n_.o [1]
GUI_FontLSFont20n__Prop287
                        0x0804ae2c     0xc  Data  Gb  LS-Font20n_.o [1]
GUI_FontLSFont20n__Prop288
                        0x0804ae20     0xc  Data  Gb  LS-Font20n_.o [1]
GUI_FontLSFont20n__Prop289
                        0x0804ae14     0xc  Data  Gb  LS-Font20n_.o [1]
GUI_FontLSFont20n__Prop29
                        0x0804ba44     0xc  Data  Gb  LS-Font20n_.o [1]
GUI_FontLSFont20n__Prop290
                        0x0804ae08     0xc  Data  Gb  LS-Font20n_.o [1]
GUI_FontLSFont20n__Prop291
                        0x0804adfc     0xc  Data  Gb  LS-Font20n_.o [1]
GUI_FontLSFont20n__Prop292
                        0x0804adf0     0xc  Data  Gb  LS-Font20n_.o [1]
GUI_FontLSFont20n__Prop293
                        0x0804ade4     0xc  Data  Gb  LS-Font20n_.o [1]
GUI_FontLSFont20n__Prop294
                        0x0804add8     0xc  Data  Gb  LS-Font20n_.o [1]
GUI_FontLSFont20n__Prop295
                        0x0804adcc     0xc  Data  Gb  LS-Font20n_.o [1]
GUI_FontLSFont20n__Prop296
                        0x0804adc0     0xc  Data  Gb  LS-Font20n_.o [1]
GUI_FontLSFont20n__Prop297
                        0x0804adb4     0xc  Data  Gb  LS-Font20n_.o [1]
GUI_FontLSFont20n__Prop298
                        0x0804ada8     0xc  Data  Gb  LS-Font20n_.o [1]
GUI_FontLSFont20n__Prop299
                        0x0804ad9c     0xc  Data  Gb  LS-Font20n_.o [1]
GUI_FontLSFont20n__Prop3
                        0x0804bb7c     0xc  Data  Gb  LS-Font20n_.o [1]
GUI_FontLSFont20n__Prop30
                        0x0804ba38     0xc  Data  Gb  LS-Font20n_.o [1]
GUI_FontLSFont20n__Prop300
                        0x0804ad90     0xc  Data  Gb  LS-Font20n_.o [1]
GUI_FontLSFont20n__Prop301
                        0x0804ad84     0xc  Data  Gb  LS-Font20n_.o [1]
GUI_FontLSFont20n__Prop302
                        0x0804ad78     0xc  Data  Gb  LS-Font20n_.o [1]
GUI_FontLSFont20n__Prop303
                        0x0804ad6c     0xc  Data  Gb  LS-Font20n_.o [1]
GUI_FontLSFont20n__Prop304
                        0x0804ad60     0xc  Data  Gb  LS-Font20n_.o [1]
GUI_FontLSFont20n__Prop305
                        0x0804ad54     0xc  Data  Gb  LS-Font20n_.o [1]
GUI_FontLSFont20n__Prop306
                        0x0804ad48     0xc  Data  Gb  LS-Font20n_.o [1]
GUI_FontLSFont20n__Prop307
                        0x0804ad3c     0xc  Data  Gb  LS-Font20n_.o [1]
GUI_FontLSFont20n__Prop308
                        0x0804ad30     0xc  Data  Gb  LS-Font20n_.o [1]
GUI_FontLSFont20n__Prop309
                        0x0804ad24     0xc  Data  Gb  LS-Font20n_.o [1]
GUI_FontLSFont20n__Prop31
                        0x0804ba2c     0xc  Data  Gb  LS-Font20n_.o [1]
GUI_FontLSFont20n__Prop310
                        0x0804ad18     0xc  Data  Gb  LS-Font20n_.o [1]
GUI_FontLSFont20n__Prop311
                        0x0804ad0c     0xc  Data  Gb  LS-Font20n_.o [1]
GUI_FontLSFont20n__Prop312
                        0x0804ad00     0xc  Data  Gb  LS-Font20n_.o [1]
GUI_FontLSFont20n__Prop313
                        0x0804acf4     0xc  Data  Gb  LS-Font20n_.o [1]
GUI_FontLSFont20n__Prop314
                        0x0804ace8     0xc  Data  Gb  LS-Font20n_.o [1]
GUI_FontLSFont20n__Prop315
                        0x0804acdc     0xc  Data  Gb  LS-Font20n_.o [1]
GUI_FontLSFont20n__Prop316
                        0x0804acd0     0xc  Data  Gb  LS-Font20n_.o [1]
GUI_FontLSFont20n__Prop317
                        0x0804acc4     0xc  Data  Gb  LS-Font20n_.o [1]
GUI_FontLSFont20n__Prop318
                        0x0804acb8     0xc  Data  Gb  LS-Font20n_.o [1]
GUI_FontLSFont20n__Prop319
                        0x0804acac     0xc  Data  Gb  LS-Font20n_.o [1]
GUI_FontLSFont20n__Prop32
                        0x0804ba20     0xc  Data  Gb  LS-Font20n_.o [1]
GUI_FontLSFont20n__Prop320
                        0x0804aca0     0xc  Data  Gb  LS-Font20n_.o [1]
GUI_FontLSFont20n__Prop321
                        0x0804ac94     0xc  Data  Gb  LS-Font20n_.o [1]
GUI_FontLSFont20n__Prop322
                        0x0804ac88     0xc  Data  Gb  LS-Font20n_.o [1]
GUI_FontLSFont20n__Prop323
                        0x0804ac7c     0xc  Data  Gb  LS-Font20n_.o [1]
GUI_FontLSFont20n__Prop324
                        0x0804ac70     0xc  Data  Gb  LS-Font20n_.o [1]
GUI_FontLSFont20n__Prop325
                        0x0804ac64     0xc  Data  Gb  LS-Font20n_.o [1]
GUI_FontLSFont20n__Prop326
                        0x0804ac58     0xc  Data  Gb  LS-Font20n_.o [1]
GUI_FontLSFont20n__Prop327
                        0x0804ac4c     0xc  Data  Gb  LS-Font20n_.o [1]
GUI_FontLSFont20n__Prop328
                        0x0804ac40     0xc  Data  Gb  LS-Font20n_.o [1]
GUI_FontLSFont20n__Prop329
                        0x0804ac34     0xc  Data  Gb  LS-Font20n_.o [1]
GUI_FontLSFont20n__Prop33
                        0x0804ba14     0xc  Data  Gb  LS-Font20n_.o [1]
GUI_FontLSFont20n__Prop330
                        0x0804ac28     0xc  Data  Gb  LS-Font20n_.o [1]
GUI_FontLSFont20n__Prop331
                        0x0804ac1c     0xc  Data  Gb  LS-Font20n_.o [1]
GUI_FontLSFont20n__Prop332
                        0x0804ac10     0xc  Data  Gb  LS-Font20n_.o [1]
GUI_FontLSFont20n__Prop333
                        0x0804ac04     0xc  Data  Gb  LS-Font20n_.o [1]
GUI_FontLSFont20n__Prop334
                        0x0804abf8     0xc  Data  Gb  LS-Font20n_.o [1]
GUI_FontLSFont20n__Prop335
                        0x0804abec     0xc  Data  Gb  LS-Font20n_.o [1]
GUI_FontLSFont20n__Prop336
                        0x0804abe0     0xc  Data  Gb  LS-Font20n_.o [1]
GUI_FontLSFont20n__Prop337
                        0x0804abd4     0xc  Data  Gb  LS-Font20n_.o [1]
GUI_FontLSFont20n__Prop338
                        0x0804abc8     0xc  Data  Gb  LS-Font20n_.o [1]
GUI_FontLSFont20n__Prop339
                        0x0804abbc     0xc  Data  Gb  LS-Font20n_.o [1]
GUI_FontLSFont20n__Prop34
                        0x0804ba08     0xc  Data  Gb  LS-Font20n_.o [1]
GUI_FontLSFont20n__Prop340
                        0x0804abb0     0xc  Data  Gb  LS-Font20n_.o [1]
GUI_FontLSFont20n__Prop341
                        0x0804aba4     0xc  Data  Gb  LS-Font20n_.o [1]
GUI_FontLSFont20n__Prop342
                        0x0804ab98     0xc  Data  Gb  LS-Font20n_.o [1]
GUI_FontLSFont20n__Prop343
                        0x0804ab8c     0xc  Data  Gb  LS-Font20n_.o [1]
GUI_FontLSFont20n__Prop344
                        0x0804ab80     0xc  Data  Gb  LS-Font20n_.o [1]
GUI_FontLSFont20n__Prop345
                        0x0804ab74     0xc  Data  Gb  LS-Font20n_.o [1]
GUI_FontLSFont20n__Prop346
                        0x0804ab68     0xc  Data  Gb  LS-Font20n_.o [1]
GUI_FontLSFont20n__Prop347
                        0x0804ab5c     0xc  Data  Gb  LS-Font20n_.o [1]
GUI_FontLSFont20n__Prop348
                        0x0804ab50     0xc  Data  Gb  LS-Font20n_.o [1]
GUI_FontLSFont20n__Prop349
                        0x0804ab44     0xc  Data  Gb  LS-Font20n_.o [1]
GUI_FontLSFont20n__Prop35
                        0x0804b9fc     0xc  Data  Gb  LS-Font20n_.o [1]
GUI_FontLSFont20n__Prop350
                        0x0804ab38     0xc  Data  Gb  LS-Font20n_.o [1]
GUI_FontLSFont20n__Prop351
                        0x0804ab2c     0xc  Data  Gb  LS-Font20n_.o [1]
GUI_FontLSFont20n__Prop352
                        0x0804ab20     0xc  Data  Gb  LS-Font20n_.o [1]
GUI_FontLSFont20n__Prop353
                        0x0804ab14     0xc  Data  Gb  LS-Font20n_.o [1]
GUI_FontLSFont20n__Prop354
                        0x0804ab08     0xc  Data  Gb  LS-Font20n_.o [1]
GUI_FontLSFont20n__Prop355
                        0x0804aafc     0xc  Data  Gb  LS-Font20n_.o [1]
GUI_FontLSFont20n__Prop356
                        0x0804aaf0     0xc  Data  Gb  LS-Font20n_.o [1]
GUI_FontLSFont20n__Prop357
                        0x0804aae4     0xc  Data  Gb  LS-Font20n_.o [1]
GUI_FontLSFont20n__Prop358
                        0x0804aad8     0xc  Data  Gb  LS-Font20n_.o [1]
GUI_FontLSFont20n__Prop359
                        0x0804aacc     0xc  Data  Gb  LS-Font20n_.o [1]
GUI_FontLSFont20n__Prop36
                        0x0804b9f0     0xc  Data  Gb  LS-Font20n_.o [1]
GUI_FontLSFont20n__Prop360
                        0x0804aac0     0xc  Data  Gb  LS-Font20n_.o [1]
GUI_FontLSFont20n__Prop361
                        0x0804aab4     0xc  Data  Gb  LS-Font20n_.o [1]
GUI_FontLSFont20n__Prop362
                        0x0804aaa8     0xc  Data  Gb  LS-Font20n_.o [1]
GUI_FontLSFont20n__Prop363
                        0x0804aa9c     0xc  Data  Gb  LS-Font20n_.o [1]
GUI_FontLSFont20n__Prop364
                        0x0804aa90     0xc  Data  Gb  LS-Font20n_.o [1]
GUI_FontLSFont20n__Prop365
                        0x0804aa84     0xc  Data  Gb  LS-Font20n_.o [1]
GUI_FontLSFont20n__Prop366
                        0x0804aa78     0xc  Data  Gb  LS-Font20n_.o [1]
GUI_FontLSFont20n__Prop367
                        0x0804aa6c     0xc  Data  Gb  LS-Font20n_.o [1]
GUI_FontLSFont20n__Prop368
                        0x0804aa60     0xc  Data  Gb  LS-Font20n_.o [1]
GUI_FontLSFont20n__Prop369
                        0x0804aa54     0xc  Data  Gb  LS-Font20n_.o [1]
GUI_FontLSFont20n__Prop37
                        0x0804b9e4     0xc  Data  Gb  LS-Font20n_.o [1]
GUI_FontLSFont20n__Prop370
                        0x0804aa48     0xc  Data  Gb  LS-Font20n_.o [1]
GUI_FontLSFont20n__Prop371
                        0x0804aa3c     0xc  Data  Gb  LS-Font20n_.o [1]
GUI_FontLSFont20n__Prop372
                        0x0804aa30     0xc  Data  Gb  LS-Font20n_.o [1]
GUI_FontLSFont20n__Prop373
                        0x0804aa24     0xc  Data  Gb  LS-Font20n_.o [1]
GUI_FontLSFont20n__Prop374
                        0x0804aa18     0xc  Data  Gb  LS-Font20n_.o [1]
GUI_FontLSFont20n__Prop375
                        0x0804aa0c     0xc  Data  Gb  LS-Font20n_.o [1]
GUI_FontLSFont20n__Prop376
                        0x0804aa00     0xc  Data  Gb  LS-Font20n_.o [1]
GUI_FontLSFont20n__Prop377
                        0x0804a9f4     0xc  Data  Gb  LS-Font20n_.o [1]
GUI_FontLSFont20n__Prop378
                        0x0804a9e8     0xc  Data  Gb  LS-Font20n_.o [1]
GUI_FontLSFont20n__Prop379
                        0x0804a9dc     0xc  Data  Gb  LS-Font20n_.o [1]
GUI_FontLSFont20n__Prop38
                        0x0804b9d8     0xc  Data  Gb  LS-Font20n_.o [1]
GUI_FontLSFont20n__Prop380
                        0x0804a9d0     0xc  Data  Gb  LS-Font20n_.o [1]
GUI_FontLSFont20n__Prop381
                        0x0804a9c4     0xc  Data  Gb  LS-Font20n_.o [1]
GUI_FontLSFont20n__Prop382
                        0x0804a9b8     0xc  Data  Gb  LS-Font20n_.o [1]
GUI_FontLSFont20n__Prop383
                        0x0804a9ac     0xc  Data  Gb  LS-Font20n_.o [1]
GUI_FontLSFont20n__Prop384
                        0x0804a9a0     0xc  Data  Gb  LS-Font20n_.o [1]
GUI_FontLSFont20n__Prop385
                        0x0804a994     0xc  Data  Gb  LS-Font20n_.o [1]
GUI_FontLSFont20n__Prop386
                        0x0804a988     0xc  Data  Gb  LS-Font20n_.o [1]
GUI_FontLSFont20n__Prop387
                        0x0804a97c     0xc  Data  Gb  LS-Font20n_.o [1]
GUI_FontLSFont20n__Prop388
                        0x0804a970     0xc  Data  Gb  LS-Font20n_.o [1]
GUI_FontLSFont20n__Prop389
                        0x0804a964     0xc  Data  Gb  LS-Font20n_.o [1]
GUI_FontLSFont20n__Prop39
                        0x0804b9cc     0xc  Data  Gb  LS-Font20n_.o [1]
GUI_FontLSFont20n__Prop390
                        0x0804a958     0xc  Data  Gb  LS-Font20n_.o [1]
GUI_FontLSFont20n__Prop391
                        0x0804a94c     0xc  Data  Gb  LS-Font20n_.o [1]
GUI_FontLSFont20n__Prop392
                        0x0804a940     0xc  Data  Gb  LS-Font20n_.o [1]
GUI_FontLSFont20n__Prop393
                        0x0804a934     0xc  Data  Gb  LS-Font20n_.o [1]
GUI_FontLSFont20n__Prop394
                        0x0804a928     0xc  Data  Gb  LS-Font20n_.o [1]
GUI_FontLSFont20n__Prop395
                        0x0804a91c     0xc  Data  Gb  LS-Font20n_.o [1]
GUI_FontLSFont20n__Prop396
                        0x0804a910     0xc  Data  Gb  LS-Font20n_.o [1]
GUI_FontLSFont20n__Prop4
                        0x0804bb70     0xc  Data  Gb  LS-Font20n_.o [1]
GUI_FontLSFont20n__Prop40
                        0x0804b9c0     0xc  Data  Gb  LS-Font20n_.o [1]
GUI_FontLSFont20n__Prop41
                        0x0804b9b4     0xc  Data  Gb  LS-Font20n_.o [1]
GUI_FontLSFont20n__Prop42
                        0x0804b9a8     0xc  Data  Gb  LS-Font20n_.o [1]
GUI_FontLSFont20n__Prop43
                        0x0804b99c     0xc  Data  Gb  LS-Font20n_.o [1]
GUI_FontLSFont20n__Prop44
                        0x0804b990     0xc  Data  Gb  LS-Font20n_.o [1]
GUI_FontLSFont20n__Prop45
                        0x0804b984     0xc  Data  Gb  LS-Font20n_.o [1]
GUI_FontLSFont20n__Prop46
                        0x0804b978     0xc  Data  Gb  LS-Font20n_.o [1]
GUI_FontLSFont20n__Prop47
                        0x0804b96c     0xc  Data  Gb  LS-Font20n_.o [1]
GUI_FontLSFont20n__Prop48
                        0x0804b960     0xc  Data  Gb  LS-Font20n_.o [1]
GUI_FontLSFont20n__Prop49
                        0x0804b954     0xc  Data  Gb  LS-Font20n_.o [1]
GUI_FontLSFont20n__Prop5
                        0x0804bb64     0xc  Data  Gb  LS-Font20n_.o [1]
GUI_FontLSFont20n__Prop50
                        0x0804b948     0xc  Data  Gb  LS-Font20n_.o [1]
GUI_FontLSFont20n__Prop51
                        0x0804b93c     0xc  Data  Gb  LS-Font20n_.o [1]
GUI_FontLSFont20n__Prop52
                        0x0804b930     0xc  Data  Gb  LS-Font20n_.o [1]
GUI_FontLSFont20n__Prop53
                        0x0804b924     0xc  Data  Gb  LS-Font20n_.o [1]
GUI_FontLSFont20n__Prop54
                        0x0804b918     0xc  Data  Gb  LS-Font20n_.o [1]
GUI_FontLSFont20n__Prop55
                        0x0804b90c     0xc  Data  Gb  LS-Font20n_.o [1]
GUI_FontLSFont20n__Prop56
                        0x0804b900     0xc  Data  Gb  LS-Font20n_.o [1]
GUI_FontLSFont20n__Prop57
                        0x0804b8f4     0xc  Data  Gb  LS-Font20n_.o [1]
GUI_FontLSFont20n__Prop58
                        0x0804b8e8     0xc  Data  Gb  LS-Font20n_.o [1]
GUI_FontLSFont20n__Prop59
                        0x0804b8dc     0xc  Data  Gb  LS-Font20n_.o [1]
GUI_FontLSFont20n__Prop6
                        0x0804bb58     0xc  Data  Gb  LS-Font20n_.o [1]
GUI_FontLSFont20n__Prop60
                        0x0804b8d0     0xc  Data  Gb  LS-Font20n_.o [1]
GUI_FontLSFont20n__Prop61
                        0x0804b8c4     0xc  Data  Gb  LS-Font20n_.o [1]
GUI_FontLSFont20n__Prop62
                        0x0804b8b8     0xc  Data  Gb  LS-Font20n_.o [1]
GUI_FontLSFont20n__Prop63
                        0x0804b8ac     0xc  Data  Gb  LS-Font20n_.o [1]
GUI_FontLSFont20n__Prop64
                        0x0804b8a0     0xc  Data  Gb  LS-Font20n_.o [1]
GUI_FontLSFont20n__Prop65
                        0x0804b894     0xc  Data  Gb  LS-Font20n_.o [1]
GUI_FontLSFont20n__Prop66
                        0x0804b888     0xc  Data  Gb  LS-Font20n_.o [1]
GUI_FontLSFont20n__Prop67
                        0x0804b87c     0xc  Data  Gb  LS-Font20n_.o [1]
GUI_FontLSFont20n__Prop68
                        0x0804b870     0xc  Data  Gb  LS-Font20n_.o [1]
GUI_FontLSFont20n__Prop69
                        0x0804b864     0xc  Data  Gb  LS-Font20n_.o [1]
GUI_FontLSFont20n__Prop7
                        0x0804bb4c     0xc  Data  Gb  LS-Font20n_.o [1]
GUI_FontLSFont20n__Prop70
                        0x0804b858     0xc  Data  Gb  LS-Font20n_.o [1]
GUI_FontLSFont20n__Prop71
                        0x0804b84c     0xc  Data  Gb  LS-Font20n_.o [1]
GUI_FontLSFont20n__Prop72
                        0x0804b840     0xc  Data  Gb  LS-Font20n_.o [1]
GUI_FontLSFont20n__Prop73
                        0x0804b834     0xc  Data  Gb  LS-Font20n_.o [1]
GUI_FontLSFont20n__Prop74
                        0x0804b828     0xc  Data  Gb  LS-Font20n_.o [1]
GUI_FontLSFont20n__Prop75
                        0x0804b81c     0xc  Data  Gb  LS-Font20n_.o [1]
GUI_FontLSFont20n__Prop76
                        0x0804b810     0xc  Data  Gb  LS-Font20n_.o [1]
GUI_FontLSFont20n__Prop77
                        0x0804b804     0xc  Data  Gb  LS-Font20n_.o [1]
GUI_FontLSFont20n__Prop78
                        0x0804b7f8     0xc  Data  Gb  LS-Font20n_.o [1]
GUI_FontLSFont20n__Prop79
                        0x0804b7ec     0xc  Data  Gb  LS-Font20n_.o [1]
GUI_FontLSFont20n__Prop8
                        0x0804bb40     0xc  Data  Gb  LS-Font20n_.o [1]
GUI_FontLSFont20n__Prop80
                        0x0804b7e0     0xc  Data  Gb  LS-Font20n_.o [1]
GUI_FontLSFont20n__Prop81
                        0x0804b7d4     0xc  Data  Gb  LS-Font20n_.o [1]
GUI_FontLSFont20n__Prop82
                        0x0804b7c8     0xc  Data  Gb  LS-Font20n_.o [1]
GUI_FontLSFont20n__Prop83
                        0x0804b7bc     0xc  Data  Gb  LS-Font20n_.o [1]
GUI_FontLSFont20n__Prop84
                        0x0804b7b0     0xc  Data  Gb  LS-Font20n_.o [1]
GUI_FontLSFont20n__Prop85
                        0x0804b7a4     0xc  Data  Gb  LS-Font20n_.o [1]
GUI_FontLSFont20n__Prop86
                        0x0804b798     0xc  Data  Gb  LS-Font20n_.o [1]
GUI_FontLSFont20n__Prop87
                        0x0804b78c     0xc  Data  Gb  LS-Font20n_.o [1]
GUI_FontLSFont20n__Prop88
                        0x0804b780     0xc  Data  Gb  LS-Font20n_.o [1]
GUI_FontLSFont20n__Prop89
                        0x0804b774     0xc  Data  Gb  LS-Font20n_.o [1]
GUI_FontLSFont20n__Prop9
                        0x0804bb34     0xc  Data  Gb  LS-Font20n_.o [1]
GUI_FontLSFont20n__Prop90
                        0x0804b768     0xc  Data  Gb  LS-Font20n_.o [1]
GUI_FontLSFont20n__Prop91
                        0x0804b75c     0xc  Data  Gb  LS-Font20n_.o [1]
GUI_FontLSFont20n__Prop92
                        0x0804b750     0xc  Data  Gb  LS-Font20n_.o [1]
GUI_FontLSFont20n__Prop93
                        0x0804b744     0xc  Data  Gb  LS-Font20n_.o [1]
GUI_FontLSFont20n__Prop94
                        0x0804b738     0xc  Data  Gb  LS-Font20n_.o [1]
GUI_FontLSFont20n__Prop95
                        0x0804b72c     0xc  Data  Gb  LS-Font20n_.o [1]
GUI_FontLSFont20n__Prop96
                        0x0804b720     0xc  Data  Gb  LS-Font20n_.o [1]
GUI_FontLSFont20n__Prop97
                        0x0804b714     0xc  Data  Gb  LS-Font20n_.o [1]
GUI_FontLSFont20n__Prop98
                        0x0804b708     0xc  Data  Gb  LS-Font20n_.o [1]
GUI_FontLSFont20n__Prop99
                        0x0804b6fc     0xc  Data  Gb  LS-Font20n_.o [1]
GUI_FontLSfont16_       0x0805aca0    0x24  Data  Gb  LS-font16_.o [1]
GUI_FontLSfont16__CharInfo
                        0x08058108  0x1914  Data  Gb  LS-font16_.o [1]
GUI_FontLSfont16__Prop1
                        0x0805ac94     0xc  Data  Gb  LS-font16_.o [1]
GUI_FontLSfont16__Prop10
                        0x0805ac28     0xc  Data  Gb  LS-font16_.o [1]
GUI_FontLSfont16__Prop100
                        0x0805a7f0     0xc  Data  Gb  LS-font16_.o [1]
GUI_FontLSfont16__Prop101
                        0x0805a7e4     0xc  Data  Gb  LS-font16_.o [1]
GUI_FontLSfont16__Prop102
                        0x0805a7d8     0xc  Data  Gb  LS-font16_.o [1]
GUI_FontLSfont16__Prop103
                        0x0805a7cc     0xc  Data  Gb  LS-font16_.o [1]
GUI_FontLSfont16__Prop104
                        0x0805a7c0     0xc  Data  Gb  LS-font16_.o [1]
GUI_FontLSfont16__Prop105
                        0x0805a7b4     0xc  Data  Gb  LS-font16_.o [1]
GUI_FontLSfont16__Prop106
                        0x0805a7a8     0xc  Data  Gb  LS-font16_.o [1]
GUI_FontLSfont16__Prop107
                        0x0805a79c     0xc  Data  Gb  LS-font16_.o [1]
GUI_FontLSfont16__Prop108
                        0x0805a790     0xc  Data  Gb  LS-font16_.o [1]
GUI_FontLSfont16__Prop109
                        0x0805a784     0xc  Data  Gb  LS-font16_.o [1]
GUI_FontLSfont16__Prop11
                        0x0805ac1c     0xc  Data  Gb  LS-font16_.o [1]
GUI_FontLSfont16__Prop110
                        0x0805a778     0xc  Data  Gb  LS-font16_.o [1]
GUI_FontLSfont16__Prop111
                        0x0805a76c     0xc  Data  Gb  LS-font16_.o [1]
GUI_FontLSfont16__Prop112
                        0x0805a760     0xc  Data  Gb  LS-font16_.o [1]
GUI_FontLSfont16__Prop113
                        0x0805a754     0xc  Data  Gb  LS-font16_.o [1]
GUI_FontLSfont16__Prop114
                        0x0805a748     0xc  Data  Gb  LS-font16_.o [1]
GUI_FontLSfont16__Prop115
                        0x0805a73c     0xc  Data  Gb  LS-font16_.o [1]
GUI_FontLSfont16__Prop116
                        0x0805a730     0xc  Data  Gb  LS-font16_.o [1]
GUI_FontLSfont16__Prop117
                        0x0805a724     0xc  Data  Gb  LS-font16_.o [1]
GUI_FontLSfont16__Prop118
                        0x0805a718     0xc  Data  Gb  LS-font16_.o [1]
GUI_FontLSfont16__Prop119
                        0x0805a70c     0xc  Data  Gb  LS-font16_.o [1]
GUI_FontLSfont16__Prop12
                        0x0805ac10     0xc  Data  Gb  LS-font16_.o [1]
GUI_FontLSfont16__Prop120
                        0x0805a700     0xc  Data  Gb  LS-font16_.o [1]
GUI_FontLSfont16__Prop121
                        0x0805a6f4     0xc  Data  Gb  LS-font16_.o [1]
GUI_FontLSfont16__Prop122
                        0x0805a6e8     0xc  Data  Gb  LS-font16_.o [1]
GUI_FontLSfont16__Prop123
                        0x0805a6dc     0xc  Data  Gb  LS-font16_.o [1]
GUI_FontLSfont16__Prop124
                        0x0805a6d0     0xc  Data  Gb  LS-font16_.o [1]
GUI_FontLSfont16__Prop125
                        0x0805a6c4     0xc  Data  Gb  LS-font16_.o [1]
GUI_FontLSfont16__Prop126
                        0x0805a6b8     0xc  Data  Gb  LS-font16_.o [1]
GUI_FontLSfont16__Prop127
                        0x0805a6ac     0xc  Data  Gb  LS-font16_.o [1]
GUI_FontLSfont16__Prop128
                        0x0805a6a0     0xc  Data  Gb  LS-font16_.o [1]
GUI_FontLSfont16__Prop129
                        0x0805a694     0xc  Data  Gb  LS-font16_.o [1]
GUI_FontLSfont16__Prop13
                        0x0805ac04     0xc  Data  Gb  LS-font16_.o [1]
GUI_FontLSfont16__Prop130
                        0x0805a688     0xc  Data  Gb  LS-font16_.o [1]
GUI_FontLSfont16__Prop131
                        0x0805a67c     0xc  Data  Gb  LS-font16_.o [1]
GUI_FontLSfont16__Prop132
                        0x0805a670     0xc  Data  Gb  LS-font16_.o [1]
GUI_FontLSfont16__Prop133
                        0x0805a664     0xc  Data  Gb  LS-font16_.o [1]
GUI_FontLSfont16__Prop134
                        0x0805a658     0xc  Data  Gb  LS-font16_.o [1]
GUI_FontLSfont16__Prop135
                        0x0805a64c     0xc  Data  Gb  LS-font16_.o [1]
GUI_FontLSfont16__Prop136
                        0x0805a640     0xc  Data  Gb  LS-font16_.o [1]
GUI_FontLSfont16__Prop137
                        0x0805a634     0xc  Data  Gb  LS-font16_.o [1]
GUI_FontLSfont16__Prop138
                        0x0805a628     0xc  Data  Gb  LS-font16_.o [1]
GUI_FontLSfont16__Prop139
                        0x0805a61c     0xc  Data  Gb  LS-font16_.o [1]
GUI_FontLSfont16__Prop14
                        0x0805abf8     0xc  Data  Gb  LS-font16_.o [1]
GUI_FontLSfont16__Prop140
                        0x0805a610     0xc  Data  Gb  LS-font16_.o [1]
GUI_FontLSfont16__Prop141
                        0x0805a604     0xc  Data  Gb  LS-font16_.o [1]
GUI_FontLSfont16__Prop142
                        0x0805a5f8     0xc  Data  Gb  LS-font16_.o [1]
GUI_FontLSfont16__Prop143
                        0x0805a5ec     0xc  Data  Gb  LS-font16_.o [1]
GUI_FontLSfont16__Prop144
                        0x0805a5e0     0xc  Data  Gb  LS-font16_.o [1]
GUI_FontLSfont16__Prop145
                        0x0805a5d4     0xc  Data  Gb  LS-font16_.o [1]
GUI_FontLSfont16__Prop146
                        0x0805a5c8     0xc  Data  Gb  LS-font16_.o [1]
GUI_FontLSfont16__Prop147
                        0x0805a5bc     0xc  Data  Gb  LS-font16_.o [1]
GUI_FontLSfont16__Prop148
                        0x0805a5b0     0xc  Data  Gb  LS-font16_.o [1]
GUI_FontLSfont16__Prop149
                        0x0805a5a4     0xc  Data  Gb  LS-font16_.o [1]
GUI_FontLSfont16__Prop15
                        0x0805abec     0xc  Data  Gb  LS-font16_.o [1]
GUI_FontLSfont16__Prop150
                        0x0805a598     0xc  Data  Gb  LS-font16_.o [1]
GUI_FontLSfont16__Prop151
                        0x0805a58c     0xc  Data  Gb  LS-font16_.o [1]
GUI_FontLSfont16__Prop152
                        0x0805a580     0xc  Data  Gb  LS-font16_.o [1]
GUI_FontLSfont16__Prop153
                        0x0805a574     0xc  Data  Gb  LS-font16_.o [1]
GUI_FontLSfont16__Prop154
                        0x0805a568     0xc  Data  Gb  LS-font16_.o [1]
GUI_FontLSfont16__Prop155
                        0x0805a55c     0xc  Data  Gb  LS-font16_.o [1]
GUI_FontLSfont16__Prop156
                        0x0805a550     0xc  Data  Gb  LS-font16_.o [1]
GUI_FontLSfont16__Prop157
                        0x0805a544     0xc  Data  Gb  LS-font16_.o [1]
GUI_FontLSfont16__Prop158
                        0x0805a538     0xc  Data  Gb  LS-font16_.o [1]
GUI_FontLSfont16__Prop159
                        0x0805a52c     0xc  Data  Gb  LS-font16_.o [1]
GUI_FontLSfont16__Prop16
                        0x0805abe0     0xc  Data  Gb  LS-font16_.o [1]
GUI_FontLSfont16__Prop160
                        0x0805a520     0xc  Data  Gb  LS-font16_.o [1]
GUI_FontLSfont16__Prop161
                        0x0805a514     0xc  Data  Gb  LS-font16_.o [1]
GUI_FontLSfont16__Prop162
                        0x0805a508     0xc  Data  Gb  LS-font16_.o [1]
GUI_FontLSfont16__Prop163
                        0x0805a4fc     0xc  Data  Gb  LS-font16_.o [1]
GUI_FontLSfont16__Prop164
                        0x0805a4f0     0xc  Data  Gb  LS-font16_.o [1]
GUI_FontLSfont16__Prop165
                        0x0805a4e4     0xc  Data  Gb  LS-font16_.o [1]
GUI_FontLSfont16__Prop166
                        0x0805a4d8     0xc  Data  Gb  LS-font16_.o [1]
GUI_FontLSfont16__Prop167
                        0x0805a4cc     0xc  Data  Gb  LS-font16_.o [1]
GUI_FontLSfont16__Prop168
                        0x0805a4c0     0xc  Data  Gb  LS-font16_.o [1]
GUI_FontLSfont16__Prop169
                        0x0805a4b4     0xc  Data  Gb  LS-font16_.o [1]
GUI_FontLSfont16__Prop17
                        0x0805abd4     0xc  Data  Gb  LS-font16_.o [1]
GUI_FontLSfont16__Prop170
                        0x0805a4a8     0xc  Data  Gb  LS-font16_.o [1]
GUI_FontLSfont16__Prop171
                        0x0805a49c     0xc  Data  Gb  LS-font16_.o [1]
GUI_FontLSfont16__Prop172
                        0x0805a490     0xc  Data  Gb  LS-font16_.o [1]
GUI_FontLSfont16__Prop173
                        0x0805a484     0xc  Data  Gb  LS-font16_.o [1]
GUI_FontLSfont16__Prop174
                        0x0805a478     0xc  Data  Gb  LS-font16_.o [1]
GUI_FontLSfont16__Prop175
                        0x0805a46c     0xc  Data  Gb  LS-font16_.o [1]
GUI_FontLSfont16__Prop176
                        0x0805a460     0xc  Data  Gb  LS-font16_.o [1]
GUI_FontLSfont16__Prop177
                        0x0805a454     0xc  Data  Gb  LS-font16_.o [1]
GUI_FontLSfont16__Prop178
                        0x0805a448     0xc  Data  Gb  LS-font16_.o [1]
GUI_FontLSfont16__Prop179
                        0x0805a43c     0xc  Data  Gb  LS-font16_.o [1]
GUI_FontLSfont16__Prop18
                        0x0805abc8     0xc  Data  Gb  LS-font16_.o [1]
GUI_FontLSfont16__Prop180
                        0x0805a430     0xc  Data  Gb  LS-font16_.o [1]
GUI_FontLSfont16__Prop181
                        0x0805a424     0xc  Data  Gb  LS-font16_.o [1]
GUI_FontLSfont16__Prop182
                        0x0805a418     0xc  Data  Gb  LS-font16_.o [1]
GUI_FontLSfont16__Prop183
                        0x0805a40c     0xc  Data  Gb  LS-font16_.o [1]
GUI_FontLSfont16__Prop184
                        0x0805a400     0xc  Data  Gb  LS-font16_.o [1]
GUI_FontLSfont16__Prop185
                        0x0805a3f4     0xc  Data  Gb  LS-font16_.o [1]
GUI_FontLSfont16__Prop186
                        0x0805a3e8     0xc  Data  Gb  LS-font16_.o [1]
GUI_FontLSfont16__Prop187
                        0x0805a3dc     0xc  Data  Gb  LS-font16_.o [1]
GUI_FontLSfont16__Prop188
                        0x0805a3d0     0xc  Data  Gb  LS-font16_.o [1]
GUI_FontLSfont16__Prop189
                        0x0805a3c4     0xc  Data  Gb  LS-font16_.o [1]
GUI_FontLSfont16__Prop19
                        0x0805abbc     0xc  Data  Gb  LS-font16_.o [1]
GUI_FontLSfont16__Prop190
                        0x0805a3b8     0xc  Data  Gb  LS-font16_.o [1]
GUI_FontLSfont16__Prop191
                        0x0805a3ac     0xc  Data  Gb  LS-font16_.o [1]
GUI_FontLSfont16__Prop192
                        0x0805a3a0     0xc  Data  Gb  LS-font16_.o [1]
GUI_FontLSfont16__Prop193
                        0x0805a394     0xc  Data  Gb  LS-font16_.o [1]
GUI_FontLSfont16__Prop194
                        0x0805a388     0xc  Data  Gb  LS-font16_.o [1]
GUI_FontLSfont16__Prop195
                        0x0805a37c     0xc  Data  Gb  LS-font16_.o [1]
GUI_FontLSfont16__Prop196
                        0x0805a370     0xc  Data  Gb  LS-font16_.o [1]
GUI_FontLSfont16__Prop197
                        0x0805a364     0xc  Data  Gb  LS-font16_.o [1]
GUI_FontLSfont16__Prop198
                        0x0805a358     0xc  Data  Gb  LS-font16_.o [1]
GUI_FontLSfont16__Prop199
                        0x0805a34c     0xc  Data  Gb  LS-font16_.o [1]
GUI_FontLSfont16__Prop2
                        0x0805ac88     0xc  Data  Gb  LS-font16_.o [1]
GUI_FontLSfont16__Prop20
                        0x0805abb0     0xc  Data  Gb  LS-font16_.o [1]
GUI_FontLSfont16__Prop200
                        0x0805a340     0xc  Data  Gb  LS-font16_.o [1]
GUI_FontLSfont16__Prop201
                        0x0805a334     0xc  Data  Gb  LS-font16_.o [1]
GUI_FontLSfont16__Prop202
                        0x0805a328     0xc  Data  Gb  LS-font16_.o [1]
GUI_FontLSfont16__Prop203
                        0x0805a31c     0xc  Data  Gb  LS-font16_.o [1]
GUI_FontLSfont16__Prop204
                        0x0805a310     0xc  Data  Gb  LS-font16_.o [1]
GUI_FontLSfont16__Prop205
                        0x0805a304     0xc  Data  Gb  LS-font16_.o [1]
GUI_FontLSfont16__Prop206
                        0x0805a2f8     0xc  Data  Gb  LS-font16_.o [1]
GUI_FontLSfont16__Prop207
                        0x0805a2ec     0xc  Data  Gb  LS-font16_.o [1]
GUI_FontLSfont16__Prop208
                        0x0805a2e0     0xc  Data  Gb  LS-font16_.o [1]
GUI_FontLSfont16__Prop209
                        0x0805a2d4     0xc  Data  Gb  LS-font16_.o [1]
GUI_FontLSfont16__Prop21
                        0x0805aba4     0xc  Data  Gb  LS-font16_.o [1]
GUI_FontLSfont16__Prop210
                        0x0805a2c8     0xc  Data  Gb  LS-font16_.o [1]
GUI_FontLSfont16__Prop211
                        0x0805a2bc     0xc  Data  Gb  LS-font16_.o [1]
GUI_FontLSfont16__Prop212
                        0x0805a2b0     0xc  Data  Gb  LS-font16_.o [1]
GUI_FontLSfont16__Prop213
                        0x0805a2a4     0xc  Data  Gb  LS-font16_.o [1]
GUI_FontLSfont16__Prop214
                        0x0805a298     0xc  Data  Gb  LS-font16_.o [1]
GUI_FontLSfont16__Prop215
                        0x0805a28c     0xc  Data  Gb  LS-font16_.o [1]
GUI_FontLSfont16__Prop216
                        0x0805a280     0xc  Data  Gb  LS-font16_.o [1]
GUI_FontLSfont16__Prop217
                        0x0805a274     0xc  Data  Gb  LS-font16_.o [1]
GUI_FontLSfont16__Prop218
                        0x0805a268     0xc  Data  Gb  LS-font16_.o [1]
GUI_FontLSfont16__Prop219
                        0x0805a25c     0xc  Data  Gb  LS-font16_.o [1]
GUI_FontLSfont16__Prop22
                        0x0805ab98     0xc  Data  Gb  LS-font16_.o [1]
GUI_FontLSfont16__Prop220
                        0x0805a250     0xc  Data  Gb  LS-font16_.o [1]
GUI_FontLSfont16__Prop221
                        0x0805a244     0xc  Data  Gb  LS-font16_.o [1]
GUI_FontLSfont16__Prop222
                        0x0805a238     0xc  Data  Gb  LS-font16_.o [1]
GUI_FontLSfont16__Prop223
                        0x0805a22c     0xc  Data  Gb  LS-font16_.o [1]
GUI_FontLSfont16__Prop224
                        0x0805a220     0xc  Data  Gb  LS-font16_.o [1]
GUI_FontLSfont16__Prop225
                        0x0805a214     0xc  Data  Gb  LS-font16_.o [1]
GUI_FontLSfont16__Prop226
                        0x0805a208     0xc  Data  Gb  LS-font16_.o [1]
GUI_FontLSfont16__Prop227
                        0x0805a1fc     0xc  Data  Gb  LS-font16_.o [1]
GUI_FontLSfont16__Prop228
                        0x0805a1f0     0xc  Data  Gb  LS-font16_.o [1]
GUI_FontLSfont16__Prop229
                        0x0805a1e4     0xc  Data  Gb  LS-font16_.o [1]
GUI_FontLSfont16__Prop23
                        0x0805ab8c     0xc  Data  Gb  LS-font16_.o [1]
GUI_FontLSfont16__Prop230
                        0x0805a1d8     0xc  Data  Gb  LS-font16_.o [1]
GUI_FontLSfont16__Prop231
                        0x0805a1cc     0xc  Data  Gb  LS-font16_.o [1]
GUI_FontLSfont16__Prop232
                        0x0805a1c0     0xc  Data  Gb  LS-font16_.o [1]
GUI_FontLSfont16__Prop233
                        0x0805a1b4     0xc  Data  Gb  LS-font16_.o [1]
GUI_FontLSfont16__Prop234
                        0x0805a1a8     0xc  Data  Gb  LS-font16_.o [1]
GUI_FontLSfont16__Prop235
                        0x0805a19c     0xc  Data  Gb  LS-font16_.o [1]
GUI_FontLSfont16__Prop236
                        0x0805a190     0xc  Data  Gb  LS-font16_.o [1]
GUI_FontLSfont16__Prop237
                        0x0805a184     0xc  Data  Gb  LS-font16_.o [1]
GUI_FontLSfont16__Prop238
                        0x0805a178     0xc  Data  Gb  LS-font16_.o [1]
GUI_FontLSfont16__Prop239
                        0x0805a16c     0xc  Data  Gb  LS-font16_.o [1]
GUI_FontLSfont16__Prop24
                        0x0805ab80     0xc  Data  Gb  LS-font16_.o [1]
GUI_FontLSfont16__Prop240
                        0x0805a160     0xc  Data  Gb  LS-font16_.o [1]
GUI_FontLSfont16__Prop241
                        0x0805a154     0xc  Data  Gb  LS-font16_.o [1]
GUI_FontLSfont16__Prop242
                        0x0805a148     0xc  Data  Gb  LS-font16_.o [1]
GUI_FontLSfont16__Prop243
                        0x0805a13c     0xc  Data  Gb  LS-font16_.o [1]
GUI_FontLSfont16__Prop244
                        0x0805a130     0xc  Data  Gb  LS-font16_.o [1]
GUI_FontLSfont16__Prop245
                        0x0805a124     0xc  Data  Gb  LS-font16_.o [1]
GUI_FontLSfont16__Prop246
                        0x0805a118     0xc  Data  Gb  LS-font16_.o [1]
GUI_FontLSfont16__Prop247
                        0x0805a10c     0xc  Data  Gb  LS-font16_.o [1]
GUI_FontLSfont16__Prop248
                        0x0805a100     0xc  Data  Gb  LS-font16_.o [1]
GUI_FontLSfont16__Prop249
                        0x0805a0f4     0xc  Data  Gb  LS-font16_.o [1]
GUI_FontLSfont16__Prop25
                        0x0805ab74     0xc  Data  Gb  LS-font16_.o [1]
GUI_FontLSfont16__Prop250
                        0x0805a0e8     0xc  Data  Gb  LS-font16_.o [1]
GUI_FontLSfont16__Prop251
                        0x0805a0dc     0xc  Data  Gb  LS-font16_.o [1]
GUI_FontLSfont16__Prop252
                        0x0805a0d0     0xc  Data  Gb  LS-font16_.o [1]
GUI_FontLSfont16__Prop253
                        0x0805a0c4     0xc  Data  Gb  LS-font16_.o [1]
GUI_FontLSfont16__Prop254
                        0x0805a0b8     0xc  Data  Gb  LS-font16_.o [1]
GUI_FontLSfont16__Prop255
                        0x0805a0ac     0xc  Data  Gb  LS-font16_.o [1]
GUI_FontLSfont16__Prop256
                        0x0805a0a0     0xc  Data  Gb  LS-font16_.o [1]
GUI_FontLSfont16__Prop257
                        0x0805a094     0xc  Data  Gb  LS-font16_.o [1]
GUI_FontLSfont16__Prop258
                        0x0805a088     0xc  Data  Gb  LS-font16_.o [1]
GUI_FontLSfont16__Prop259
                        0x0805a07c     0xc  Data  Gb  LS-font16_.o [1]
GUI_FontLSfont16__Prop26
                        0x0805ab68     0xc  Data  Gb  LS-font16_.o [1]
GUI_FontLSfont16__Prop260
                        0x0805a070     0xc  Data  Gb  LS-font16_.o [1]
GUI_FontLSfont16__Prop261
                        0x0805a064     0xc  Data  Gb  LS-font16_.o [1]
GUI_FontLSfont16__Prop262
                        0x0805a058     0xc  Data  Gb  LS-font16_.o [1]
GUI_FontLSfont16__Prop263
                        0x0805a04c     0xc  Data  Gb  LS-font16_.o [1]
GUI_FontLSfont16__Prop264
                        0x0805a040     0xc  Data  Gb  LS-font16_.o [1]
GUI_FontLSfont16__Prop265
                        0x0805a034     0xc  Data  Gb  LS-font16_.o [1]
GUI_FontLSfont16__Prop266
                        0x0805a028     0xc  Data  Gb  LS-font16_.o [1]
GUI_FontLSfont16__Prop267
                        0x0805a01c     0xc  Data  Gb  LS-font16_.o [1]
GUI_FontLSfont16__Prop268
                        0x0805a010     0xc  Data  Gb  LS-font16_.o [1]
GUI_FontLSfont16__Prop269
                        0x0805a004     0xc  Data  Gb  LS-font16_.o [1]
GUI_FontLSfont16__Prop27
                        0x0805ab5c     0xc  Data  Gb  LS-font16_.o [1]
GUI_FontLSfont16__Prop270
                        0x08059ff8     0xc  Data  Gb  LS-font16_.o [1]
GUI_FontLSfont16__Prop271
                        0x08059fec     0xc  Data  Gb  LS-font16_.o [1]
GUI_FontLSfont16__Prop272
                        0x08059fe0     0xc  Data  Gb  LS-font16_.o [1]
GUI_FontLSfont16__Prop273
                        0x08059fd4     0xc  Data  Gb  LS-font16_.o [1]
GUI_FontLSfont16__Prop274
                        0x08059fc8     0xc  Data  Gb  LS-font16_.o [1]
GUI_FontLSfont16__Prop275
                        0x08059fbc     0xc  Data  Gb  LS-font16_.o [1]
GUI_FontLSfont16__Prop276
                        0x08059fb0     0xc  Data  Gb  LS-font16_.o [1]
GUI_FontLSfont16__Prop277
                        0x08059fa4     0xc  Data  Gb  LS-font16_.o [1]
GUI_FontLSfont16__Prop278
                        0x08059f98     0xc  Data  Gb  LS-font16_.o [1]
GUI_FontLSfont16__Prop279
                        0x08059f8c     0xc  Data  Gb  LS-font16_.o [1]
GUI_FontLSfont16__Prop28
                        0x0805ab50     0xc  Data  Gb  LS-font16_.o [1]
GUI_FontLSfont16__Prop280
                        0x08059f80     0xc  Data  Gb  LS-font16_.o [1]
GUI_FontLSfont16__Prop281
                        0x08059f74     0xc  Data  Gb  LS-font16_.o [1]
GUI_FontLSfont16__Prop282
                        0x08059f68     0xc  Data  Gb  LS-font16_.o [1]
GUI_FontLSfont16__Prop283
                        0x08059f5c     0xc  Data  Gb  LS-font16_.o [1]
GUI_FontLSfont16__Prop284
                        0x08059f50     0xc  Data  Gb  LS-font16_.o [1]
GUI_FontLSfont16__Prop285
                        0x08059f44     0xc  Data  Gb  LS-font16_.o [1]
GUI_FontLSfont16__Prop286
                        0x08059f38     0xc  Data  Gb  LS-font16_.o [1]
GUI_FontLSfont16__Prop287
                        0x08059f2c     0xc  Data  Gb  LS-font16_.o [1]
GUI_FontLSfont16__Prop288
                        0x08059f20     0xc  Data  Gb  LS-font16_.o [1]
GUI_FontLSfont16__Prop289
                        0x08059f14     0xc  Data  Gb  LS-font16_.o [1]
GUI_FontLSfont16__Prop29
                        0x0805ab44     0xc  Data  Gb  LS-font16_.o [1]
GUI_FontLSfont16__Prop290
                        0x08059f08     0xc  Data  Gb  LS-font16_.o [1]
GUI_FontLSfont16__Prop291
                        0x08059efc     0xc  Data  Gb  LS-font16_.o [1]
GUI_FontLSfont16__Prop292
                        0x08059ef0     0xc  Data  Gb  LS-font16_.o [1]
GUI_FontLSfont16__Prop293
                        0x08059ee4     0xc  Data  Gb  LS-font16_.o [1]
GUI_FontLSfont16__Prop294
                        0x08059ed8     0xc  Data  Gb  LS-font16_.o [1]
GUI_FontLSfont16__Prop295
                        0x08059ecc     0xc  Data  Gb  LS-font16_.o [1]
GUI_FontLSfont16__Prop296
                        0x08059ec0     0xc  Data  Gb  LS-font16_.o [1]
GUI_FontLSfont16__Prop297
                        0x08059eb4     0xc  Data  Gb  LS-font16_.o [1]
GUI_FontLSfont16__Prop298
                        0x08059ea8     0xc  Data  Gb  LS-font16_.o [1]
GUI_FontLSfont16__Prop299
                        0x08059e9c     0xc  Data  Gb  LS-font16_.o [1]
GUI_FontLSfont16__Prop3
                        0x0805ac7c     0xc  Data  Gb  LS-font16_.o [1]
GUI_FontLSfont16__Prop30
                        0x0805ab38     0xc  Data  Gb  LS-font16_.o [1]
GUI_FontLSfont16__Prop300
                        0x08059e90     0xc  Data  Gb  LS-font16_.o [1]
GUI_FontLSfont16__Prop301
                        0x08059e84     0xc  Data  Gb  LS-font16_.o [1]
GUI_FontLSfont16__Prop302
                        0x08059e78     0xc  Data  Gb  LS-font16_.o [1]
GUI_FontLSfont16__Prop303
                        0x08059e6c     0xc  Data  Gb  LS-font16_.o [1]
GUI_FontLSfont16__Prop304
                        0x08059e60     0xc  Data  Gb  LS-font16_.o [1]
GUI_FontLSfont16__Prop305
                        0x08059e54     0xc  Data  Gb  LS-font16_.o [1]
GUI_FontLSfont16__Prop306
                        0x08059e48     0xc  Data  Gb  LS-font16_.o [1]
GUI_FontLSfont16__Prop307
                        0x08059e3c     0xc  Data  Gb  LS-font16_.o [1]
GUI_FontLSfont16__Prop308
                        0x08059e30     0xc  Data  Gb  LS-font16_.o [1]
GUI_FontLSfont16__Prop309
                        0x08059e24     0xc  Data  Gb  LS-font16_.o [1]
GUI_FontLSfont16__Prop31
                        0x0805ab2c     0xc  Data  Gb  LS-font16_.o [1]
GUI_FontLSfont16__Prop310
                        0x08059e18     0xc  Data  Gb  LS-font16_.o [1]
GUI_FontLSfont16__Prop311
                        0x08059e0c     0xc  Data  Gb  LS-font16_.o [1]
GUI_FontLSfont16__Prop312
                        0x08059e00     0xc  Data  Gb  LS-font16_.o [1]
GUI_FontLSfont16__Prop313
                        0x08059df4     0xc  Data  Gb  LS-font16_.o [1]
GUI_FontLSfont16__Prop314
                        0x08059de8     0xc  Data  Gb  LS-font16_.o [1]
GUI_FontLSfont16__Prop315
                        0x08059ddc     0xc  Data  Gb  LS-font16_.o [1]
GUI_FontLSfont16__Prop316
                        0x08059dd0     0xc  Data  Gb  LS-font16_.o [1]
GUI_FontLSfont16__Prop317
                        0x08059dc4     0xc  Data  Gb  LS-font16_.o [1]
GUI_FontLSfont16__Prop318
                        0x08059db8     0xc  Data  Gb  LS-font16_.o [1]
GUI_FontLSfont16__Prop319
                        0x08059dac     0xc  Data  Gb  LS-font16_.o [1]
GUI_FontLSfont16__Prop32
                        0x0805ab20     0xc  Data  Gb  LS-font16_.o [1]
GUI_FontLSfont16__Prop320
                        0x08059da0     0xc  Data  Gb  LS-font16_.o [1]
GUI_FontLSfont16__Prop321
                        0x08059d94     0xc  Data  Gb  LS-font16_.o [1]
GUI_FontLSfont16__Prop322
                        0x08059d88     0xc  Data  Gb  LS-font16_.o [1]
GUI_FontLSfont16__Prop323
                        0x08059d7c     0xc  Data  Gb  LS-font16_.o [1]
GUI_FontLSfont16__Prop324
                        0x08059d70     0xc  Data  Gb  LS-font16_.o [1]
GUI_FontLSfont16__Prop325
                        0x08059d64     0xc  Data  Gb  LS-font16_.o [1]
GUI_FontLSfont16__Prop326
                        0x08059d58     0xc  Data  Gb  LS-font16_.o [1]
GUI_FontLSfont16__Prop327
                        0x08059d4c     0xc  Data  Gb  LS-font16_.o [1]
GUI_FontLSfont16__Prop328
                        0x08059d40     0xc  Data  Gb  LS-font16_.o [1]
GUI_FontLSfont16__Prop329
                        0x08059d34     0xc  Data  Gb  LS-font16_.o [1]
GUI_FontLSfont16__Prop33
                        0x0805ab14     0xc  Data  Gb  LS-font16_.o [1]
GUI_FontLSfont16__Prop330
                        0x08059d28     0xc  Data  Gb  LS-font16_.o [1]
GUI_FontLSfont16__Prop331
                        0x08059d1c     0xc  Data  Gb  LS-font16_.o [1]
GUI_FontLSfont16__Prop332
                        0x08059d10     0xc  Data  Gb  LS-font16_.o [1]
GUI_FontLSfont16__Prop333
                        0x08059d04     0xc  Data  Gb  LS-font16_.o [1]
GUI_FontLSfont16__Prop334
                        0x08059cf8     0xc  Data  Gb  LS-font16_.o [1]
GUI_FontLSfont16__Prop335
                        0x08059cec     0xc  Data  Gb  LS-font16_.o [1]
GUI_FontLSfont16__Prop336
                        0x08059ce0     0xc  Data  Gb  LS-font16_.o [1]
GUI_FontLSfont16__Prop337
                        0x08059cd4     0xc  Data  Gb  LS-font16_.o [1]
GUI_FontLSfont16__Prop338
                        0x08059cc8     0xc  Data  Gb  LS-font16_.o [1]
GUI_FontLSfont16__Prop339
                        0x08059cbc     0xc  Data  Gb  LS-font16_.o [1]
GUI_FontLSfont16__Prop34
                        0x0805ab08     0xc  Data  Gb  LS-font16_.o [1]
GUI_FontLSfont16__Prop340
                        0x08059cb0     0xc  Data  Gb  LS-font16_.o [1]
GUI_FontLSfont16__Prop341
                        0x08059ca4     0xc  Data  Gb  LS-font16_.o [1]
GUI_FontLSfont16__Prop342
                        0x08059c98     0xc  Data  Gb  LS-font16_.o [1]
GUI_FontLSfont16__Prop343
                        0x08059c8c     0xc  Data  Gb  LS-font16_.o [1]
GUI_FontLSfont16__Prop344
                        0x08059c80     0xc  Data  Gb  LS-font16_.o [1]
GUI_FontLSfont16__Prop345
                        0x08059c74     0xc  Data  Gb  LS-font16_.o [1]
GUI_FontLSfont16__Prop346
                        0x08059c68     0xc  Data  Gb  LS-font16_.o [1]
GUI_FontLSfont16__Prop347
                        0x08059c5c     0xc  Data  Gb  LS-font16_.o [1]
GUI_FontLSfont16__Prop348
                        0x08059c50     0xc  Data  Gb  LS-font16_.o [1]
GUI_FontLSfont16__Prop349
                        0x08059c44     0xc  Data  Gb  LS-font16_.o [1]
GUI_FontLSfont16__Prop35
                        0x0805aafc     0xc  Data  Gb  LS-font16_.o [1]
GUI_FontLSfont16__Prop350
                        0x08059c38     0xc  Data  Gb  LS-font16_.o [1]
GUI_FontLSfont16__Prop351
                        0x08059c2c     0xc  Data  Gb  LS-font16_.o [1]
GUI_FontLSfont16__Prop352
                        0x08059c20     0xc  Data  Gb  LS-font16_.o [1]
GUI_FontLSfont16__Prop353
                        0x08059c14     0xc  Data  Gb  LS-font16_.o [1]
GUI_FontLSfont16__Prop354
                        0x08059c08     0xc  Data  Gb  LS-font16_.o [1]
GUI_FontLSfont16__Prop355
                        0x08059bfc     0xc  Data  Gb  LS-font16_.o [1]
GUI_FontLSfont16__Prop356
                        0x08059bf0     0xc  Data  Gb  LS-font16_.o [1]
GUI_FontLSfont16__Prop357
                        0x08059be4     0xc  Data  Gb  LS-font16_.o [1]
GUI_FontLSfont16__Prop358
                        0x08059bd8     0xc  Data  Gb  LS-font16_.o [1]
GUI_FontLSfont16__Prop359
                        0x08059bcc     0xc  Data  Gb  LS-font16_.o [1]
GUI_FontLSfont16__Prop36
                        0x0805aaf0     0xc  Data  Gb  LS-font16_.o [1]
GUI_FontLSfont16__Prop360
                        0x08059bc0     0xc  Data  Gb  LS-font16_.o [1]
GUI_FontLSfont16__Prop361
                        0x08059bb4     0xc  Data  Gb  LS-font16_.o [1]
GUI_FontLSfont16__Prop362
                        0x08059ba8     0xc  Data  Gb  LS-font16_.o [1]
GUI_FontLSfont16__Prop363
                        0x08059b9c     0xc  Data  Gb  LS-font16_.o [1]
GUI_FontLSfont16__Prop364
                        0x08059b90     0xc  Data  Gb  LS-font16_.o [1]
GUI_FontLSfont16__Prop365
                        0x08059b84     0xc  Data  Gb  LS-font16_.o [1]
GUI_FontLSfont16__Prop366
                        0x08059b78     0xc  Data  Gb  LS-font16_.o [1]
GUI_FontLSfont16__Prop367
                        0x08059b6c     0xc  Data  Gb  LS-font16_.o [1]
GUI_FontLSfont16__Prop368
                        0x08059b60     0xc  Data  Gb  LS-font16_.o [1]
GUI_FontLSfont16__Prop369
                        0x08059b54     0xc  Data  Gb  LS-font16_.o [1]
GUI_FontLSfont16__Prop37
                        0x0805aae4     0xc  Data  Gb  LS-font16_.o [1]
GUI_FontLSfont16__Prop370
                        0x08059b48     0xc  Data  Gb  LS-font16_.o [1]
GUI_FontLSfont16__Prop371
                        0x08059b3c     0xc  Data  Gb  LS-font16_.o [1]
GUI_FontLSfont16__Prop372
                        0x08059b30     0xc  Data  Gb  LS-font16_.o [1]
GUI_FontLSfont16__Prop373
                        0x08059b24     0xc  Data  Gb  LS-font16_.o [1]
GUI_FontLSfont16__Prop374
                        0x08059b18     0xc  Data  Gb  LS-font16_.o [1]
GUI_FontLSfont16__Prop375
                        0x08059b0c     0xc  Data  Gb  LS-font16_.o [1]
GUI_FontLSfont16__Prop376
                        0x08059b00     0xc  Data  Gb  LS-font16_.o [1]
GUI_FontLSfont16__Prop377
                        0x08059af4     0xc  Data  Gb  LS-font16_.o [1]
GUI_FontLSfont16__Prop378
                        0x08059ae8     0xc  Data  Gb  LS-font16_.o [1]
GUI_FontLSfont16__Prop379
                        0x08059adc     0xc  Data  Gb  LS-font16_.o [1]
GUI_FontLSfont16__Prop38
                        0x0805aad8     0xc  Data  Gb  LS-font16_.o [1]
GUI_FontLSfont16__Prop380
                        0x08059ad0     0xc  Data  Gb  LS-font16_.o [1]
GUI_FontLSfont16__Prop381
                        0x08059ac4     0xc  Data  Gb  LS-font16_.o [1]
GUI_FontLSfont16__Prop382
                        0x08059ab8     0xc  Data  Gb  LS-font16_.o [1]
GUI_FontLSfont16__Prop383
                        0x08059aac     0xc  Data  Gb  LS-font16_.o [1]
GUI_FontLSfont16__Prop384
                        0x08059aa0     0xc  Data  Gb  LS-font16_.o [1]
GUI_FontLSfont16__Prop385
                        0x08059a94     0xc  Data  Gb  LS-font16_.o [1]
GUI_FontLSfont16__Prop386
                        0x08059a88     0xc  Data  Gb  LS-font16_.o [1]
GUI_FontLSfont16__Prop387
                        0x08059a7c     0xc  Data  Gb  LS-font16_.o [1]
GUI_FontLSfont16__Prop388
                        0x08059a70     0xc  Data  Gb  LS-font16_.o [1]
GUI_FontLSfont16__Prop389
                        0x08059a64     0xc  Data  Gb  LS-font16_.o [1]
GUI_FontLSfont16__Prop39
                        0x0805aacc     0xc  Data  Gb  LS-font16_.o [1]
GUI_FontLSfont16__Prop390
                        0x08059a58     0xc  Data  Gb  LS-font16_.o [1]
GUI_FontLSfont16__Prop391
                        0x08059a4c     0xc  Data  Gb  LS-font16_.o [1]
GUI_FontLSfont16__Prop392
                        0x08059a40     0xc  Data  Gb  LS-font16_.o [1]
GUI_FontLSfont16__Prop393
                        0x08059a34     0xc  Data  Gb  LS-font16_.o [1]
GUI_FontLSfont16__Prop394
                        0x08059a28     0xc  Data  Gb  LS-font16_.o [1]
GUI_FontLSfont16__Prop395
                        0x08059a1c     0xc  Data  Gb  LS-font16_.o [1]
GUI_FontLSfont16__Prop4
                        0x0805ac70     0xc  Data  Gb  LS-font16_.o [1]
GUI_FontLSfont16__Prop40
                        0x0805aac0     0xc  Data  Gb  LS-font16_.o [1]
GUI_FontLSfont16__Prop41
                        0x0805aab4     0xc  Data  Gb  LS-font16_.o [1]
GUI_FontLSfont16__Prop42
                        0x0805aaa8     0xc  Data  Gb  LS-font16_.o [1]
GUI_FontLSfont16__Prop43
                        0x0805aa9c     0xc  Data  Gb  LS-font16_.o [1]
GUI_FontLSfont16__Prop44
                        0x0805aa90     0xc  Data  Gb  LS-font16_.o [1]
GUI_FontLSfont16__Prop45
                        0x0805aa84     0xc  Data  Gb  LS-font16_.o [1]
GUI_FontLSfont16__Prop46
                        0x0805aa78     0xc  Data  Gb  LS-font16_.o [1]
GUI_FontLSfont16__Prop47
                        0x0805aa6c     0xc  Data  Gb  LS-font16_.o [1]
GUI_FontLSfont16__Prop48
                        0x0805aa60     0xc  Data  Gb  LS-font16_.o [1]
GUI_FontLSfont16__Prop49
                        0x0805aa54     0xc  Data  Gb  LS-font16_.o [1]
GUI_FontLSfont16__Prop5
                        0x0805ac64     0xc  Data  Gb  LS-font16_.o [1]
GUI_FontLSfont16__Prop50
                        0x0805aa48     0xc  Data  Gb  LS-font16_.o [1]
GUI_FontLSfont16__Prop51
                        0x0805aa3c     0xc  Data  Gb  LS-font16_.o [1]
GUI_FontLSfont16__Prop52
                        0x0805aa30     0xc  Data  Gb  LS-font16_.o [1]
GUI_FontLSfont16__Prop53
                        0x0805aa24     0xc  Data  Gb  LS-font16_.o [1]
GUI_FontLSfont16__Prop54
                        0x0805aa18     0xc  Data  Gb  LS-font16_.o [1]
GUI_FontLSfont16__Prop55
                        0x0805aa0c     0xc  Data  Gb  LS-font16_.o [1]
GUI_FontLSfont16__Prop56
                        0x0805aa00     0xc  Data  Gb  LS-font16_.o [1]
GUI_FontLSfont16__Prop57
                        0x0805a9f4     0xc  Data  Gb  LS-font16_.o [1]
GUI_FontLSfont16__Prop58
                        0x0805a9e8     0xc  Data  Gb  LS-font16_.o [1]
GUI_FontLSfont16__Prop59
                        0x0805a9dc     0xc  Data  Gb  LS-font16_.o [1]
GUI_FontLSfont16__Prop6
                        0x0805ac58     0xc  Data  Gb  LS-font16_.o [1]
GUI_FontLSfont16__Prop60
                        0x0805a9d0     0xc  Data  Gb  LS-font16_.o [1]
GUI_FontLSfont16__Prop61
                        0x0805a9c4     0xc  Data  Gb  LS-font16_.o [1]
GUI_FontLSfont16__Prop62
                        0x0805a9b8     0xc  Data  Gb  LS-font16_.o [1]
GUI_FontLSfont16__Prop63
                        0x0805a9ac     0xc  Data  Gb  LS-font16_.o [1]
GUI_FontLSfont16__Prop64
                        0x0805a9a0     0xc  Data  Gb  LS-font16_.o [1]
GUI_FontLSfont16__Prop65
                        0x0805a994     0xc  Data  Gb  LS-font16_.o [1]
GUI_FontLSfont16__Prop66
                        0x0805a988     0xc  Data  Gb  LS-font16_.o [1]
GUI_FontLSfont16__Prop67
                        0x0805a97c     0xc  Data  Gb  LS-font16_.o [1]
GUI_FontLSfont16__Prop68
                        0x0805a970     0xc  Data  Gb  LS-font16_.o [1]
GUI_FontLSfont16__Prop69
                        0x0805a964     0xc  Data  Gb  LS-font16_.o [1]
GUI_FontLSfont16__Prop7
                        0x0805ac4c     0xc  Data  Gb  LS-font16_.o [1]
GUI_FontLSfont16__Prop70
                        0x0805a958     0xc  Data  Gb  LS-font16_.o [1]
GUI_FontLSfont16__Prop71
                        0x0805a94c     0xc  Data  Gb  LS-font16_.o [1]
GUI_FontLSfont16__Prop72
                        0x0805a940     0xc  Data  Gb  LS-font16_.o [1]
GUI_FontLSfont16__Prop73
                        0x0805a934     0xc  Data  Gb  LS-font16_.o [1]
GUI_FontLSfont16__Prop74
                        0x0805a928     0xc  Data  Gb  LS-font16_.o [1]
GUI_FontLSfont16__Prop75
                        0x0805a91c     0xc  Data  Gb  LS-font16_.o [1]
GUI_FontLSfont16__Prop76
                        0x0805a910     0xc  Data  Gb  LS-font16_.o [1]
GUI_FontLSfont16__Prop77
                        0x0805a904     0xc  Data  Gb  LS-font16_.o [1]
GUI_FontLSfont16__Prop78
                        0x0805a8f8     0xc  Data  Gb  LS-font16_.o [1]
GUI_FontLSfont16__Prop79
                        0x0805a8ec     0xc  Data  Gb  LS-font16_.o [1]
GUI_FontLSfont16__Prop8
                        0x0805ac40     0xc  Data  Gb  LS-font16_.o [1]
GUI_FontLSfont16__Prop80
                        0x0805a8e0     0xc  Data  Gb  LS-font16_.o [1]
GUI_FontLSfont16__Prop81
                        0x0805a8d4     0xc  Data  Gb  LS-font16_.o [1]
GUI_FontLSfont16__Prop82
                        0x0805a8c8     0xc  Data  Gb  LS-font16_.o [1]
GUI_FontLSfont16__Prop83
                        0x0805a8bc     0xc  Data  Gb  LS-font16_.o [1]
GUI_FontLSfont16__Prop84
                        0x0805a8b0     0xc  Data  Gb  LS-font16_.o [1]
GUI_FontLSfont16__Prop85
                        0x0805a8a4     0xc  Data  Gb  LS-font16_.o [1]
GUI_FontLSfont16__Prop86
                        0x0805a898     0xc  Data  Gb  LS-font16_.o [1]
GUI_FontLSfont16__Prop87
                        0x0805a88c     0xc  Data  Gb  LS-font16_.o [1]
GUI_FontLSfont16__Prop88
                        0x0805a880     0xc  Data  Gb  LS-font16_.o [1]
GUI_FontLSfont16__Prop89
                        0x0805a874     0xc  Data  Gb  LS-font16_.o [1]
GUI_FontLSfont16__Prop9
                        0x0805ac34     0xc  Data  Gb  LS-font16_.o [1]
GUI_FontLSfont16__Prop90
                        0x0805a868     0xc  Data  Gb  LS-font16_.o [1]
GUI_FontLSfont16__Prop91
                        0x0805a85c     0xc  Data  Gb  LS-font16_.o [1]
GUI_FontLSfont16__Prop92
                        0x0805a850     0xc  Data  Gb  LS-font16_.o [1]
GUI_FontLSfont16__Prop93
                        0x0805a844     0xc  Data  Gb  LS-font16_.o [1]
GUI_FontLSfont16__Prop94
                        0x0805a838     0xc  Data  Gb  LS-font16_.o [1]
GUI_FontLSfont16__Prop95
                        0x0805a82c     0xc  Data  Gb  LS-font16_.o [1]
GUI_FontLSfont16__Prop96
                        0x0805a820     0xc  Data  Gb  LS-font16_.o [1]
GUI_FontLSfont16__Prop97
                        0x0805a814     0xc  Data  Gb  LS-font16_.o [1]
GUI_FontLSfont16__Prop98
                        0x0805a808     0xc  Data  Gb  LS-font16_.o [1]
GUI_FontLSfont16__Prop99
                        0x0805a7fc     0xc  Data  Gb  LS-font16_.o [1]
GUI_FontLSfont24_       0x08039048    0x24  Data  Gb  LS-font24_.o [1]
GUI_FontLSfont24__CharInfo
                        0x08036498  0x1920  Data  Gb  LS-font24_.o [1]
GUI_FontLSfont24__Prop1
                        0x0803903c     0xc  Data  Gb  LS-font24_.o [1]
GUI_FontLSfont24__Prop10
                        0x08038fd0     0xc  Data  Gb  LS-font24_.o [1]
GUI_FontLSfont24__Prop100
                        0x08038b98     0xc  Data  Gb  LS-font24_.o [1]
GUI_FontLSfont24__Prop101
                        0x08038b8c     0xc  Data  Gb  LS-font24_.o [1]
GUI_FontLSfont24__Prop102
                        0x08038b80     0xc  Data  Gb  LS-font24_.o [1]
GUI_FontLSfont24__Prop103
                        0x08038b74     0xc  Data  Gb  LS-font24_.o [1]
GUI_FontLSfont24__Prop104
                        0x08038b68     0xc  Data  Gb  LS-font24_.o [1]
GUI_FontLSfont24__Prop105
                        0x08038b5c     0xc  Data  Gb  LS-font24_.o [1]
GUI_FontLSfont24__Prop106
                        0x08038b50     0xc  Data  Gb  LS-font24_.o [1]
GUI_FontLSfont24__Prop107
                        0x08038b44     0xc  Data  Gb  LS-font24_.o [1]
GUI_FontLSfont24__Prop108
                        0x08038b38     0xc  Data  Gb  LS-font24_.o [1]
GUI_FontLSfont24__Prop109
                        0x08038b2c     0xc  Data  Gb  LS-font24_.o [1]
GUI_FontLSfont24__Prop11
                        0x08038fc4     0xc  Data  Gb  LS-font24_.o [1]
GUI_FontLSfont24__Prop110
                        0x08038b20     0xc  Data  Gb  LS-font24_.o [1]
GUI_FontLSfont24__Prop111
                        0x08038b14     0xc  Data  Gb  LS-font24_.o [1]
GUI_FontLSfont24__Prop112
                        0x08038b08     0xc  Data  Gb  LS-font24_.o [1]
GUI_FontLSfont24__Prop113
                        0x08038afc     0xc  Data  Gb  LS-font24_.o [1]
GUI_FontLSfont24__Prop114
                        0x08038af0     0xc  Data  Gb  LS-font24_.o [1]
GUI_FontLSfont24__Prop115
                        0x08038ae4     0xc  Data  Gb  LS-font24_.o [1]
GUI_FontLSfont24__Prop116
                        0x08038ad8     0xc  Data  Gb  LS-font24_.o [1]
GUI_FontLSfont24__Prop117
                        0x08038acc     0xc  Data  Gb  LS-font24_.o [1]
GUI_FontLSfont24__Prop118
                        0x08038ac0     0xc  Data  Gb  LS-font24_.o [1]
GUI_FontLSfont24__Prop119
                        0x08038ab4     0xc  Data  Gb  LS-font24_.o [1]
GUI_FontLSfont24__Prop12
                        0x08038fb8     0xc  Data  Gb  LS-font24_.o [1]
GUI_FontLSfont24__Prop120
                        0x08038aa8     0xc  Data  Gb  LS-font24_.o [1]
GUI_FontLSfont24__Prop121
                        0x08038a9c     0xc  Data  Gb  LS-font24_.o [1]
GUI_FontLSfont24__Prop122
                        0x08038a90     0xc  Data  Gb  LS-font24_.o [1]
GUI_FontLSfont24__Prop123
                        0x08038a84     0xc  Data  Gb  LS-font24_.o [1]
GUI_FontLSfont24__Prop124
                        0x08038a78     0xc  Data  Gb  LS-font24_.o [1]
GUI_FontLSfont24__Prop125
                        0x08038a6c     0xc  Data  Gb  LS-font24_.o [1]
GUI_FontLSfont24__Prop126
                        0x08038a60     0xc  Data  Gb  LS-font24_.o [1]
GUI_FontLSfont24__Prop127
                        0x08038a54     0xc  Data  Gb  LS-font24_.o [1]
GUI_FontLSfont24__Prop128
                        0x08038a48     0xc  Data  Gb  LS-font24_.o [1]
GUI_FontLSfont24__Prop129
                        0x08038a3c     0xc  Data  Gb  LS-font24_.o [1]
GUI_FontLSfont24__Prop13
                        0x08038fac     0xc  Data  Gb  LS-font24_.o [1]
GUI_FontLSfont24__Prop130
                        0x08038a30     0xc  Data  Gb  LS-font24_.o [1]
GUI_FontLSfont24__Prop131
                        0x08038a24     0xc  Data  Gb  LS-font24_.o [1]
GUI_FontLSfont24__Prop132
                        0x08038a18     0xc  Data  Gb  LS-font24_.o [1]
GUI_FontLSfont24__Prop133
                        0x08038a0c     0xc  Data  Gb  LS-font24_.o [1]
GUI_FontLSfont24__Prop134
                        0x08038a00     0xc  Data  Gb  LS-font24_.o [1]
GUI_FontLSfont24__Prop135
                        0x080389f4     0xc  Data  Gb  LS-font24_.o [1]
GUI_FontLSfont24__Prop136
                        0x080389e8     0xc  Data  Gb  LS-font24_.o [1]
GUI_FontLSfont24__Prop137
                        0x080389dc     0xc  Data  Gb  LS-font24_.o [1]
GUI_FontLSfont24__Prop138
                        0x080389d0     0xc  Data  Gb  LS-font24_.o [1]
GUI_FontLSfont24__Prop139
                        0x080389c4     0xc  Data  Gb  LS-font24_.o [1]
GUI_FontLSfont24__Prop14
                        0x08038fa0     0xc  Data  Gb  LS-font24_.o [1]
GUI_FontLSfont24__Prop140
                        0x080389b8     0xc  Data  Gb  LS-font24_.o [1]
GUI_FontLSfont24__Prop141
                        0x080389ac     0xc  Data  Gb  LS-font24_.o [1]
GUI_FontLSfont24__Prop142
                        0x080389a0     0xc  Data  Gb  LS-font24_.o [1]
GUI_FontLSfont24__Prop143
                        0x08038994     0xc  Data  Gb  LS-font24_.o [1]
GUI_FontLSfont24__Prop144
                        0x08038988     0xc  Data  Gb  LS-font24_.o [1]
GUI_FontLSfont24__Prop145
                        0x0803897c     0xc  Data  Gb  LS-font24_.o [1]
GUI_FontLSfont24__Prop146
                        0x08038970     0xc  Data  Gb  LS-font24_.o [1]
GUI_FontLSfont24__Prop147
                        0x08038964     0xc  Data  Gb  LS-font24_.o [1]
GUI_FontLSfont24__Prop148
                        0x08038958     0xc  Data  Gb  LS-font24_.o [1]
GUI_FontLSfont24__Prop149
                        0x0803894c     0xc  Data  Gb  LS-font24_.o [1]
GUI_FontLSfont24__Prop15
                        0x08038f94     0xc  Data  Gb  LS-font24_.o [1]
GUI_FontLSfont24__Prop150
                        0x08038940     0xc  Data  Gb  LS-font24_.o [1]
GUI_FontLSfont24__Prop151
                        0x08038934     0xc  Data  Gb  LS-font24_.o [1]
GUI_FontLSfont24__Prop152
                        0x08038928     0xc  Data  Gb  LS-font24_.o [1]
GUI_FontLSfont24__Prop153
                        0x0803891c     0xc  Data  Gb  LS-font24_.o [1]
GUI_FontLSfont24__Prop154
                        0x08038910     0xc  Data  Gb  LS-font24_.o [1]
GUI_FontLSfont24__Prop155
                        0x08038904     0xc  Data  Gb  LS-font24_.o [1]
GUI_FontLSfont24__Prop156
                        0x080388f8     0xc  Data  Gb  LS-font24_.o [1]
GUI_FontLSfont24__Prop157
                        0x080388ec     0xc  Data  Gb  LS-font24_.o [1]
GUI_FontLSfont24__Prop158
                        0x080388e0     0xc  Data  Gb  LS-font24_.o [1]
GUI_FontLSfont24__Prop159
                        0x080388d4     0xc  Data  Gb  LS-font24_.o [1]
GUI_FontLSfont24__Prop16
                        0x08038f88     0xc  Data  Gb  LS-font24_.o [1]
GUI_FontLSfont24__Prop160
                        0x080388c8     0xc  Data  Gb  LS-font24_.o [1]
GUI_FontLSfont24__Prop161
                        0x080388bc     0xc  Data  Gb  LS-font24_.o [1]
GUI_FontLSfont24__Prop162
                        0x080388b0     0xc  Data  Gb  LS-font24_.o [1]
GUI_FontLSfont24__Prop163
                        0x080388a4     0xc  Data  Gb  LS-font24_.o [1]
GUI_FontLSfont24__Prop164
                        0x08038898     0xc  Data  Gb  LS-font24_.o [1]
GUI_FontLSfont24__Prop165
                        0x0803888c     0xc  Data  Gb  LS-font24_.o [1]
GUI_FontLSfont24__Prop166
                        0x08038880     0xc  Data  Gb  LS-font24_.o [1]
GUI_FontLSfont24__Prop167
                        0x08038874     0xc  Data  Gb  LS-font24_.o [1]
GUI_FontLSfont24__Prop168
                        0x08038868     0xc  Data  Gb  LS-font24_.o [1]
GUI_FontLSfont24__Prop169
                        0x0803885c     0xc  Data  Gb  LS-font24_.o [1]
GUI_FontLSfont24__Prop17
                        0x08038f7c     0xc  Data  Gb  LS-font24_.o [1]
GUI_FontLSfont24__Prop170
                        0x08038850     0xc  Data  Gb  LS-font24_.o [1]
GUI_FontLSfont24__Prop171
                        0x08038844     0xc  Data  Gb  LS-font24_.o [1]
GUI_FontLSfont24__Prop172
                        0x08038838     0xc  Data  Gb  LS-font24_.o [1]
GUI_FontLSfont24__Prop173
                        0x0803882c     0xc  Data  Gb  LS-font24_.o [1]
GUI_FontLSfont24__Prop174
                        0x08038820     0xc  Data  Gb  LS-font24_.o [1]
GUI_FontLSfont24__Prop175
                        0x08038814     0xc  Data  Gb  LS-font24_.o [1]
GUI_FontLSfont24__Prop176
                        0x08038808     0xc  Data  Gb  LS-font24_.o [1]
GUI_FontLSfont24__Prop177
                        0x080387fc     0xc  Data  Gb  LS-font24_.o [1]
GUI_FontLSfont24__Prop178
                        0x080387f0     0xc  Data  Gb  LS-font24_.o [1]
GUI_FontLSfont24__Prop179
                        0x080387e4     0xc  Data  Gb  LS-font24_.o [1]
GUI_FontLSfont24__Prop18
                        0x08038f70     0xc  Data  Gb  LS-font24_.o [1]
GUI_FontLSfont24__Prop180
                        0x080387d8     0xc  Data  Gb  LS-font24_.o [1]
GUI_FontLSfont24__Prop181
                        0x080387cc     0xc  Data  Gb  LS-font24_.o [1]
GUI_FontLSfont24__Prop182
                        0x080387c0     0xc  Data  Gb  LS-font24_.o [1]
GUI_FontLSfont24__Prop183
                        0x080387b4     0xc  Data  Gb  LS-font24_.o [1]
GUI_FontLSfont24__Prop184
                        0x080387a8     0xc  Data  Gb  LS-font24_.o [1]
GUI_FontLSfont24__Prop185
                        0x0803879c     0xc  Data  Gb  LS-font24_.o [1]
GUI_FontLSfont24__Prop186
                        0x08038790     0xc  Data  Gb  LS-font24_.o [1]
GUI_FontLSfont24__Prop187
                        0x08038784     0xc  Data  Gb  LS-font24_.o [1]
GUI_FontLSfont24__Prop188
                        0x08038778     0xc  Data  Gb  LS-font24_.o [1]
GUI_FontLSfont24__Prop189
                        0x0803876c     0xc  Data  Gb  LS-font24_.o [1]
GUI_FontLSfont24__Prop19
                        0x08038f64     0xc  Data  Gb  LS-font24_.o [1]
GUI_FontLSfont24__Prop190
                        0x08038760     0xc  Data  Gb  LS-font24_.o [1]
GUI_FontLSfont24__Prop191
                        0x08038754     0xc  Data  Gb  LS-font24_.o [1]
GUI_FontLSfont24__Prop192
                        0x08038748     0xc  Data  Gb  LS-font24_.o [1]
GUI_FontLSfont24__Prop193
                        0x0803873c     0xc  Data  Gb  LS-font24_.o [1]
GUI_FontLSfont24__Prop194
                        0x08038730     0xc  Data  Gb  LS-font24_.o [1]
GUI_FontLSfont24__Prop195
                        0x08038724     0xc  Data  Gb  LS-font24_.o [1]
GUI_FontLSfont24__Prop196
                        0x08038718     0xc  Data  Gb  LS-font24_.o [1]
GUI_FontLSfont24__Prop197
                        0x0803870c     0xc  Data  Gb  LS-font24_.o [1]
GUI_FontLSfont24__Prop198
                        0x08038700     0xc  Data  Gb  LS-font24_.o [1]
GUI_FontLSfont24__Prop199
                        0x080386f4     0xc  Data  Gb  LS-font24_.o [1]
GUI_FontLSfont24__Prop2
                        0x08039030     0xc  Data  Gb  LS-font24_.o [1]
GUI_FontLSfont24__Prop20
                        0x08038f58     0xc  Data  Gb  LS-font24_.o [1]
GUI_FontLSfont24__Prop200
                        0x080386e8     0xc  Data  Gb  LS-font24_.o [1]
GUI_FontLSfont24__Prop201
                        0x080386dc     0xc  Data  Gb  LS-font24_.o [1]
GUI_FontLSfont24__Prop202
                        0x080386d0     0xc  Data  Gb  LS-font24_.o [1]
GUI_FontLSfont24__Prop203
                        0x080386c4     0xc  Data  Gb  LS-font24_.o [1]
GUI_FontLSfont24__Prop204
                        0x080386b8     0xc  Data  Gb  LS-font24_.o [1]
GUI_FontLSfont24__Prop205
                        0x080386ac     0xc  Data  Gb  LS-font24_.o [1]
GUI_FontLSfont24__Prop206
                        0x080386a0     0xc  Data  Gb  LS-font24_.o [1]
GUI_FontLSfont24__Prop207
                        0x08038694     0xc  Data  Gb  LS-font24_.o [1]
GUI_FontLSfont24__Prop208
                        0x08038688     0xc  Data  Gb  LS-font24_.o [1]
GUI_FontLSfont24__Prop209
                        0x0803867c     0xc  Data  Gb  LS-font24_.o [1]
GUI_FontLSfont24__Prop21
                        0x08038f4c     0xc  Data  Gb  LS-font24_.o [1]
GUI_FontLSfont24__Prop210
                        0x08038670     0xc  Data  Gb  LS-font24_.o [1]
GUI_FontLSfont24__Prop211
                        0x08038664     0xc  Data  Gb  LS-font24_.o [1]
GUI_FontLSfont24__Prop212
                        0x08038658     0xc  Data  Gb  LS-font24_.o [1]
GUI_FontLSfont24__Prop213
                        0x0803864c     0xc  Data  Gb  LS-font24_.o [1]
GUI_FontLSfont24__Prop214
                        0x08038640     0xc  Data  Gb  LS-font24_.o [1]
GUI_FontLSfont24__Prop215
                        0x08038634     0xc  Data  Gb  LS-font24_.o [1]
GUI_FontLSfont24__Prop216
                        0x08038628     0xc  Data  Gb  LS-font24_.o [1]
GUI_FontLSfont24__Prop217
                        0x0803861c     0xc  Data  Gb  LS-font24_.o [1]
GUI_FontLSfont24__Prop218
                        0x08038610     0xc  Data  Gb  LS-font24_.o [1]
GUI_FontLSfont24__Prop219
                        0x08038604     0xc  Data  Gb  LS-font24_.o [1]
GUI_FontLSfont24__Prop22
                        0x08038f40     0xc  Data  Gb  LS-font24_.o [1]
GUI_FontLSfont24__Prop220
                        0x080385f8     0xc  Data  Gb  LS-font24_.o [1]
GUI_FontLSfont24__Prop221
                        0x080385ec     0xc  Data  Gb  LS-font24_.o [1]
GUI_FontLSfont24__Prop222
                        0x080385e0     0xc  Data  Gb  LS-font24_.o [1]
GUI_FontLSfont24__Prop223
                        0x080385d4     0xc  Data  Gb  LS-font24_.o [1]
GUI_FontLSfont24__Prop224
                        0x080385c8     0xc  Data  Gb  LS-font24_.o [1]
GUI_FontLSfont24__Prop225
                        0x080385bc     0xc  Data  Gb  LS-font24_.o [1]
GUI_FontLSfont24__Prop226
                        0x080385b0     0xc  Data  Gb  LS-font24_.o [1]
GUI_FontLSfont24__Prop227
                        0x080385a4     0xc  Data  Gb  LS-font24_.o [1]
GUI_FontLSfont24__Prop228
                        0x08038598     0xc  Data  Gb  LS-font24_.o [1]
GUI_FontLSfont24__Prop229
                        0x0803858c     0xc  Data  Gb  LS-font24_.o [1]
GUI_FontLSfont24__Prop23
                        0x08038f34     0xc  Data  Gb  LS-font24_.o [1]
GUI_FontLSfont24__Prop230
                        0x08038580     0xc  Data  Gb  LS-font24_.o [1]
GUI_FontLSfont24__Prop231
                        0x08038574     0xc  Data  Gb  LS-font24_.o [1]
GUI_FontLSfont24__Prop232
                        0x08038568     0xc  Data  Gb  LS-font24_.o [1]
GUI_FontLSfont24__Prop233
                        0x0803855c     0xc  Data  Gb  LS-font24_.o [1]
GUI_FontLSfont24__Prop234
                        0x08038550     0xc  Data  Gb  LS-font24_.o [1]
GUI_FontLSfont24__Prop235
                        0x08038544     0xc  Data  Gb  LS-font24_.o [1]
GUI_FontLSfont24__Prop236
                        0x08038538     0xc  Data  Gb  LS-font24_.o [1]
GUI_FontLSfont24__Prop237
                        0x0803852c     0xc  Data  Gb  LS-font24_.o [1]
GUI_FontLSfont24__Prop238
                        0x08038520     0xc  Data  Gb  LS-font24_.o [1]
GUI_FontLSfont24__Prop239
                        0x08038514     0xc  Data  Gb  LS-font24_.o [1]
GUI_FontLSfont24__Prop24
                        0x08038f28     0xc  Data  Gb  LS-font24_.o [1]
GUI_FontLSfont24__Prop240
                        0x08038508     0xc  Data  Gb  LS-font24_.o [1]
GUI_FontLSfont24__Prop241
                        0x080384fc     0xc  Data  Gb  LS-font24_.o [1]
GUI_FontLSfont24__Prop242
                        0x080384f0     0xc  Data  Gb  LS-font24_.o [1]
GUI_FontLSfont24__Prop243
                        0x080384e4     0xc  Data  Gb  LS-font24_.o [1]
GUI_FontLSfont24__Prop244
                        0x080384d8     0xc  Data  Gb  LS-font24_.o [1]
GUI_FontLSfont24__Prop245
                        0x080384cc     0xc  Data  Gb  LS-font24_.o [1]
GUI_FontLSfont24__Prop246
                        0x080384c0     0xc  Data  Gb  LS-font24_.o [1]
GUI_FontLSfont24__Prop247
                        0x080384b4     0xc  Data  Gb  LS-font24_.o [1]
GUI_FontLSfont24__Prop248
                        0x080384a8     0xc  Data  Gb  LS-font24_.o [1]
GUI_FontLSfont24__Prop249
                        0x0803849c     0xc  Data  Gb  LS-font24_.o [1]
GUI_FontLSfont24__Prop25
                        0x08038f1c     0xc  Data  Gb  LS-font24_.o [1]
GUI_FontLSfont24__Prop250
                        0x08038490     0xc  Data  Gb  LS-font24_.o [1]
GUI_FontLSfont24__Prop251
                        0x08038484     0xc  Data  Gb  LS-font24_.o [1]
GUI_FontLSfont24__Prop252
                        0x08038478     0xc  Data  Gb  LS-font24_.o [1]
GUI_FontLSfont24__Prop253
                        0x0803846c     0xc  Data  Gb  LS-font24_.o [1]
GUI_FontLSfont24__Prop254
                        0x08038460     0xc  Data  Gb  LS-font24_.o [1]
GUI_FontLSfont24__Prop255
                        0x08038454     0xc  Data  Gb  LS-font24_.o [1]
GUI_FontLSfont24__Prop256
                        0x08038448     0xc  Data  Gb  LS-font24_.o [1]
GUI_FontLSfont24__Prop257
                        0x0803843c     0xc  Data  Gb  LS-font24_.o [1]
GUI_FontLSfont24__Prop258
                        0x08038430     0xc  Data  Gb  LS-font24_.o [1]
GUI_FontLSfont24__Prop259
                        0x08038424     0xc  Data  Gb  LS-font24_.o [1]
GUI_FontLSfont24__Prop26
                        0x08038f10     0xc  Data  Gb  LS-font24_.o [1]
GUI_FontLSfont24__Prop260
                        0x08038418     0xc  Data  Gb  LS-font24_.o [1]
GUI_FontLSfont24__Prop261
                        0x0803840c     0xc  Data  Gb  LS-font24_.o [1]
GUI_FontLSfont24__Prop262
                        0x08038400     0xc  Data  Gb  LS-font24_.o [1]
GUI_FontLSfont24__Prop263
                        0x080383f4     0xc  Data  Gb  LS-font24_.o [1]
GUI_FontLSfont24__Prop264
                        0x080383e8     0xc  Data  Gb  LS-font24_.o [1]
GUI_FontLSfont24__Prop265
                        0x080383dc     0xc  Data  Gb  LS-font24_.o [1]
GUI_FontLSfont24__Prop266
                        0x080383d0     0xc  Data  Gb  LS-font24_.o [1]
GUI_FontLSfont24__Prop267
                        0x080383c4     0xc  Data  Gb  LS-font24_.o [1]
GUI_FontLSfont24__Prop268
                        0x080383b8     0xc  Data  Gb  LS-font24_.o [1]
GUI_FontLSfont24__Prop269
                        0x080383ac     0xc  Data  Gb  LS-font24_.o [1]
GUI_FontLSfont24__Prop27
                        0x08038f04     0xc  Data  Gb  LS-font24_.o [1]
GUI_FontLSfont24__Prop270
                        0x080383a0     0xc  Data  Gb  LS-font24_.o [1]
GUI_FontLSfont24__Prop271
                        0x08038394     0xc  Data  Gb  LS-font24_.o [1]
GUI_FontLSfont24__Prop272
                        0x08038388     0xc  Data  Gb  LS-font24_.o [1]
GUI_FontLSfont24__Prop273
                        0x0803837c     0xc  Data  Gb  LS-font24_.o [1]
GUI_FontLSfont24__Prop274
                        0x08038370     0xc  Data  Gb  LS-font24_.o [1]
GUI_FontLSfont24__Prop275
                        0x08038364     0xc  Data  Gb  LS-font24_.o [1]
GUI_FontLSfont24__Prop276
                        0x08038358     0xc  Data  Gb  LS-font24_.o [1]
GUI_FontLSfont24__Prop277
                        0x0803834c     0xc  Data  Gb  LS-font24_.o [1]
GUI_FontLSfont24__Prop278
                        0x08038340     0xc  Data  Gb  LS-font24_.o [1]
GUI_FontLSfont24__Prop279
                        0x08038334     0xc  Data  Gb  LS-font24_.o [1]
GUI_FontLSfont24__Prop28
                        0x08038ef8     0xc  Data  Gb  LS-font24_.o [1]
GUI_FontLSfont24__Prop280
                        0x08038328     0xc  Data  Gb  LS-font24_.o [1]
GUI_FontLSfont24__Prop281
                        0x0803831c     0xc  Data  Gb  LS-font24_.o [1]
GUI_FontLSfont24__Prop282
                        0x08038310     0xc  Data  Gb  LS-font24_.o [1]
GUI_FontLSfont24__Prop283
                        0x08038304     0xc  Data  Gb  LS-font24_.o [1]
GUI_FontLSfont24__Prop284
                        0x080382f8     0xc  Data  Gb  LS-font24_.o [1]
GUI_FontLSfont24__Prop285
                        0x080382ec     0xc  Data  Gb  LS-font24_.o [1]
GUI_FontLSfont24__Prop286
                        0x080382e0     0xc  Data  Gb  LS-font24_.o [1]
GUI_FontLSfont24__Prop287
                        0x080382d4     0xc  Data  Gb  LS-font24_.o [1]
GUI_FontLSfont24__Prop288
                        0x080382c8     0xc  Data  Gb  LS-font24_.o [1]
GUI_FontLSfont24__Prop289
                        0x080382bc     0xc  Data  Gb  LS-font24_.o [1]
GUI_FontLSfont24__Prop29
                        0x08038eec     0xc  Data  Gb  LS-font24_.o [1]
GUI_FontLSfont24__Prop290
                        0x080382b0     0xc  Data  Gb  LS-font24_.o [1]
GUI_FontLSfont24__Prop291
                        0x080382a4     0xc  Data  Gb  LS-font24_.o [1]
GUI_FontLSfont24__Prop292
                        0x08038298     0xc  Data  Gb  LS-font24_.o [1]
GUI_FontLSfont24__Prop293
                        0x0803828c     0xc  Data  Gb  LS-font24_.o [1]
GUI_FontLSfont24__Prop294
                        0x08038280     0xc  Data  Gb  LS-font24_.o [1]
GUI_FontLSfont24__Prop295
                        0x08038274     0xc  Data  Gb  LS-font24_.o [1]
GUI_FontLSfont24__Prop296
                        0x08038268     0xc  Data  Gb  LS-font24_.o [1]
GUI_FontLSfont24__Prop297
                        0x0803825c     0xc  Data  Gb  LS-font24_.o [1]
GUI_FontLSfont24__Prop298
                        0x08038250     0xc  Data  Gb  LS-font24_.o [1]
GUI_FontLSfont24__Prop299
                        0x08038244     0xc  Data  Gb  LS-font24_.o [1]
GUI_FontLSfont24__Prop3
                        0x08039024     0xc  Data  Gb  LS-font24_.o [1]
GUI_FontLSfont24__Prop30
                        0x08038ee0     0xc  Data  Gb  LS-font24_.o [1]
GUI_FontLSfont24__Prop300
                        0x08038238     0xc  Data  Gb  LS-font24_.o [1]
GUI_FontLSfont24__Prop301
                        0x0803822c     0xc  Data  Gb  LS-font24_.o [1]
GUI_FontLSfont24__Prop302
                        0x08038220     0xc  Data  Gb  LS-font24_.o [1]
GUI_FontLSfont24__Prop303
                        0x08038214     0xc  Data  Gb  LS-font24_.o [1]
GUI_FontLSfont24__Prop304
                        0x08038208     0xc  Data  Gb  LS-font24_.o [1]
GUI_FontLSfont24__Prop305
                        0x080381fc     0xc  Data  Gb  LS-font24_.o [1]
GUI_FontLSfont24__Prop306
                        0x080381f0     0xc  Data  Gb  LS-font24_.o [1]
GUI_FontLSfont24__Prop307
                        0x080381e4     0xc  Data  Gb  LS-font24_.o [1]
GUI_FontLSfont24__Prop308
                        0x080381d8     0xc  Data  Gb  LS-font24_.o [1]
GUI_FontLSfont24__Prop309
                        0x080381cc     0xc  Data  Gb  LS-font24_.o [1]
GUI_FontLSfont24__Prop31
                        0x08038ed4     0xc  Data  Gb  LS-font24_.o [1]
GUI_FontLSfont24__Prop310
                        0x080381c0     0xc  Data  Gb  LS-font24_.o [1]
GUI_FontLSfont24__Prop311
                        0x080381b4     0xc  Data  Gb  LS-font24_.o [1]
GUI_FontLSfont24__Prop312
                        0x080381a8     0xc  Data  Gb  LS-font24_.o [1]
GUI_FontLSfont24__Prop313
                        0x0803819c     0xc  Data  Gb  LS-font24_.o [1]
GUI_FontLSfont24__Prop314
                        0x08038190     0xc  Data  Gb  LS-font24_.o [1]
GUI_FontLSfont24__Prop315
                        0x08038184     0xc  Data  Gb  LS-font24_.o [1]
GUI_FontLSfont24__Prop316
                        0x08038178     0xc  Data  Gb  LS-font24_.o [1]
GUI_FontLSfont24__Prop317
                        0x0803816c     0xc  Data  Gb  LS-font24_.o [1]
GUI_FontLSfont24__Prop318
                        0x08038160     0xc  Data  Gb  LS-font24_.o [1]
GUI_FontLSfont24__Prop319
                        0x08038154     0xc  Data  Gb  LS-font24_.o [1]
GUI_FontLSfont24__Prop32
                        0x08038ec8     0xc  Data  Gb  LS-font24_.o [1]
GUI_FontLSfont24__Prop320
                        0x08038148     0xc  Data  Gb  LS-font24_.o [1]
GUI_FontLSfont24__Prop321
                        0x0803813c     0xc  Data  Gb  LS-font24_.o [1]
GUI_FontLSfont24__Prop322
                        0x08038130     0xc  Data  Gb  LS-font24_.o [1]
GUI_FontLSfont24__Prop323
                        0x08038124     0xc  Data  Gb  LS-font24_.o [1]
GUI_FontLSfont24__Prop324
                        0x08038118     0xc  Data  Gb  LS-font24_.o [1]
GUI_FontLSfont24__Prop325
                        0x0803810c     0xc  Data  Gb  LS-font24_.o [1]
GUI_FontLSfont24__Prop326
                        0x08038100     0xc  Data  Gb  LS-font24_.o [1]
GUI_FontLSfont24__Prop327
                        0x080380f4     0xc  Data  Gb  LS-font24_.o [1]
GUI_FontLSfont24__Prop328
                        0x080380e8     0xc  Data  Gb  LS-font24_.o [1]
GUI_FontLSfont24__Prop329
                        0x080380dc     0xc  Data  Gb  LS-font24_.o [1]
GUI_FontLSfont24__Prop33
                        0x08038ebc     0xc  Data  Gb  LS-font24_.o [1]
GUI_FontLSfont24__Prop330
                        0x080380d0     0xc  Data  Gb  LS-font24_.o [1]
GUI_FontLSfont24__Prop331
                        0x080380c4     0xc  Data  Gb  LS-font24_.o [1]
GUI_FontLSfont24__Prop332
                        0x080380b8     0xc  Data  Gb  LS-font24_.o [1]
GUI_FontLSfont24__Prop333
                        0x080380ac     0xc  Data  Gb  LS-font24_.o [1]
GUI_FontLSfont24__Prop334
                        0x080380a0     0xc  Data  Gb  LS-font24_.o [1]
GUI_FontLSfont24__Prop335
                        0x08038094     0xc  Data  Gb  LS-font24_.o [1]
GUI_FontLSfont24__Prop336
                        0x08038088     0xc  Data  Gb  LS-font24_.o [1]
GUI_FontLSfont24__Prop337
                        0x0803807c     0xc  Data  Gb  LS-font24_.o [1]
GUI_FontLSfont24__Prop338
                        0x08038070     0xc  Data  Gb  LS-font24_.o [1]
GUI_FontLSfont24__Prop339
                        0x08038064     0xc  Data  Gb  LS-font24_.o [1]
GUI_FontLSfont24__Prop34
                        0x08038eb0     0xc  Data  Gb  LS-font24_.o [1]
GUI_FontLSfont24__Prop340
                        0x08038058     0xc  Data  Gb  LS-font24_.o [1]
GUI_FontLSfont24__Prop341
                        0x0803804c     0xc  Data  Gb  LS-font24_.o [1]
GUI_FontLSfont24__Prop342
                        0x08038040     0xc  Data  Gb  LS-font24_.o [1]
GUI_FontLSfont24__Prop343
                        0x08038034     0xc  Data  Gb  LS-font24_.o [1]
GUI_FontLSfont24__Prop344
                        0x08038028     0xc  Data  Gb  LS-font24_.o [1]
GUI_FontLSfont24__Prop345
                        0x0803801c     0xc  Data  Gb  LS-font24_.o [1]
GUI_FontLSfont24__Prop346
                        0x08038010     0xc  Data  Gb  LS-font24_.o [1]
GUI_FontLSfont24__Prop347
                        0x08038004     0xc  Data  Gb  LS-font24_.o [1]
GUI_FontLSfont24__Prop348
                        0x08037ff8     0xc  Data  Gb  LS-font24_.o [1]
GUI_FontLSfont24__Prop349
                        0x08037fec     0xc  Data  Gb  LS-font24_.o [1]
GUI_FontLSfont24__Prop35
                        0x08038ea4     0xc  Data  Gb  LS-font24_.o [1]
GUI_FontLSfont24__Prop350
                        0x08037fe0     0xc  Data  Gb  LS-font24_.o [1]
GUI_FontLSfont24__Prop351
                        0x08037fd4     0xc  Data  Gb  LS-font24_.o [1]
GUI_FontLSfont24__Prop352
                        0x08037fc8     0xc  Data  Gb  LS-font24_.o [1]
GUI_FontLSfont24__Prop353
                        0x08037fbc     0xc  Data  Gb  LS-font24_.o [1]
GUI_FontLSfont24__Prop354
                        0x08037fb0     0xc  Data  Gb  LS-font24_.o [1]
GUI_FontLSfont24__Prop355
                        0x08037fa4     0xc  Data  Gb  LS-font24_.o [1]
GUI_FontLSfont24__Prop356
                        0x08037f98     0xc  Data  Gb  LS-font24_.o [1]
GUI_FontLSfont24__Prop357
                        0x08037f8c     0xc  Data  Gb  LS-font24_.o [1]
GUI_FontLSfont24__Prop358
                        0x08037f80     0xc  Data  Gb  LS-font24_.o [1]
GUI_FontLSfont24__Prop359
                        0x08037f74     0xc  Data  Gb  LS-font24_.o [1]
GUI_FontLSfont24__Prop36
                        0x08038e98     0xc  Data  Gb  LS-font24_.o [1]
GUI_FontLSfont24__Prop360
                        0x08037f68     0xc  Data  Gb  LS-font24_.o [1]
GUI_FontLSfont24__Prop361
                        0x08037f5c     0xc  Data  Gb  LS-font24_.o [1]
GUI_FontLSfont24__Prop362
                        0x08037f50     0xc  Data  Gb  LS-font24_.o [1]
GUI_FontLSfont24__Prop363
                        0x08037f44     0xc  Data  Gb  LS-font24_.o [1]
GUI_FontLSfont24__Prop364
                        0x08037f38     0xc  Data  Gb  LS-font24_.o [1]
GUI_FontLSfont24__Prop365
                        0x08037f2c     0xc  Data  Gb  LS-font24_.o [1]
GUI_FontLSfont24__Prop366
                        0x08037f20     0xc  Data  Gb  LS-font24_.o [1]
GUI_FontLSfont24__Prop367
                        0x08037f14     0xc  Data  Gb  LS-font24_.o [1]
GUI_FontLSfont24__Prop368
                        0x08037f08     0xc  Data  Gb  LS-font24_.o [1]
GUI_FontLSfont24__Prop369
                        0x08037efc     0xc  Data  Gb  LS-font24_.o [1]
GUI_FontLSfont24__Prop37
                        0x08038e8c     0xc  Data  Gb  LS-font24_.o [1]
GUI_FontLSfont24__Prop370
                        0x08037ef0     0xc  Data  Gb  LS-font24_.o [1]
GUI_FontLSfont24__Prop371
                        0x08037ee4     0xc  Data  Gb  LS-font24_.o [1]
GUI_FontLSfont24__Prop372
                        0x08037ed8     0xc  Data  Gb  LS-font24_.o [1]
GUI_FontLSfont24__Prop373
                        0x08037ecc     0xc  Data  Gb  LS-font24_.o [1]
GUI_FontLSfont24__Prop374
                        0x08037ec0     0xc  Data  Gb  LS-font24_.o [1]
GUI_FontLSfont24__Prop375
                        0x08037eb4     0xc  Data  Gb  LS-font24_.o [1]
GUI_FontLSfont24__Prop376
                        0x08037ea8     0xc  Data  Gb  LS-font24_.o [1]
GUI_FontLSfont24__Prop377
                        0x08037e9c     0xc  Data  Gb  LS-font24_.o [1]
GUI_FontLSfont24__Prop378
                        0x08037e90     0xc  Data  Gb  LS-font24_.o [1]
GUI_FontLSfont24__Prop379
                        0x08037e84     0xc  Data  Gb  LS-font24_.o [1]
GUI_FontLSfont24__Prop38
                        0x08038e80     0xc  Data  Gb  LS-font24_.o [1]
GUI_FontLSfont24__Prop380
                        0x08037e78     0xc  Data  Gb  LS-font24_.o [1]
GUI_FontLSfont24__Prop381
                        0x08037e6c     0xc  Data  Gb  LS-font24_.o [1]
GUI_FontLSfont24__Prop382
                        0x08037e60     0xc  Data  Gb  LS-font24_.o [1]
GUI_FontLSfont24__Prop383
                        0x08037e54     0xc  Data  Gb  LS-font24_.o [1]
GUI_FontLSfont24__Prop384
                        0x08037e48     0xc  Data  Gb  LS-font24_.o [1]
GUI_FontLSfont24__Prop385
                        0x08037e3c     0xc  Data  Gb  LS-font24_.o [1]
GUI_FontLSfont24__Prop386
                        0x08037e30     0xc  Data  Gb  LS-font24_.o [1]
GUI_FontLSfont24__Prop387
                        0x08037e24     0xc  Data  Gb  LS-font24_.o [1]
GUI_FontLSfont24__Prop388
                        0x08037e18     0xc  Data  Gb  LS-font24_.o [1]
GUI_FontLSfont24__Prop389
                        0x08037e0c     0xc  Data  Gb  LS-font24_.o [1]
GUI_FontLSfont24__Prop39
                        0x08038e74     0xc  Data  Gb  LS-font24_.o [1]
GUI_FontLSfont24__Prop390
                        0x08037e00     0xc  Data  Gb  LS-font24_.o [1]
GUI_FontLSfont24__Prop391
                        0x08037df4     0xc  Data  Gb  LS-font24_.o [1]
GUI_FontLSfont24__Prop392
                        0x08037de8     0xc  Data  Gb  LS-font24_.o [1]
GUI_FontLSfont24__Prop393
                        0x08037ddc     0xc  Data  Gb  LS-font24_.o [1]
GUI_FontLSfont24__Prop394
                        0x08037dd0     0xc  Data  Gb  LS-font24_.o [1]
GUI_FontLSfont24__Prop395
                        0x08037dc4     0xc  Data  Gb  LS-font24_.o [1]
GUI_FontLSfont24__Prop396
                        0x08037db8     0xc  Data  Gb  LS-font24_.o [1]
GUI_FontLSfont24__Prop4
                        0x08039018     0xc  Data  Gb  LS-font24_.o [1]
GUI_FontLSfont24__Prop40
                        0x08038e68     0xc  Data  Gb  LS-font24_.o [1]
GUI_FontLSfont24__Prop41
                        0x08038e5c     0xc  Data  Gb  LS-font24_.o [1]
GUI_FontLSfont24__Prop42
                        0x08038e50     0xc  Data  Gb  LS-font24_.o [1]
GUI_FontLSfont24__Prop43
                        0x08038e44     0xc  Data  Gb  LS-font24_.o [1]
GUI_FontLSfont24__Prop44
                        0x08038e38     0xc  Data  Gb  LS-font24_.o [1]
GUI_FontLSfont24__Prop45
                        0x08038e2c     0xc  Data  Gb  LS-font24_.o [1]
GUI_FontLSfont24__Prop46
                        0x08038e20     0xc  Data  Gb  LS-font24_.o [1]
GUI_FontLSfont24__Prop47
                        0x08038e14     0xc  Data  Gb  LS-font24_.o [1]
GUI_FontLSfont24__Prop48
                        0x08038e08     0xc  Data  Gb  LS-font24_.o [1]
GUI_FontLSfont24__Prop49
                        0x08038dfc     0xc  Data  Gb  LS-font24_.o [1]
GUI_FontLSfont24__Prop5
                        0x0803900c     0xc  Data  Gb  LS-font24_.o [1]
GUI_FontLSfont24__Prop50
                        0x08038df0     0xc  Data  Gb  LS-font24_.o [1]
GUI_FontLSfont24__Prop51
                        0x08038de4     0xc  Data  Gb  LS-font24_.o [1]
GUI_FontLSfont24__Prop52
                        0x08038dd8     0xc  Data  Gb  LS-font24_.o [1]
GUI_FontLSfont24__Prop53
                        0x08038dcc     0xc  Data  Gb  LS-font24_.o [1]
GUI_FontLSfont24__Prop54
                        0x08038dc0     0xc  Data  Gb  LS-font24_.o [1]
GUI_FontLSfont24__Prop55
                        0x08038db4     0xc  Data  Gb  LS-font24_.o [1]
GUI_FontLSfont24__Prop56
                        0x08038da8     0xc  Data  Gb  LS-font24_.o [1]
GUI_FontLSfont24__Prop57
                        0x08038d9c     0xc  Data  Gb  LS-font24_.o [1]
GUI_FontLSfont24__Prop58
                        0x08038d90     0xc  Data  Gb  LS-font24_.o [1]
GUI_FontLSfont24__Prop59
                        0x08038d84     0xc  Data  Gb  LS-font24_.o [1]
GUI_FontLSfont24__Prop6
                        0x08039000     0xc  Data  Gb  LS-font24_.o [1]
GUI_FontLSfont24__Prop60
                        0x08038d78     0xc  Data  Gb  LS-font24_.o [1]
GUI_FontLSfont24__Prop61
                        0x08038d6c     0xc  Data  Gb  LS-font24_.o [1]
GUI_FontLSfont24__Prop62
                        0x08038d60     0xc  Data  Gb  LS-font24_.o [1]
GUI_FontLSfont24__Prop63
                        0x08038d54     0xc  Data  Gb  LS-font24_.o [1]
GUI_FontLSfont24__Prop64
                        0x08038d48     0xc  Data  Gb  LS-font24_.o [1]
GUI_FontLSfont24__Prop65
                        0x08038d3c     0xc  Data  Gb  LS-font24_.o [1]
GUI_FontLSfont24__Prop66
                        0x08038d30     0xc  Data  Gb  LS-font24_.o [1]
GUI_FontLSfont24__Prop67
                        0x08038d24     0xc  Data  Gb  LS-font24_.o [1]
GUI_FontLSfont24__Prop68
                        0x08038d18     0xc  Data  Gb  LS-font24_.o [1]
GUI_FontLSfont24__Prop69
                        0x08038d0c     0xc  Data  Gb  LS-font24_.o [1]
GUI_FontLSfont24__Prop7
                        0x08038ff4     0xc  Data  Gb  LS-font24_.o [1]
GUI_FontLSfont24__Prop70
                        0x08038d00     0xc  Data  Gb  LS-font24_.o [1]
GUI_FontLSfont24__Prop71
                        0x08038cf4     0xc  Data  Gb  LS-font24_.o [1]
GUI_FontLSfont24__Prop72
                        0x08038ce8     0xc  Data  Gb  LS-font24_.o [1]
GUI_FontLSfont24__Prop73
                        0x08038cdc     0xc  Data  Gb  LS-font24_.o [1]
GUI_FontLSfont24__Prop74
                        0x08038cd0     0xc  Data  Gb  LS-font24_.o [1]
GUI_FontLSfont24__Prop75
                        0x08038cc4     0xc  Data  Gb  LS-font24_.o [1]
GUI_FontLSfont24__Prop76
                        0x08038cb8     0xc  Data  Gb  LS-font24_.o [1]
GUI_FontLSfont24__Prop77
                        0x08038cac     0xc  Data  Gb  LS-font24_.o [1]
GUI_FontLSfont24__Prop78
                        0x08038ca0     0xc  Data  Gb  LS-font24_.o [1]
GUI_FontLSfont24__Prop79
                        0x08038c94     0xc  Data  Gb  LS-font24_.o [1]
GUI_FontLSfont24__Prop8
                        0x08038fe8     0xc  Data  Gb  LS-font24_.o [1]
GUI_FontLSfont24__Prop80
                        0x08038c88     0xc  Data  Gb  LS-font24_.o [1]
GUI_FontLSfont24__Prop81
                        0x08038c7c     0xc  Data  Gb  LS-font24_.o [1]
GUI_FontLSfont24__Prop82
                        0x08038c70     0xc  Data  Gb  LS-font24_.o [1]
GUI_FontLSfont24__Prop83
                        0x08038c64     0xc  Data  Gb  LS-font24_.o [1]
GUI_FontLSfont24__Prop84
                        0x08038c58     0xc  Data  Gb  LS-font24_.o [1]
GUI_FontLSfont24__Prop85
                        0x08038c4c     0xc  Data  Gb  LS-font24_.o [1]
GUI_FontLSfont24__Prop86
                        0x08038c40     0xc  Data  Gb  LS-font24_.o [1]
GUI_FontLSfont24__Prop87
                        0x08038c34     0xc  Data  Gb  LS-font24_.o [1]
GUI_FontLSfont24__Prop88
                        0x08038c28     0xc  Data  Gb  LS-font24_.o [1]
GUI_FontLSfont24__Prop89
                        0x08038c1c     0xc  Data  Gb  LS-font24_.o [1]
GUI_FontLSfont24__Prop9
                        0x08038fdc     0xc  Data  Gb  LS-font24_.o [1]
GUI_FontLSfont24__Prop90
                        0x08038c10     0xc  Data  Gb  LS-font24_.o [1]
GUI_FontLSfont24__Prop91
                        0x08038c04     0xc  Data  Gb  LS-font24_.o [1]
GUI_FontLSfont24__Prop92
                        0x08038bf8     0xc  Data  Gb  LS-font24_.o [1]
GUI_FontLSfont24__Prop93
                        0x08038bec     0xc  Data  Gb  LS-font24_.o [1]
GUI_FontLSfont24__Prop94
                        0x08038be0     0xc  Data  Gb  LS-font24_.o [1]
GUI_FontLSfont24__Prop95
                        0x08038bd4     0xc  Data  Gb  LS-font24_.o [1]
GUI_FontLSfont24__Prop96
                        0x08038bc8     0xc  Data  Gb  LS-font24_.o [1]
GUI_FontLSfont24__Prop97
                        0x08038bbc     0xc  Data  Gb  LS-font24_.o [1]
GUI_FontLSfont24__Prop98
                        0x08038bb0     0xc  Data  Gb  LS-font24_.o [1]
GUI_FontLSfont24__Prop99
                        0x08038ba4     0xc  Data  Gb  LS-font24_.o [1]
GUI_FontLSfont_24x24    0x0805471c    0x24  Data  Gb  LS-font_24x24.o [1]
GUI_FontLSfont_24x24_CharInfo
                        0x08052388  0x14e8  Data  Gb  LS-font_24x24.o [1]
GUI_FontLSfont_24x24_Prop1
                        0x08054710     0xc  Data  Gb  LS-font_24x24.o [1]
GUI_FontLSfont_24x24_Prop10
                        0x080546a4     0xc  Data  Gb  LS-font_24x24.o [1]
GUI_FontLSfont_24x24_Prop100
                        0x0805426c     0xc  Data  Gb  LS-font_24x24.o [1]
GUI_FontLSfont_24x24_Prop101
                        0x08054260     0xc  Data  Gb  LS-font_24x24.o [1]
GUI_FontLSfont_24x24_Prop102
                        0x08054254     0xc  Data  Gb  LS-font_24x24.o [1]
GUI_FontLSfont_24x24_Prop103
                        0x08054248     0xc  Data  Gb  LS-font_24x24.o [1]
GUI_FontLSfont_24x24_Prop104
                        0x0805423c     0xc  Data  Gb  LS-font_24x24.o [1]
GUI_FontLSfont_24x24_Prop105
                        0x08054230     0xc  Data  Gb  LS-font_24x24.o [1]
GUI_FontLSfont_24x24_Prop106
                        0x08054224     0xc  Data  Gb  LS-font_24x24.o [1]
GUI_FontLSfont_24x24_Prop107
                        0x08054218     0xc  Data  Gb  LS-font_24x24.o [1]
GUI_FontLSfont_24x24_Prop108
                        0x0805420c     0xc  Data  Gb  LS-font_24x24.o [1]
GUI_FontLSfont_24x24_Prop109
                        0x08054200     0xc  Data  Gb  LS-font_24x24.o [1]
GUI_FontLSfont_24x24_Prop11
                        0x08054698     0xc  Data  Gb  LS-font_24x24.o [1]
GUI_FontLSfont_24x24_Prop110
                        0x080541f4     0xc  Data  Gb  LS-font_24x24.o [1]
GUI_FontLSfont_24x24_Prop111
                        0x080541e8     0xc  Data  Gb  LS-font_24x24.o [1]
GUI_FontLSfont_24x24_Prop112
                        0x080541dc     0xc  Data  Gb  LS-font_24x24.o [1]
GUI_FontLSfont_24x24_Prop113
                        0x080541d0     0xc  Data  Gb  LS-font_24x24.o [1]
GUI_FontLSfont_24x24_Prop114
                        0x080541c4     0xc  Data  Gb  LS-font_24x24.o [1]
GUI_FontLSfont_24x24_Prop115
                        0x080541b8     0xc  Data  Gb  LS-font_24x24.o [1]
GUI_FontLSfont_24x24_Prop116
                        0x080541ac     0xc  Data  Gb  LS-font_24x24.o [1]
GUI_FontLSfont_24x24_Prop117
                        0x080541a0     0xc  Data  Gb  LS-font_24x24.o [1]
GUI_FontLSfont_24x24_Prop118
                        0x08054194     0xc  Data  Gb  LS-font_24x24.o [1]
GUI_FontLSfont_24x24_Prop119
                        0x08054188     0xc  Data  Gb  LS-font_24x24.o [1]
GUI_FontLSfont_24x24_Prop12
                        0x0805468c     0xc  Data  Gb  LS-font_24x24.o [1]
GUI_FontLSfont_24x24_Prop120
                        0x0805417c     0xc  Data  Gb  LS-font_24x24.o [1]
GUI_FontLSfont_24x24_Prop121
                        0x08054170     0xc  Data  Gb  LS-font_24x24.o [1]
GUI_FontLSfont_24x24_Prop122
                        0x08054164     0xc  Data  Gb  LS-font_24x24.o [1]
GUI_FontLSfont_24x24_Prop123
                        0x08054158     0xc  Data  Gb  LS-font_24x24.o [1]
GUI_FontLSfont_24x24_Prop124
                        0x0805414c     0xc  Data  Gb  LS-font_24x24.o [1]
GUI_FontLSfont_24x24_Prop125
                        0x08054140     0xc  Data  Gb  LS-font_24x24.o [1]
GUI_FontLSfont_24x24_Prop126
                        0x08054134     0xc  Data  Gb  LS-font_24x24.o [1]
GUI_FontLSfont_24x24_Prop127
                        0x08054128     0xc  Data  Gb  LS-font_24x24.o [1]
GUI_FontLSfont_24x24_Prop128
                        0x0805411c     0xc  Data  Gb  LS-font_24x24.o [1]
GUI_FontLSfont_24x24_Prop129
                        0x08054110     0xc  Data  Gb  LS-font_24x24.o [1]
GUI_FontLSfont_24x24_Prop13
                        0x08054680     0xc  Data  Gb  LS-font_24x24.o [1]
GUI_FontLSfont_24x24_Prop130
                        0x08054104     0xc  Data  Gb  LS-font_24x24.o [1]
GUI_FontLSfont_24x24_Prop131
                        0x080540f8     0xc  Data  Gb  LS-font_24x24.o [1]
GUI_FontLSfont_24x24_Prop132
                        0x080540ec     0xc  Data  Gb  LS-font_24x24.o [1]
GUI_FontLSfont_24x24_Prop133
                        0x080540e0     0xc  Data  Gb  LS-font_24x24.o [1]
GUI_FontLSfont_24x24_Prop134
                        0x080540d4     0xc  Data  Gb  LS-font_24x24.o [1]
GUI_FontLSfont_24x24_Prop135
                        0x080540c8     0xc  Data  Gb  LS-font_24x24.o [1]
GUI_FontLSfont_24x24_Prop136
                        0x080540bc     0xc  Data  Gb  LS-font_24x24.o [1]
GUI_FontLSfont_24x24_Prop137
                        0x080540b0     0xc  Data  Gb  LS-font_24x24.o [1]
GUI_FontLSfont_24x24_Prop138
                        0x080540a4     0xc  Data  Gb  LS-font_24x24.o [1]
GUI_FontLSfont_24x24_Prop139
                        0x08054098     0xc  Data  Gb  LS-font_24x24.o [1]
GUI_FontLSfont_24x24_Prop14
                        0x08054674     0xc  Data  Gb  LS-font_24x24.o [1]
GUI_FontLSfont_24x24_Prop140
                        0x0805408c     0xc  Data  Gb  LS-font_24x24.o [1]
GUI_FontLSfont_24x24_Prop141
                        0x08054080     0xc  Data  Gb  LS-font_24x24.o [1]
GUI_FontLSfont_24x24_Prop142
                        0x08054074     0xc  Data  Gb  LS-font_24x24.o [1]
GUI_FontLSfont_24x24_Prop143
                        0x08054068     0xc  Data  Gb  LS-font_24x24.o [1]
GUI_FontLSfont_24x24_Prop144
                        0x0805405c     0xc  Data  Gb  LS-font_24x24.o [1]
GUI_FontLSfont_24x24_Prop145
                        0x08054050     0xc  Data  Gb  LS-font_24x24.o [1]
GUI_FontLSfont_24x24_Prop146
                        0x08054044     0xc  Data  Gb  LS-font_24x24.o [1]
GUI_FontLSfont_24x24_Prop147
                        0x08054038     0xc  Data  Gb  LS-font_24x24.o [1]
GUI_FontLSfont_24x24_Prop148
                        0x0805402c     0xc  Data  Gb  LS-font_24x24.o [1]
GUI_FontLSfont_24x24_Prop149
                        0x08054020     0xc  Data  Gb  LS-font_24x24.o [1]
GUI_FontLSfont_24x24_Prop15
                        0x08054668     0xc  Data  Gb  LS-font_24x24.o [1]
GUI_FontLSfont_24x24_Prop150
                        0x08054014     0xc  Data  Gb  LS-font_24x24.o [1]
GUI_FontLSfont_24x24_Prop151
                        0x08054008     0xc  Data  Gb  LS-font_24x24.o [1]
GUI_FontLSfont_24x24_Prop152
                        0x08053ffc     0xc  Data  Gb  LS-font_24x24.o [1]
GUI_FontLSfont_24x24_Prop153
                        0x08053ff0     0xc  Data  Gb  LS-font_24x24.o [1]
GUI_FontLSfont_24x24_Prop154
                        0x08053fe4     0xc  Data  Gb  LS-font_24x24.o [1]
GUI_FontLSfont_24x24_Prop155
                        0x08053fd8     0xc  Data  Gb  LS-font_24x24.o [1]
GUI_FontLSfont_24x24_Prop156
                        0x08053fcc     0xc  Data  Gb  LS-font_24x24.o [1]
GUI_FontLSfont_24x24_Prop157
                        0x08053fc0     0xc  Data  Gb  LS-font_24x24.o [1]
GUI_FontLSfont_24x24_Prop158
                        0x08053fb4     0xc  Data  Gb  LS-font_24x24.o [1]
GUI_FontLSfont_24x24_Prop159
                        0x08053fa8     0xc  Data  Gb  LS-font_24x24.o [1]
GUI_FontLSfont_24x24_Prop16
                        0x0805465c     0xc  Data  Gb  LS-font_24x24.o [1]
GUI_FontLSfont_24x24_Prop160
                        0x08053f9c     0xc  Data  Gb  LS-font_24x24.o [1]
GUI_FontLSfont_24x24_Prop161
                        0x08053f90     0xc  Data  Gb  LS-font_24x24.o [1]
GUI_FontLSfont_24x24_Prop162
                        0x08053f84     0xc  Data  Gb  LS-font_24x24.o [1]
GUI_FontLSfont_24x24_Prop163
                        0x08053f78     0xc  Data  Gb  LS-font_24x24.o [1]
GUI_FontLSfont_24x24_Prop164
                        0x08053f6c     0xc  Data  Gb  LS-font_24x24.o [1]
GUI_FontLSfont_24x24_Prop165
                        0x08053f60     0xc  Data  Gb  LS-font_24x24.o [1]
GUI_FontLSfont_24x24_Prop166
                        0x08053f54     0xc  Data  Gb  LS-font_24x24.o [1]
GUI_FontLSfont_24x24_Prop167
                        0x08053f48     0xc  Data  Gb  LS-font_24x24.o [1]
GUI_FontLSfont_24x24_Prop168
                        0x08053f3c     0xc  Data  Gb  LS-font_24x24.o [1]
GUI_FontLSfont_24x24_Prop169
                        0x08053f30     0xc  Data  Gb  LS-font_24x24.o [1]
GUI_FontLSfont_24x24_Prop17
                        0x08054650     0xc  Data  Gb  LS-font_24x24.o [1]
GUI_FontLSfont_24x24_Prop170
                        0x08053f24     0xc  Data  Gb  LS-font_24x24.o [1]
GUI_FontLSfont_24x24_Prop171
                        0x08053f18     0xc  Data  Gb  LS-font_24x24.o [1]
GUI_FontLSfont_24x24_Prop172
                        0x08053f0c     0xc  Data  Gb  LS-font_24x24.o [1]
GUI_FontLSfont_24x24_Prop173
                        0x08053f00     0xc  Data  Gb  LS-font_24x24.o [1]
GUI_FontLSfont_24x24_Prop174
                        0x08053ef4     0xc  Data  Gb  LS-font_24x24.o [1]
GUI_FontLSfont_24x24_Prop175
                        0x08053ee8     0xc  Data  Gb  LS-font_24x24.o [1]
GUI_FontLSfont_24x24_Prop176
                        0x08053edc     0xc  Data  Gb  LS-font_24x24.o [1]
GUI_FontLSfont_24x24_Prop177
                        0x08053ed0     0xc  Data  Gb  LS-font_24x24.o [1]
GUI_FontLSfont_24x24_Prop178
                        0x08053ec4     0xc  Data  Gb  LS-font_24x24.o [1]
GUI_FontLSfont_24x24_Prop179
                        0x08053eb8     0xc  Data  Gb  LS-font_24x24.o [1]
GUI_FontLSfont_24x24_Prop18
                        0x08054644     0xc  Data  Gb  LS-font_24x24.o [1]
GUI_FontLSfont_24x24_Prop180
                        0x08053eac     0xc  Data  Gb  LS-font_24x24.o [1]
GUI_FontLSfont_24x24_Prop181
                        0x08053ea0     0xc  Data  Gb  LS-font_24x24.o [1]
GUI_FontLSfont_24x24_Prop182
                        0x08053e94     0xc  Data  Gb  LS-font_24x24.o [1]
GUI_FontLSfont_24x24_Prop183
                        0x08053e88     0xc  Data  Gb  LS-font_24x24.o [1]
GUI_FontLSfont_24x24_Prop184
                        0x08053e7c     0xc  Data  Gb  LS-font_24x24.o [1]
GUI_FontLSfont_24x24_Prop185
                        0x08053e70     0xc  Data  Gb  LS-font_24x24.o [1]
GUI_FontLSfont_24x24_Prop186
                        0x08053e64     0xc  Data  Gb  LS-font_24x24.o [1]
GUI_FontLSfont_24x24_Prop187
                        0x08053e58     0xc  Data  Gb  LS-font_24x24.o [1]
GUI_FontLSfont_24x24_Prop188
                        0x08053e4c     0xc  Data  Gb  LS-font_24x24.o [1]
GUI_FontLSfont_24x24_Prop189
                        0x08053e40     0xc  Data  Gb  LS-font_24x24.o [1]
GUI_FontLSfont_24x24_Prop19
                        0x08054638     0xc  Data  Gb  LS-font_24x24.o [1]
GUI_FontLSfont_24x24_Prop190
                        0x08053e34     0xc  Data  Gb  LS-font_24x24.o [1]
GUI_FontLSfont_24x24_Prop191
                        0x08053e28     0xc  Data  Gb  LS-font_24x24.o [1]
GUI_FontLSfont_24x24_Prop192
                        0x08053e1c     0xc  Data  Gb  LS-font_24x24.o [1]
GUI_FontLSfont_24x24_Prop193
                        0x08053e10     0xc  Data  Gb  LS-font_24x24.o [1]
GUI_FontLSfont_24x24_Prop194
                        0x08053e04     0xc  Data  Gb  LS-font_24x24.o [1]
GUI_FontLSfont_24x24_Prop195
                        0x08053df8     0xc  Data  Gb  LS-font_24x24.o [1]
GUI_FontLSfont_24x24_Prop196
                        0x08053dec     0xc  Data  Gb  LS-font_24x24.o [1]
GUI_FontLSfont_24x24_Prop197
                        0x08053de0     0xc  Data  Gb  LS-font_24x24.o [1]
GUI_FontLSfont_24x24_Prop198
                        0x08053dd4     0xc  Data  Gb  LS-font_24x24.o [1]
GUI_FontLSfont_24x24_Prop199
                        0x08053dc8     0xc  Data  Gb  LS-font_24x24.o [1]
GUI_FontLSfont_24x24_Prop2
                        0x08054704     0xc  Data  Gb  LS-font_24x24.o [1]
GUI_FontLSfont_24x24_Prop20
                        0x0805462c     0xc  Data  Gb  LS-font_24x24.o [1]
GUI_FontLSfont_24x24_Prop200
                        0x08053dbc     0xc  Data  Gb  LS-font_24x24.o [1]
GUI_FontLSfont_24x24_Prop201
                        0x08053db0     0xc  Data  Gb  LS-font_24x24.o [1]
GUI_FontLSfont_24x24_Prop202
                        0x08053da4     0xc  Data  Gb  LS-font_24x24.o [1]
GUI_FontLSfont_24x24_Prop203
                        0x08053d98     0xc  Data  Gb  LS-font_24x24.o [1]
GUI_FontLSfont_24x24_Prop204
                        0x08053d8c     0xc  Data  Gb  LS-font_24x24.o [1]
GUI_FontLSfont_24x24_Prop205
                        0x08053d80     0xc  Data  Gb  LS-font_24x24.o [1]
GUI_FontLSfont_24x24_Prop206
                        0x08053d74     0xc  Data  Gb  LS-font_24x24.o [1]
GUI_FontLSfont_24x24_Prop207
                        0x08053d68     0xc  Data  Gb  LS-font_24x24.o [1]
GUI_FontLSfont_24x24_Prop208
                        0x08053d5c     0xc  Data  Gb  LS-font_24x24.o [1]
GUI_FontLSfont_24x24_Prop209
                        0x08053d50     0xc  Data  Gb  LS-font_24x24.o [1]
GUI_FontLSfont_24x24_Prop21
                        0x08054620     0xc  Data  Gb  LS-font_24x24.o [1]
GUI_FontLSfont_24x24_Prop210
                        0x08053d44     0xc  Data  Gb  LS-font_24x24.o [1]
GUI_FontLSfont_24x24_Prop211
                        0x08053d38     0xc  Data  Gb  LS-font_24x24.o [1]
GUI_FontLSfont_24x24_Prop212
                        0x08053d2c     0xc  Data  Gb  LS-font_24x24.o [1]
GUI_FontLSfont_24x24_Prop213
                        0x08053d20     0xc  Data  Gb  LS-font_24x24.o [1]
GUI_FontLSfont_24x24_Prop214
                        0x08053d14     0xc  Data  Gb  LS-font_24x24.o [1]
GUI_FontLSfont_24x24_Prop215
                        0x08053d08     0xc  Data  Gb  LS-font_24x24.o [1]
GUI_FontLSfont_24x24_Prop216
                        0x08053cfc     0xc  Data  Gb  LS-font_24x24.o [1]
GUI_FontLSfont_24x24_Prop217
                        0x08053cf0     0xc  Data  Gb  LS-font_24x24.o [1]
GUI_FontLSfont_24x24_Prop218
                        0x08053ce4     0xc  Data  Gb  LS-font_24x24.o [1]
GUI_FontLSfont_24x24_Prop219
                        0x08053cd8     0xc  Data  Gb  LS-font_24x24.o [1]
GUI_FontLSfont_24x24_Prop22
                        0x08054614     0xc  Data  Gb  LS-font_24x24.o [1]
GUI_FontLSfont_24x24_Prop220
                        0x08053ccc     0xc  Data  Gb  LS-font_24x24.o [1]
GUI_FontLSfont_24x24_Prop221
                        0x08053cc0     0xc  Data  Gb  LS-font_24x24.o [1]
GUI_FontLSfont_24x24_Prop222
                        0x08053cb4     0xc  Data  Gb  LS-font_24x24.o [1]
GUI_FontLSfont_24x24_Prop223
                        0x08053ca8     0xc  Data  Gb  LS-font_24x24.o [1]
GUI_FontLSfont_24x24_Prop224
                        0x08053c9c     0xc  Data  Gb  LS-font_24x24.o [1]
GUI_FontLSfont_24x24_Prop225
                        0x08053c90     0xc  Data  Gb  LS-font_24x24.o [1]
GUI_FontLSfont_24x24_Prop226
                        0x08053c84     0xc  Data  Gb  LS-font_24x24.o [1]
GUI_FontLSfont_24x24_Prop227
                        0x08053c78     0xc  Data  Gb  LS-font_24x24.o [1]
GUI_FontLSfont_24x24_Prop228
                        0x08053c6c     0xc  Data  Gb  LS-font_24x24.o [1]
GUI_FontLSfont_24x24_Prop229
                        0x08053c60     0xc  Data  Gb  LS-font_24x24.o [1]
GUI_FontLSfont_24x24_Prop23
                        0x08054608     0xc  Data  Gb  LS-font_24x24.o [1]
GUI_FontLSfont_24x24_Prop230
                        0x08053c54     0xc  Data  Gb  LS-font_24x24.o [1]
GUI_FontLSfont_24x24_Prop231
                        0x08053c48     0xc  Data  Gb  LS-font_24x24.o [1]
GUI_FontLSfont_24x24_Prop232
                        0x08053c3c     0xc  Data  Gb  LS-font_24x24.o [1]
GUI_FontLSfont_24x24_Prop233
                        0x08053c30     0xc  Data  Gb  LS-font_24x24.o [1]
GUI_FontLSfont_24x24_Prop234
                        0x08053c24     0xc  Data  Gb  LS-font_24x24.o [1]
GUI_FontLSfont_24x24_Prop235
                        0x08053c18     0xc  Data  Gb  LS-font_24x24.o [1]
GUI_FontLSfont_24x24_Prop236
                        0x08053c0c     0xc  Data  Gb  LS-font_24x24.o [1]
GUI_FontLSfont_24x24_Prop237
                        0x08053c00     0xc  Data  Gb  LS-font_24x24.o [1]
GUI_FontLSfont_24x24_Prop238
                        0x08053bf4     0xc  Data  Gb  LS-font_24x24.o [1]
GUI_FontLSfont_24x24_Prop239
                        0x08053be8     0xc  Data  Gb  LS-font_24x24.o [1]
GUI_FontLSfont_24x24_Prop24
                        0x080545fc     0xc  Data  Gb  LS-font_24x24.o [1]
GUI_FontLSfont_24x24_Prop240
                        0x08053bdc     0xc  Data  Gb  LS-font_24x24.o [1]
GUI_FontLSfont_24x24_Prop241
                        0x08053bd0     0xc  Data  Gb  LS-font_24x24.o [1]
GUI_FontLSfont_24x24_Prop242
                        0x08053bc4     0xc  Data  Gb  LS-font_24x24.o [1]
GUI_FontLSfont_24x24_Prop243
                        0x08053bb8     0xc  Data  Gb  LS-font_24x24.o [1]
GUI_FontLSfont_24x24_Prop244
                        0x08053bac     0xc  Data  Gb  LS-font_24x24.o [1]
GUI_FontLSfont_24x24_Prop245
                        0x08053ba0     0xc  Data  Gb  LS-font_24x24.o [1]
GUI_FontLSfont_24x24_Prop246
                        0x08053b94     0xc  Data  Gb  LS-font_24x24.o [1]
GUI_FontLSfont_24x24_Prop247
                        0x08053b88     0xc  Data  Gb  LS-font_24x24.o [1]
GUI_FontLSfont_24x24_Prop248
                        0x08053b7c     0xc  Data  Gb  LS-font_24x24.o [1]
GUI_FontLSfont_24x24_Prop249
                        0x08053b70     0xc  Data  Gb  LS-font_24x24.o [1]
GUI_FontLSfont_24x24_Prop25
                        0x080545f0     0xc  Data  Gb  LS-font_24x24.o [1]
GUI_FontLSfont_24x24_Prop250
                        0x08053b64     0xc  Data  Gb  LS-font_24x24.o [1]
GUI_FontLSfont_24x24_Prop251
                        0x08053b58     0xc  Data  Gb  LS-font_24x24.o [1]
GUI_FontLSfont_24x24_Prop252
                        0x08053b4c     0xc  Data  Gb  LS-font_24x24.o [1]
GUI_FontLSfont_24x24_Prop253
                        0x08053b40     0xc  Data  Gb  LS-font_24x24.o [1]
GUI_FontLSfont_24x24_Prop254
                        0x08053b34     0xc  Data  Gb  LS-font_24x24.o [1]
GUI_FontLSfont_24x24_Prop255
                        0x08053b28     0xc  Data  Gb  LS-font_24x24.o [1]
GUI_FontLSfont_24x24_Prop256
                        0x08053b1c     0xc  Data  Gb  LS-font_24x24.o [1]
GUI_FontLSfont_24x24_Prop257
                        0x08053b10     0xc  Data  Gb  LS-font_24x24.o [1]
GUI_FontLSfont_24x24_Prop258
                        0x08053b04     0xc  Data  Gb  LS-font_24x24.o [1]
GUI_FontLSfont_24x24_Prop259
                        0x08053af8     0xc  Data  Gb  LS-font_24x24.o [1]
GUI_FontLSfont_24x24_Prop26
                        0x080545e4     0xc  Data  Gb  LS-font_24x24.o [1]
GUI_FontLSfont_24x24_Prop260
                        0x08053aec     0xc  Data  Gb  LS-font_24x24.o [1]
GUI_FontLSfont_24x24_Prop261
                        0x08053ae0     0xc  Data  Gb  LS-font_24x24.o [1]
GUI_FontLSfont_24x24_Prop262
                        0x08053ad4     0xc  Data  Gb  LS-font_24x24.o [1]
GUI_FontLSfont_24x24_Prop263
                        0x08053ac8     0xc  Data  Gb  LS-font_24x24.o [1]
GUI_FontLSfont_24x24_Prop264
                        0x08053abc     0xc  Data  Gb  LS-font_24x24.o [1]
GUI_FontLSfont_24x24_Prop265
                        0x08053ab0     0xc  Data  Gb  LS-font_24x24.o [1]
GUI_FontLSfont_24x24_Prop266
                        0x08053aa4     0xc  Data  Gb  LS-font_24x24.o [1]
GUI_FontLSfont_24x24_Prop267
                        0x08053a98     0xc  Data  Gb  LS-font_24x24.o [1]
GUI_FontLSfont_24x24_Prop268
                        0x08053a8c     0xc  Data  Gb  LS-font_24x24.o [1]
GUI_FontLSfont_24x24_Prop269
                        0x08053a80     0xc  Data  Gb  LS-font_24x24.o [1]
GUI_FontLSfont_24x24_Prop27
                        0x080545d8     0xc  Data  Gb  LS-font_24x24.o [1]
GUI_FontLSfont_24x24_Prop270
                        0x08053a74     0xc  Data  Gb  LS-font_24x24.o [1]
GUI_FontLSfont_24x24_Prop271
                        0x08053a68     0xc  Data  Gb  LS-font_24x24.o [1]
GUI_FontLSfont_24x24_Prop272
                        0x08053a5c     0xc  Data  Gb  LS-font_24x24.o [1]
GUI_FontLSfont_24x24_Prop273
                        0x08053a50     0xc  Data  Gb  LS-font_24x24.o [1]
GUI_FontLSfont_24x24_Prop274
                        0x08053a44     0xc  Data  Gb  LS-font_24x24.o [1]
GUI_FontLSfont_24x24_Prop275
                        0x08053a38     0xc  Data  Gb  LS-font_24x24.o [1]
GUI_FontLSfont_24x24_Prop276
                        0x08053a2c     0xc  Data  Gb  LS-font_24x24.o [1]
GUI_FontLSfont_24x24_Prop277
                        0x08053a20     0xc  Data  Gb  LS-font_24x24.o [1]
GUI_FontLSfont_24x24_Prop278
                        0x08053a14     0xc  Data  Gb  LS-font_24x24.o [1]
GUI_FontLSfont_24x24_Prop279
                        0x08053a08     0xc  Data  Gb  LS-font_24x24.o [1]
GUI_FontLSfont_24x24_Prop28
                        0x080545cc     0xc  Data  Gb  LS-font_24x24.o [1]
GUI_FontLSfont_24x24_Prop280
                        0x080539fc     0xc  Data  Gb  LS-font_24x24.o [1]
GUI_FontLSfont_24x24_Prop281
                        0x080539f0     0xc  Data  Gb  LS-font_24x24.o [1]
GUI_FontLSfont_24x24_Prop282
                        0x080539e4     0xc  Data  Gb  LS-font_24x24.o [1]
GUI_FontLSfont_24x24_Prop283
                        0x080539d8     0xc  Data  Gb  LS-font_24x24.o [1]
GUI_FontLSfont_24x24_Prop284
                        0x080539cc     0xc  Data  Gb  LS-font_24x24.o [1]
GUI_FontLSfont_24x24_Prop285
                        0x080539c0     0xc  Data  Gb  LS-font_24x24.o [1]
GUI_FontLSfont_24x24_Prop286
                        0x080539b4     0xc  Data  Gb  LS-font_24x24.o [1]
GUI_FontLSfont_24x24_Prop287
                        0x080539a8     0xc  Data  Gb  LS-font_24x24.o [1]
GUI_FontLSfont_24x24_Prop288
                        0x0805399c     0xc  Data  Gb  LS-font_24x24.o [1]
GUI_FontLSfont_24x24_Prop289
                        0x08053990     0xc  Data  Gb  LS-font_24x24.o [1]
GUI_FontLSfont_24x24_Prop29
                        0x080545c0     0xc  Data  Gb  LS-font_24x24.o [1]
GUI_FontLSfont_24x24_Prop290
                        0x08053984     0xc  Data  Gb  LS-font_24x24.o [1]
GUI_FontLSfont_24x24_Prop291
                        0x08053978     0xc  Data  Gb  LS-font_24x24.o [1]
GUI_FontLSfont_24x24_Prop292
                        0x0805396c     0xc  Data  Gb  LS-font_24x24.o [1]
GUI_FontLSfont_24x24_Prop293
                        0x08053960     0xc  Data  Gb  LS-font_24x24.o [1]
GUI_FontLSfont_24x24_Prop294
                        0x08053954     0xc  Data  Gb  LS-font_24x24.o [1]
GUI_FontLSfont_24x24_Prop295
                        0x08053948     0xc  Data  Gb  LS-font_24x24.o [1]
GUI_FontLSfont_24x24_Prop296
                        0x0805393c     0xc  Data  Gb  LS-font_24x24.o [1]
GUI_FontLSfont_24x24_Prop297
                        0x08053930     0xc  Data  Gb  LS-font_24x24.o [1]
GUI_FontLSfont_24x24_Prop298
                        0x08053924     0xc  Data  Gb  LS-font_24x24.o [1]
GUI_FontLSfont_24x24_Prop299
                        0x08053918     0xc  Data  Gb  LS-font_24x24.o [1]
GUI_FontLSfont_24x24_Prop3
                        0x080546f8     0xc  Data  Gb  LS-font_24x24.o [1]
GUI_FontLSfont_24x24_Prop30
                        0x080545b4     0xc  Data  Gb  LS-font_24x24.o [1]
GUI_FontLSfont_24x24_Prop300
                        0x0805390c     0xc  Data  Gb  LS-font_24x24.o [1]
GUI_FontLSfont_24x24_Prop301
                        0x08053900     0xc  Data  Gb  LS-font_24x24.o [1]
GUI_FontLSfont_24x24_Prop302
                        0x080538f4     0xc  Data  Gb  LS-font_24x24.o [1]
GUI_FontLSfont_24x24_Prop303
                        0x080538e8     0xc  Data  Gb  LS-font_24x24.o [1]
GUI_FontLSfont_24x24_Prop304
                        0x080538dc     0xc  Data  Gb  LS-font_24x24.o [1]
GUI_FontLSfont_24x24_Prop305
                        0x080538d0     0xc  Data  Gb  LS-font_24x24.o [1]
GUI_FontLSfont_24x24_Prop306
                        0x080538c4     0xc  Data  Gb  LS-font_24x24.o [1]
GUI_FontLSfont_24x24_Prop307
                        0x080538b8     0xc  Data  Gb  LS-font_24x24.o [1]
GUI_FontLSfont_24x24_Prop308
                        0x080538ac     0xc  Data  Gb  LS-font_24x24.o [1]
GUI_FontLSfont_24x24_Prop309
                        0x080538a0     0xc  Data  Gb  LS-font_24x24.o [1]
GUI_FontLSfont_24x24_Prop31
                        0x080545a8     0xc  Data  Gb  LS-font_24x24.o [1]
GUI_FontLSfont_24x24_Prop310
                        0x08053894     0xc  Data  Gb  LS-font_24x24.o [1]
GUI_FontLSfont_24x24_Prop311
                        0x08053888     0xc  Data  Gb  LS-font_24x24.o [1]
GUI_FontLSfont_24x24_Prop312
                        0x0805387c     0xc  Data  Gb  LS-font_24x24.o [1]
GUI_FontLSfont_24x24_Prop313
                        0x08053870     0xc  Data  Gb  LS-font_24x24.o [1]
GUI_FontLSfont_24x24_Prop32
                        0x0805459c     0xc  Data  Gb  LS-font_24x24.o [1]
GUI_FontLSfont_24x24_Prop33
                        0x08054590     0xc  Data  Gb  LS-font_24x24.o [1]
GUI_FontLSfont_24x24_Prop34
                        0x08054584     0xc  Data  Gb  LS-font_24x24.o [1]
GUI_FontLSfont_24x24_Prop35
                        0x08054578     0xc  Data  Gb  LS-font_24x24.o [1]
GUI_FontLSfont_24x24_Prop36
                        0x0805456c     0xc  Data  Gb  LS-font_24x24.o [1]
GUI_FontLSfont_24x24_Prop37
                        0x08054560     0xc  Data  Gb  LS-font_24x24.o [1]
GUI_FontLSfont_24x24_Prop38
                        0x08054554     0xc  Data  Gb  LS-font_24x24.o [1]
GUI_FontLSfont_24x24_Prop39
                        0x08054548     0xc  Data  Gb  LS-font_24x24.o [1]
GUI_FontLSfont_24x24_Prop4
                        0x080546ec     0xc  Data  Gb  LS-font_24x24.o [1]
GUI_FontLSfont_24x24_Prop40
                        0x0805453c     0xc  Data  Gb  LS-font_24x24.o [1]
GUI_FontLSfont_24x24_Prop41
                        0x08054530     0xc  Data  Gb  LS-font_24x24.o [1]
GUI_FontLSfont_24x24_Prop42
                        0x08054524     0xc  Data  Gb  LS-font_24x24.o [1]
GUI_FontLSfont_24x24_Prop43
                        0x08054518     0xc  Data  Gb  LS-font_24x24.o [1]
GUI_FontLSfont_24x24_Prop44
                        0x0805450c     0xc  Data  Gb  LS-font_24x24.o [1]
GUI_FontLSfont_24x24_Prop45
                        0x08054500     0xc  Data  Gb  LS-font_24x24.o [1]
GUI_FontLSfont_24x24_Prop46
                        0x080544f4     0xc  Data  Gb  LS-font_24x24.o [1]
GUI_FontLSfont_24x24_Prop47
                        0x080544e8     0xc  Data  Gb  LS-font_24x24.o [1]
GUI_FontLSfont_24x24_Prop48
                        0x080544dc     0xc  Data  Gb  LS-font_24x24.o [1]
GUI_FontLSfont_24x24_Prop49
                        0x080544d0     0xc  Data  Gb  LS-font_24x24.o [1]
GUI_FontLSfont_24x24_Prop5
                        0x080546e0     0xc  Data  Gb  LS-font_24x24.o [1]
GUI_FontLSfont_24x24_Prop50
                        0x080544c4     0xc  Data  Gb  LS-font_24x24.o [1]
GUI_FontLSfont_24x24_Prop51
                        0x080544b8     0xc  Data  Gb  LS-font_24x24.o [1]
GUI_FontLSfont_24x24_Prop52
                        0x080544ac     0xc  Data  Gb  LS-font_24x24.o [1]
GUI_FontLSfont_24x24_Prop53
                        0x080544a0     0xc  Data  Gb  LS-font_24x24.o [1]
GUI_FontLSfont_24x24_Prop54
                        0x08054494     0xc  Data  Gb  LS-font_24x24.o [1]
GUI_FontLSfont_24x24_Prop55
                        0x08054488     0xc  Data  Gb  LS-font_24x24.o [1]
GUI_FontLSfont_24x24_Prop56
                        0x0805447c     0xc  Data  Gb  LS-font_24x24.o [1]
GUI_FontLSfont_24x24_Prop57
                        0x08054470     0xc  Data  Gb  LS-font_24x24.o [1]
GUI_FontLSfont_24x24_Prop58
                        0x08054464     0xc  Data  Gb  LS-font_24x24.o [1]
GUI_FontLSfont_24x24_Prop59
                        0x08054458     0xc  Data  Gb  LS-font_24x24.o [1]
GUI_FontLSfont_24x24_Prop6
                        0x080546d4     0xc  Data  Gb  LS-font_24x24.o [1]
GUI_FontLSfont_24x24_Prop60
                        0x0805444c     0xc  Data  Gb  LS-font_24x24.o [1]
GUI_FontLSfont_24x24_Prop61
                        0x08054440     0xc  Data  Gb  LS-font_24x24.o [1]
GUI_FontLSfont_24x24_Prop62
                        0x08054434     0xc  Data  Gb  LS-font_24x24.o [1]
GUI_FontLSfont_24x24_Prop63
                        0x08054428     0xc  Data  Gb  LS-font_24x24.o [1]
GUI_FontLSfont_24x24_Prop64
                        0x0805441c     0xc  Data  Gb  LS-font_24x24.o [1]
GUI_FontLSfont_24x24_Prop65
                        0x08054410     0xc  Data  Gb  LS-font_24x24.o [1]
GUI_FontLSfont_24x24_Prop66
                        0x08054404     0xc  Data  Gb  LS-font_24x24.o [1]
GUI_FontLSfont_24x24_Prop67
                        0x080543f8     0xc  Data  Gb  LS-font_24x24.o [1]
GUI_FontLSfont_24x24_Prop68
                        0x080543ec     0xc  Data  Gb  LS-font_24x24.o [1]
GUI_FontLSfont_24x24_Prop69
                        0x080543e0     0xc  Data  Gb  LS-font_24x24.o [1]
GUI_FontLSfont_24x24_Prop7
                        0x080546c8     0xc  Data  Gb  LS-font_24x24.o [1]
GUI_FontLSfont_24x24_Prop70
                        0x080543d4     0xc  Data  Gb  LS-font_24x24.o [1]
GUI_FontLSfont_24x24_Prop71
                        0x080543c8     0xc  Data  Gb  LS-font_24x24.o [1]
GUI_FontLSfont_24x24_Prop72
                        0x080543bc     0xc  Data  Gb  LS-font_24x24.o [1]
GUI_FontLSfont_24x24_Prop73
                        0x080543b0     0xc  Data  Gb  LS-font_24x24.o [1]
GUI_FontLSfont_24x24_Prop74
                        0x080543a4     0xc  Data  Gb  LS-font_24x24.o [1]
GUI_FontLSfont_24x24_Prop75
                        0x08054398     0xc  Data  Gb  LS-font_24x24.o [1]
GUI_FontLSfont_24x24_Prop76
                        0x0805438c     0xc  Data  Gb  LS-font_24x24.o [1]
GUI_FontLSfont_24x24_Prop77
                        0x08054380     0xc  Data  Gb  LS-font_24x24.o [1]
GUI_FontLSfont_24x24_Prop78
                        0x08054374     0xc  Data  Gb  LS-font_24x24.o [1]
GUI_FontLSfont_24x24_Prop79
                        0x08054368     0xc  Data  Gb  LS-font_24x24.o [1]
GUI_FontLSfont_24x24_Prop8
                        0x080546bc     0xc  Data  Gb  LS-font_24x24.o [1]
GUI_FontLSfont_24x24_Prop80
                        0x0805435c     0xc  Data  Gb  LS-font_24x24.o [1]
GUI_FontLSfont_24x24_Prop81
                        0x08054350     0xc  Data  Gb  LS-font_24x24.o [1]
GUI_FontLSfont_24x24_Prop82
                        0x08054344     0xc  Data  Gb  LS-font_24x24.o [1]
GUI_FontLSfont_24x24_Prop83
                        0x08054338     0xc  Data  Gb  LS-font_24x24.o [1]
GUI_FontLSfont_24x24_Prop84
                        0x0805432c     0xc  Data  Gb  LS-font_24x24.o [1]
GUI_FontLSfont_24x24_Prop85
                        0x08054320     0xc  Data  Gb  LS-font_24x24.o [1]
GUI_FontLSfont_24x24_Prop86
                        0x08054314     0xc  Data  Gb  LS-font_24x24.o [1]
GUI_FontLSfont_24x24_Prop87
                        0x08054308     0xc  Data  Gb  LS-font_24x24.o [1]
GUI_FontLSfont_24x24_Prop88
                        0x080542fc     0xc  Data  Gb  LS-font_24x24.o [1]
GUI_FontLSfont_24x24_Prop89
                        0x080542f0     0xc  Data  Gb  LS-font_24x24.o [1]
GUI_FontLSfont_24x24_Prop9
                        0x080546b0     0xc  Data  Gb  LS-font_24x24.o [1]
GUI_FontLSfont_24x24_Prop90
                        0x080542e4     0xc  Data  Gb  LS-font_24x24.o [1]
GUI_FontLSfont_24x24_Prop91
                        0x080542d8     0xc  Data  Gb  LS-font_24x24.o [1]
GUI_FontLSfont_24x24_Prop92
                        0x080542cc     0xc  Data  Gb  LS-font_24x24.o [1]
GUI_FontLSfont_24x24_Prop93
                        0x080542c0     0xc  Data  Gb  LS-font_24x24.o [1]
GUI_FontLSfont_24x24_Prop94
                        0x080542b4     0xc  Data  Gb  LS-font_24x24.o [1]
GUI_FontLSfont_24x24_Prop95
                        0x080542a8     0xc  Data  Gb  LS-font_24x24.o [1]
GUI_FontLSfont_24x24_Prop96
                        0x0805429c     0xc  Data  Gb  LS-font_24x24.o [1]
GUI_FontLSfont_24x24_Prop97
                        0x08054290     0xc  Data  Gb  LS-font_24x24.o [1]
GUI_FontLSfont_24x24_Prop98
                        0x08054284     0xc  Data  Gb  LS-font_24x24.o [1]
GUI_FontLSfont_24x24_Prop99
                        0x08054278     0xc  Data  Gb  LS-font_24x24.o [1]
GUI_Fontcyrillic16_16x16
                        0x08064b18    0x24  Data  Gb  cyrillic16_16x16.o [1]
GUI_Fontcyrillic16_16x16_CharInfo
                        0x08062ec8  0x180c  Data  Gb  cyrillic16_16x16.o [1]
GUI_Fontcyrillic16_16x16_Prop1
                        0x08064b0c     0xc  Data  Gb  cyrillic16_16x16.o [1]
GUI_Fontcyrillic16_16x16_Prop10
                        0x08064aa0     0xc  Data  Gb  cyrillic16_16x16.o [1]
GUI_Fontcyrillic16_16x16_Prop11
                        0x08064a94     0xc  Data  Gb  cyrillic16_16x16.o [1]
GUI_Fontcyrillic16_16x16_Prop12
                        0x08064a88     0xc  Data  Gb  cyrillic16_16x16.o [1]
GUI_Fontcyrillic16_16x16_Prop13
                        0x08064a7c     0xc  Data  Gb  cyrillic16_16x16.o [1]
GUI_Fontcyrillic16_16x16_Prop14
                        0x08064a70     0xc  Data  Gb  cyrillic16_16x16.o [1]
GUI_Fontcyrillic16_16x16_Prop15
                        0x08064a64     0xc  Data  Gb  cyrillic16_16x16.o [1]
GUI_Fontcyrillic16_16x16_Prop16
                        0x08064a58     0xc  Data  Gb  cyrillic16_16x16.o [1]
GUI_Fontcyrillic16_16x16_Prop17
                        0x08064a4c     0xc  Data  Gb  cyrillic16_16x16.o [1]
GUI_Fontcyrillic16_16x16_Prop18
                        0x08064a40     0xc  Data  Gb  cyrillic16_16x16.o [1]
GUI_Fontcyrillic16_16x16_Prop19
                        0x08064a34     0xc  Data  Gb  cyrillic16_16x16.o [1]
GUI_Fontcyrillic16_16x16_Prop2
                        0x08064b00     0xc  Data  Gb  cyrillic16_16x16.o [1]
GUI_Fontcyrillic16_16x16_Prop20
                        0x08064a28     0xc  Data  Gb  cyrillic16_16x16.o [1]
GUI_Fontcyrillic16_16x16_Prop21
                        0x08064a1c     0xc  Data  Gb  cyrillic16_16x16.o [1]
GUI_Fontcyrillic16_16x16_Prop22
                        0x08064a10     0xc  Data  Gb  cyrillic16_16x16.o [1]
GUI_Fontcyrillic16_16x16_Prop23
                        0x08064a04     0xc  Data  Gb  cyrillic16_16x16.o [1]
GUI_Fontcyrillic16_16x16_Prop24
                        0x080649f8     0xc  Data  Gb  cyrillic16_16x16.o [1]
GUI_Fontcyrillic16_16x16_Prop25
                        0x080649ec     0xc  Data  Gb  cyrillic16_16x16.o [1]
GUI_Fontcyrillic16_16x16_Prop26
                        0x080649e0     0xc  Data  Gb  cyrillic16_16x16.o [1]
GUI_Fontcyrillic16_16x16_Prop27
                        0x080649d4     0xc  Data  Gb  cyrillic16_16x16.o [1]
GUI_Fontcyrillic16_16x16_Prop28
                        0x080649c8     0xc  Data  Gb  cyrillic16_16x16.o [1]
GUI_Fontcyrillic16_16x16_Prop29
                        0x080649bc     0xc  Data  Gb  cyrillic16_16x16.o [1]
GUI_Fontcyrillic16_16x16_Prop3
                        0x08064af4     0xc  Data  Gb  cyrillic16_16x16.o [1]
GUI_Fontcyrillic16_16x16_Prop30
                        0x080649b0     0xc  Data  Gb  cyrillic16_16x16.o [1]
GUI_Fontcyrillic16_16x16_Prop31
                        0x080649a4     0xc  Data  Gb  cyrillic16_16x16.o [1]
GUI_Fontcyrillic16_16x16_Prop32
                        0x08064998     0xc  Data  Gb  cyrillic16_16x16.o [1]
GUI_Fontcyrillic16_16x16_Prop33
                        0x0806498c     0xc  Data  Gb  cyrillic16_16x16.o [1]
GUI_Fontcyrillic16_16x16_Prop34
                        0x08064980     0xc  Data  Gb  cyrillic16_16x16.o [1]
GUI_Fontcyrillic16_16x16_Prop35
                        0x08064974     0xc  Data  Gb  cyrillic16_16x16.o [1]
GUI_Fontcyrillic16_16x16_Prop36
                        0x08064968     0xc  Data  Gb  cyrillic16_16x16.o [1]
GUI_Fontcyrillic16_16x16_Prop37
                        0x0806495c     0xc  Data  Gb  cyrillic16_16x16.o [1]
GUI_Fontcyrillic16_16x16_Prop38
                        0x08064950     0xc  Data  Gb  cyrillic16_16x16.o [1]
GUI_Fontcyrillic16_16x16_Prop39
                        0x08064944     0xc  Data  Gb  cyrillic16_16x16.o [1]
GUI_Fontcyrillic16_16x16_Prop4
                        0x08064ae8     0xc  Data  Gb  cyrillic16_16x16.o [1]
GUI_Fontcyrillic16_16x16_Prop40
                        0x08064938     0xc  Data  Gb  cyrillic16_16x16.o [1]
GUI_Fontcyrillic16_16x16_Prop41
                        0x0806492c     0xc  Data  Gb  cyrillic16_16x16.o [1]
GUI_Fontcyrillic16_16x16_Prop42
                        0x08064920     0xc  Data  Gb  cyrillic16_16x16.o [1]
GUI_Fontcyrillic16_16x16_Prop43
                        0x08064914     0xc  Data  Gb  cyrillic16_16x16.o [1]
GUI_Fontcyrillic16_16x16_Prop44
                        0x08064908     0xc  Data  Gb  cyrillic16_16x16.o [1]
GUI_Fontcyrillic16_16x16_Prop45
                        0x080648fc     0xc  Data  Gb  cyrillic16_16x16.o [1]
GUI_Fontcyrillic16_16x16_Prop46
                        0x080648f0     0xc  Data  Gb  cyrillic16_16x16.o [1]
GUI_Fontcyrillic16_16x16_Prop47
                        0x080648e4     0xc  Data  Gb  cyrillic16_16x16.o [1]
GUI_Fontcyrillic16_16x16_Prop48
                        0x080648d8     0xc  Data  Gb  cyrillic16_16x16.o [1]
GUI_Fontcyrillic16_16x16_Prop49
                        0x080648cc     0xc  Data  Gb  cyrillic16_16x16.o [1]
GUI_Fontcyrillic16_16x16_Prop5
                        0x08064adc     0xc  Data  Gb  cyrillic16_16x16.o [1]
GUI_Fontcyrillic16_16x16_Prop50
                        0x080648c0     0xc  Data  Gb  cyrillic16_16x16.o [1]
GUI_Fontcyrillic16_16x16_Prop51
                        0x080648b4     0xc  Data  Gb  cyrillic16_16x16.o [1]
GUI_Fontcyrillic16_16x16_Prop52
                        0x080648a8     0xc  Data  Gb  cyrillic16_16x16.o [1]
GUI_Fontcyrillic16_16x16_Prop53
                        0x0806489c     0xc  Data  Gb  cyrillic16_16x16.o [1]
GUI_Fontcyrillic16_16x16_Prop54
                        0x08064890     0xc  Data  Gb  cyrillic16_16x16.o [1]
GUI_Fontcyrillic16_16x16_Prop55
                        0x08064884     0xc  Data  Gb  cyrillic16_16x16.o [1]
GUI_Fontcyrillic16_16x16_Prop56
                        0x08064878     0xc  Data  Gb  cyrillic16_16x16.o [1]
GUI_Fontcyrillic16_16x16_Prop57
                        0x0806486c     0xc  Data  Gb  cyrillic16_16x16.o [1]
GUI_Fontcyrillic16_16x16_Prop58
                        0x08064860     0xc  Data  Gb  cyrillic16_16x16.o [1]
GUI_Fontcyrillic16_16x16_Prop59
                        0x08064854     0xc  Data  Gb  cyrillic16_16x16.o [1]
GUI_Fontcyrillic16_16x16_Prop6
                        0x08064ad0     0xc  Data  Gb  cyrillic16_16x16.o [1]
GUI_Fontcyrillic16_16x16_Prop60
                        0x08064848     0xc  Data  Gb  cyrillic16_16x16.o [1]
GUI_Fontcyrillic16_16x16_Prop61
                        0x0806483c     0xc  Data  Gb  cyrillic16_16x16.o [1]
GUI_Fontcyrillic16_16x16_Prop62
                        0x08064830     0xc  Data  Gb  cyrillic16_16x16.o [1]
GUI_Fontcyrillic16_16x16_Prop63
                        0x08064824     0xc  Data  Gb  cyrillic16_16x16.o [1]
GUI_Fontcyrillic16_16x16_Prop64
                        0x08064818     0xc  Data  Gb  cyrillic16_16x16.o [1]
GUI_Fontcyrillic16_16x16_Prop65
                        0x0806480c     0xc  Data  Gb  cyrillic16_16x16.o [1]
GUI_Fontcyrillic16_16x16_Prop66
                        0x08064800     0xc  Data  Gb  cyrillic16_16x16.o [1]
GUI_Fontcyrillic16_16x16_Prop67
                        0x080647f4     0xc  Data  Gb  cyrillic16_16x16.o [1]
GUI_Fontcyrillic16_16x16_Prop68
                        0x080647e8     0xc  Data  Gb  cyrillic16_16x16.o [1]
GUI_Fontcyrillic16_16x16_Prop69
                        0x080647dc     0xc  Data  Gb  cyrillic16_16x16.o [1]
GUI_Fontcyrillic16_16x16_Prop7
                        0x08064ac4     0xc  Data  Gb  cyrillic16_16x16.o [1]
GUI_Fontcyrillic16_16x16_Prop70
                        0x080647d0     0xc  Data  Gb  cyrillic16_16x16.o [1]
GUI_Fontcyrillic16_16x16_Prop71
                        0x080647c4     0xc  Data  Gb  cyrillic16_16x16.o [1]
GUI_Fontcyrillic16_16x16_Prop72
                        0x080647b8     0xc  Data  Gb  cyrillic16_16x16.o [1]
GUI_Fontcyrillic16_16x16_Prop73
                        0x080647ac     0xc  Data  Gb  cyrillic16_16x16.o [1]
GUI_Fontcyrillic16_16x16_Prop74
                        0x080647a0     0xc  Data  Gb  cyrillic16_16x16.o [1]
GUI_Fontcyrillic16_16x16_Prop75
                        0x08064794     0xc  Data  Gb  cyrillic16_16x16.o [1]
GUI_Fontcyrillic16_16x16_Prop76
                        0x08064788     0xc  Data  Gb  cyrillic16_16x16.o [1]
GUI_Fontcyrillic16_16x16_Prop77
                        0x0806477c     0xc  Data  Gb  cyrillic16_16x16.o [1]
GUI_Fontcyrillic16_16x16_Prop78
                        0x08064770     0xc  Data  Gb  cyrillic16_16x16.o [1]
GUI_Fontcyrillic16_16x16_Prop79
                        0x08064764     0xc  Data  Gb  cyrillic16_16x16.o [1]
GUI_Fontcyrillic16_16x16_Prop8
                        0x08064ab8     0xc  Data  Gb  cyrillic16_16x16.o [1]
GUI_Fontcyrillic16_16x16_Prop80
                        0x08064758     0xc  Data  Gb  cyrillic16_16x16.o [1]
GUI_Fontcyrillic16_16x16_Prop81
                        0x0806474c     0xc  Data  Gb  cyrillic16_16x16.o [1]
GUI_Fontcyrillic16_16x16_Prop82
                        0x08064740     0xc  Data  Gb  cyrillic16_16x16.o [1]
GUI_Fontcyrillic16_16x16_Prop83
                        0x08064734     0xc  Data  Gb  cyrillic16_16x16.o [1]
GUI_Fontcyrillic16_16x16_Prop84
                        0x08064728     0xc  Data  Gb  cyrillic16_16x16.o [1]
GUI_Fontcyrillic16_16x16_Prop85
                        0x0806471c     0xc  Data  Gb  cyrillic16_16x16.o [1]
GUI_Fontcyrillic16_16x16_Prop86
                        0x08064710     0xc  Data  Gb  cyrillic16_16x16.o [1]
GUI_Fontcyrillic16_16x16_Prop87
                        0x08064704     0xc  Data  Gb  cyrillic16_16x16.o [1]
GUI_Fontcyrillic16_16x16_Prop88
                        0x080646f8     0xc  Data  Gb  cyrillic16_16x16.o [1]
GUI_Fontcyrillic16_16x16_Prop89
                        0x080646ec     0xc  Data  Gb  cyrillic16_16x16.o [1]
GUI_Fontcyrillic16_16x16_Prop9
                        0x08064aac     0xc  Data  Gb  cyrillic16_16x16.o [1]
GUI_Fontcyrillic16_16x16_Prop90
                        0x080646e0     0xc  Data  Gb  cyrillic16_16x16.o [1]
GUI_Fontcyrillic16_16x16_Prop91
                        0x080646d4     0xc  Data  Gb  cyrillic16_16x16.o [1]
GUI_Fontcyrillic20_20x20
                        0x080691e8    0x24  Data  Gb  cyrillic20_20x20.o [1]
GUI_Fontcyrillic20_20x20_CharInfo
                        0x08067bf8  0x12e4  Data  Gb  cyrillic20_20x20.o [1]
GUI_Fontcyrillic20_20x20_Prop1
                        0x080691dc     0xc  Data  Gb  cyrillic20_20x20.o [1]
GUI_Fontcyrillic20_20x20_Prop10
                        0x08069170     0xc  Data  Gb  cyrillic20_20x20.o [1]
GUI_Fontcyrillic20_20x20_Prop11
                        0x08069164     0xc  Data  Gb  cyrillic20_20x20.o [1]
GUI_Fontcyrillic20_20x20_Prop12
                        0x08069158     0xc  Data  Gb  cyrillic20_20x20.o [1]
GUI_Fontcyrillic20_20x20_Prop13
                        0x0806914c     0xc  Data  Gb  cyrillic20_20x20.o [1]
GUI_Fontcyrillic20_20x20_Prop14
                        0x08069140     0xc  Data  Gb  cyrillic20_20x20.o [1]
GUI_Fontcyrillic20_20x20_Prop15
                        0x08069134     0xc  Data  Gb  cyrillic20_20x20.o [1]
GUI_Fontcyrillic20_20x20_Prop16
                        0x08069128     0xc  Data  Gb  cyrillic20_20x20.o [1]
GUI_Fontcyrillic20_20x20_Prop17
                        0x0806911c     0xc  Data  Gb  cyrillic20_20x20.o [1]
GUI_Fontcyrillic20_20x20_Prop18
                        0x08069110     0xc  Data  Gb  cyrillic20_20x20.o [1]
GUI_Fontcyrillic20_20x20_Prop19
                        0x08069104     0xc  Data  Gb  cyrillic20_20x20.o [1]
GUI_Fontcyrillic20_20x20_Prop2
                        0x080691d0     0xc  Data  Gb  cyrillic20_20x20.o [1]
GUI_Fontcyrillic20_20x20_Prop20
                        0x080690f8     0xc  Data  Gb  cyrillic20_20x20.o [1]
GUI_Fontcyrillic20_20x20_Prop21
                        0x080690ec     0xc  Data  Gb  cyrillic20_20x20.o [1]
GUI_Fontcyrillic20_20x20_Prop22
                        0x080690e0     0xc  Data  Gb  cyrillic20_20x20.o [1]
GUI_Fontcyrillic20_20x20_Prop23
                        0x080690d4     0xc  Data  Gb  cyrillic20_20x20.o [1]
GUI_Fontcyrillic20_20x20_Prop24
                        0x080690c8     0xc  Data  Gb  cyrillic20_20x20.o [1]
GUI_Fontcyrillic20_20x20_Prop25
                        0x080690bc     0xc  Data  Gb  cyrillic20_20x20.o [1]
GUI_Fontcyrillic20_20x20_Prop26
                        0x080690b0     0xc  Data  Gb  cyrillic20_20x20.o [1]
GUI_Fontcyrillic20_20x20_Prop27
                        0x080690a4     0xc  Data  Gb  cyrillic20_20x20.o [1]
GUI_Fontcyrillic20_20x20_Prop28
                        0x08069098     0xc  Data  Gb  cyrillic20_20x20.o [1]
GUI_Fontcyrillic20_20x20_Prop29
                        0x0806908c     0xc  Data  Gb  cyrillic20_20x20.o [1]
GUI_Fontcyrillic20_20x20_Prop3
                        0x080691c4     0xc  Data  Gb  cyrillic20_20x20.o [1]
GUI_Fontcyrillic20_20x20_Prop30
                        0x08069080     0xc  Data  Gb  cyrillic20_20x20.o [1]
GUI_Fontcyrillic20_20x20_Prop31
                        0x08069074     0xc  Data  Gb  cyrillic20_20x20.o [1]
GUI_Fontcyrillic20_20x20_Prop32
                        0x08069068     0xc  Data  Gb  cyrillic20_20x20.o [1]
GUI_Fontcyrillic20_20x20_Prop33
                        0x0806905c     0xc  Data  Gb  cyrillic20_20x20.o [1]
GUI_Fontcyrillic20_20x20_Prop34
                        0x08069050     0xc  Data  Gb  cyrillic20_20x20.o [1]
GUI_Fontcyrillic20_20x20_Prop35
                        0x08069044     0xc  Data  Gb  cyrillic20_20x20.o [1]
GUI_Fontcyrillic20_20x20_Prop36
                        0x08069038     0xc  Data  Gb  cyrillic20_20x20.o [1]
GUI_Fontcyrillic20_20x20_Prop37
                        0x0806902c     0xc  Data  Gb  cyrillic20_20x20.o [1]
GUI_Fontcyrillic20_20x20_Prop38
                        0x08069020     0xc  Data  Gb  cyrillic20_20x20.o [1]
GUI_Fontcyrillic20_20x20_Prop39
                        0x08069014     0xc  Data  Gb  cyrillic20_20x20.o [1]
GUI_Fontcyrillic20_20x20_Prop4
                        0x080691b8     0xc  Data  Gb  cyrillic20_20x20.o [1]
GUI_Fontcyrillic20_20x20_Prop40
                        0x08069008     0xc  Data  Gb  cyrillic20_20x20.o [1]
GUI_Fontcyrillic20_20x20_Prop41
                        0x08068ffc     0xc  Data  Gb  cyrillic20_20x20.o [1]
GUI_Fontcyrillic20_20x20_Prop42
                        0x08068ff0     0xc  Data  Gb  cyrillic20_20x20.o [1]
GUI_Fontcyrillic20_20x20_Prop43
                        0x08068fe4     0xc  Data  Gb  cyrillic20_20x20.o [1]
GUI_Fontcyrillic20_20x20_Prop44
                        0x08068fd8     0xc  Data  Gb  cyrillic20_20x20.o [1]
GUI_Fontcyrillic20_20x20_Prop45
                        0x08068fcc     0xc  Data  Gb  cyrillic20_20x20.o [1]
GUI_Fontcyrillic20_20x20_Prop46
                        0x08068fc0     0xc  Data  Gb  cyrillic20_20x20.o [1]
GUI_Fontcyrillic20_20x20_Prop47
                        0x08068fb4     0xc  Data  Gb  cyrillic20_20x20.o [1]
GUI_Fontcyrillic20_20x20_Prop48
                        0x08068fa8     0xc  Data  Gb  cyrillic20_20x20.o [1]
GUI_Fontcyrillic20_20x20_Prop49
                        0x08068f9c     0xc  Data  Gb  cyrillic20_20x20.o [1]
GUI_Fontcyrillic20_20x20_Prop5
                        0x080691ac     0xc  Data  Gb  cyrillic20_20x20.o [1]
GUI_Fontcyrillic20_20x20_Prop50
                        0x08068f90     0xc  Data  Gb  cyrillic20_20x20.o [1]
GUI_Fontcyrillic20_20x20_Prop51
                        0x08068f84     0xc  Data  Gb  cyrillic20_20x20.o [1]
GUI_Fontcyrillic20_20x20_Prop52
                        0x08068f78     0xc  Data  Gb  cyrillic20_20x20.o [1]
GUI_Fontcyrillic20_20x20_Prop53
                        0x08068f6c     0xc  Data  Gb  cyrillic20_20x20.o [1]
GUI_Fontcyrillic20_20x20_Prop54
                        0x08068f60     0xc  Data  Gb  cyrillic20_20x20.o [1]
GUI_Fontcyrillic20_20x20_Prop55
                        0x08068f54     0xc  Data  Gb  cyrillic20_20x20.o [1]
GUI_Fontcyrillic20_20x20_Prop56
                        0x08068f48     0xc  Data  Gb  cyrillic20_20x20.o [1]
GUI_Fontcyrillic20_20x20_Prop57
                        0x08068f3c     0xc  Data  Gb  cyrillic20_20x20.o [1]
GUI_Fontcyrillic20_20x20_Prop58
                        0x08068f30     0xc  Data  Gb  cyrillic20_20x20.o [1]
GUI_Fontcyrillic20_20x20_Prop59
                        0x08068f24     0xc  Data  Gb  cyrillic20_20x20.o [1]
GUI_Fontcyrillic20_20x20_Prop6
                        0x080691a0     0xc  Data  Gb  cyrillic20_20x20.o [1]
GUI_Fontcyrillic20_20x20_Prop60
                        0x08068f18     0xc  Data  Gb  cyrillic20_20x20.o [1]
GUI_Fontcyrillic20_20x20_Prop61
                        0x08068f0c     0xc  Data  Gb  cyrillic20_20x20.o [1]
GUI_Fontcyrillic20_20x20_Prop62
                        0x08068f00     0xc  Data  Gb  cyrillic20_20x20.o [1]
GUI_Fontcyrillic20_20x20_Prop63
                        0x08068ef4     0xc  Data  Gb  cyrillic20_20x20.o [1]
GUI_Fontcyrillic20_20x20_Prop64
                        0x08068ee8     0xc  Data  Gb  cyrillic20_20x20.o [1]
GUI_Fontcyrillic20_20x20_Prop65
                        0x08068edc     0xc  Data  Gb  cyrillic20_20x20.o [1]
GUI_Fontcyrillic20_20x20_Prop7
                        0x08069194     0xc  Data  Gb  cyrillic20_20x20.o [1]
GUI_Fontcyrillic20_20x20_Prop8
                        0x08069188     0xc  Data  Gb  cyrillic20_20x20.o [1]
GUI_Fontcyrillic20_20x20_Prop9
                        0x0806917c     0xc  Data  Gb  cyrillic20_20x20.o [1]
GUI_Fontcyrillic_24x24  0x08060398    0x24  Data  Gb  cyrillic_24x24.o [1]
GUI_Fontcyrillic_24x24_CharInfo
                        0x0805eb08  0x14c4  Data  Gb  cyrillic_24x24.o [1]
GUI_Fontcyrillic_24x24_Prop1
                        0x0806038c     0xc  Data  Gb  cyrillic_24x24.o [1]
GUI_Fontcyrillic_24x24_Prop10
                        0x08060320     0xc  Data  Gb  cyrillic_24x24.o [1]
GUI_Fontcyrillic_24x24_Prop11
                        0x08060314     0xc  Data  Gb  cyrillic_24x24.o [1]
GUI_Fontcyrillic_24x24_Prop12
                        0x08060308     0xc  Data  Gb  cyrillic_24x24.o [1]
GUI_Fontcyrillic_24x24_Prop13
                        0x080602fc     0xc  Data  Gb  cyrillic_24x24.o [1]
GUI_Fontcyrillic_24x24_Prop14
                        0x080602f0     0xc  Data  Gb  cyrillic_24x24.o [1]
GUI_Fontcyrillic_24x24_Prop15
                        0x080602e4     0xc  Data  Gb  cyrillic_24x24.o [1]
GUI_Fontcyrillic_24x24_Prop16
                        0x080602d8     0xc  Data  Gb  cyrillic_24x24.o [1]
GUI_Fontcyrillic_24x24_Prop17
                        0x080602cc     0xc  Data  Gb  cyrillic_24x24.o [1]
GUI_Fontcyrillic_24x24_Prop18
                        0x080602c0     0xc  Data  Gb  cyrillic_24x24.o [1]
GUI_Fontcyrillic_24x24_Prop19
                        0x080602b4     0xc  Data  Gb  cyrillic_24x24.o [1]
GUI_Fontcyrillic_24x24_Prop2
                        0x08060380     0xc  Data  Gb  cyrillic_24x24.o [1]
GUI_Fontcyrillic_24x24_Prop20
                        0x080602a8     0xc  Data  Gb  cyrillic_24x24.o [1]
GUI_Fontcyrillic_24x24_Prop21
                        0x0806029c     0xc  Data  Gb  cyrillic_24x24.o [1]
GUI_Fontcyrillic_24x24_Prop22
                        0x08060290     0xc  Data  Gb  cyrillic_24x24.o [1]
GUI_Fontcyrillic_24x24_Prop23
                        0x08060284     0xc  Data  Gb  cyrillic_24x24.o [1]
GUI_Fontcyrillic_24x24_Prop24
                        0x08060278     0xc  Data  Gb  cyrillic_24x24.o [1]
GUI_Fontcyrillic_24x24_Prop25
                        0x0806026c     0xc  Data  Gb  cyrillic_24x24.o [1]
GUI_Fontcyrillic_24x24_Prop26
                        0x08060260     0xc  Data  Gb  cyrillic_24x24.o [1]
GUI_Fontcyrillic_24x24_Prop27
                        0x08060254     0xc  Data  Gb  cyrillic_24x24.o [1]
GUI_Fontcyrillic_24x24_Prop28
                        0x08060248     0xc  Data  Gb  cyrillic_24x24.o [1]
GUI_Fontcyrillic_24x24_Prop29
                        0x0806023c     0xc  Data  Gb  cyrillic_24x24.o [1]
GUI_Fontcyrillic_24x24_Prop3
                        0x08060374     0xc  Data  Gb  cyrillic_24x24.o [1]
GUI_Fontcyrillic_24x24_Prop30
                        0x08060230     0xc  Data  Gb  cyrillic_24x24.o [1]
GUI_Fontcyrillic_24x24_Prop31
                        0x08060224     0xc  Data  Gb  cyrillic_24x24.o [1]
GUI_Fontcyrillic_24x24_Prop32
                        0x08060218     0xc  Data  Gb  cyrillic_24x24.o [1]
GUI_Fontcyrillic_24x24_Prop33
                        0x0806020c     0xc  Data  Gb  cyrillic_24x24.o [1]
GUI_Fontcyrillic_24x24_Prop34
                        0x08060200     0xc  Data  Gb  cyrillic_24x24.o [1]
GUI_Fontcyrillic_24x24_Prop35
                        0x080601f4     0xc  Data  Gb  cyrillic_24x24.o [1]
GUI_Fontcyrillic_24x24_Prop36
                        0x080601e8     0xc  Data  Gb  cyrillic_24x24.o [1]
GUI_Fontcyrillic_24x24_Prop37
                        0x080601dc     0xc  Data  Gb  cyrillic_24x24.o [1]
GUI_Fontcyrillic_24x24_Prop38
                        0x080601d0     0xc  Data  Gb  cyrillic_24x24.o [1]
GUI_Fontcyrillic_24x24_Prop39
                        0x080601c4     0xc  Data  Gb  cyrillic_24x24.o [1]
GUI_Fontcyrillic_24x24_Prop4
                        0x08060368     0xc  Data  Gb  cyrillic_24x24.o [1]
GUI_Fontcyrillic_24x24_Prop40
                        0x080601b8     0xc  Data  Gb  cyrillic_24x24.o [1]
GUI_Fontcyrillic_24x24_Prop41
                        0x080601ac     0xc  Data  Gb  cyrillic_24x24.o [1]
GUI_Fontcyrillic_24x24_Prop42
                        0x080601a0     0xc  Data  Gb  cyrillic_24x24.o [1]
GUI_Fontcyrillic_24x24_Prop43
                        0x08060194     0xc  Data  Gb  cyrillic_24x24.o [1]
GUI_Fontcyrillic_24x24_Prop44
                        0x08060188     0xc  Data  Gb  cyrillic_24x24.o [1]
GUI_Fontcyrillic_24x24_Prop45
                        0x0806017c     0xc  Data  Gb  cyrillic_24x24.o [1]
GUI_Fontcyrillic_24x24_Prop46
                        0x08060170     0xc  Data  Gb  cyrillic_24x24.o [1]
GUI_Fontcyrillic_24x24_Prop47
                        0x08060164     0xc  Data  Gb  cyrillic_24x24.o [1]
GUI_Fontcyrillic_24x24_Prop48
                        0x08060158     0xc  Data  Gb  cyrillic_24x24.o [1]
GUI_Fontcyrillic_24x24_Prop49
                        0x0806014c     0xc  Data  Gb  cyrillic_24x24.o [1]
GUI_Fontcyrillic_24x24_Prop5
                        0x0806035c     0xc  Data  Gb  cyrillic_24x24.o [1]
GUI_Fontcyrillic_24x24_Prop50
                        0x08060140     0xc  Data  Gb  cyrillic_24x24.o [1]
GUI_Fontcyrillic_24x24_Prop51
                        0x08060134     0xc  Data  Gb  cyrillic_24x24.o [1]
GUI_Fontcyrillic_24x24_Prop52
                        0x08060128     0xc  Data  Gb  cyrillic_24x24.o [1]
GUI_Fontcyrillic_24x24_Prop53
                        0x0806011c     0xc  Data  Gb  cyrillic_24x24.o [1]
GUI_Fontcyrillic_24x24_Prop54
                        0x08060110     0xc  Data  Gb  cyrillic_24x24.o [1]
GUI_Fontcyrillic_24x24_Prop55
                        0x08060104     0xc  Data  Gb  cyrillic_24x24.o [1]
GUI_Fontcyrillic_24x24_Prop56
                        0x080600f8     0xc  Data  Gb  cyrillic_24x24.o [1]
GUI_Fontcyrillic_24x24_Prop57
                        0x080600ec     0xc  Data  Gb  cyrillic_24x24.o [1]
GUI_Fontcyrillic_24x24_Prop58
                        0x080600e0     0xc  Data  Gb  cyrillic_24x24.o [1]
GUI_Fontcyrillic_24x24_Prop59
                        0x080600d4     0xc  Data  Gb  cyrillic_24x24.o [1]
GUI_Fontcyrillic_24x24_Prop6
                        0x08060350     0xc  Data  Gb  cyrillic_24x24.o [1]
GUI_Fontcyrillic_24x24_Prop60
                        0x080600c8     0xc  Data  Gb  cyrillic_24x24.o [1]
GUI_Fontcyrillic_24x24_Prop61
                        0x080600bc     0xc  Data  Gb  cyrillic_24x24.o [1]
GUI_Fontcyrillic_24x24_Prop62
                        0x080600b0     0xc  Data  Gb  cyrillic_24x24.o [1]
GUI_Fontcyrillic_24x24_Prop63
                        0x080600a4     0xc  Data  Gb  cyrillic_24x24.o [1]
GUI_Fontcyrillic_24x24_Prop64
                        0x08060098     0xc  Data  Gb  cyrillic_24x24.o [1]
GUI_Fontcyrillic_24x24_Prop65
                        0x0806008c     0xc  Data  Gb  cyrillic_24x24.o [1]
GUI_Fontcyrillic_24x24_Prop66
                        0x08060080     0xc  Data  Gb  cyrillic_24x24.o [1]
GUI_Fontcyrillic_24x24_Prop67
                        0x08060074     0xc  Data  Gb  cyrillic_24x24.o [1]
GUI_Fontcyrillic_24x24_Prop68
                        0x08060068     0xc  Data  Gb  cyrillic_24x24.o [1]
GUI_Fontcyrillic_24x24_Prop69
                        0x0806005c     0xc  Data  Gb  cyrillic_24x24.o [1]
GUI_Fontcyrillic_24x24_Prop7
                        0x08060344     0xc  Data  Gb  cyrillic_24x24.o [1]
GUI_Fontcyrillic_24x24_Prop70
                        0x08060050     0xc  Data  Gb  cyrillic_24x24.o [1]
GUI_Fontcyrillic_24x24_Prop71
                        0x08060044     0xc  Data  Gb  cyrillic_24x24.o [1]
GUI_Fontcyrillic_24x24_Prop72
                        0x08060038     0xc  Data  Gb  cyrillic_24x24.o [1]
GUI_Fontcyrillic_24x24_Prop73
                        0x0806002c     0xc  Data  Gb  cyrillic_24x24.o [1]
GUI_Fontcyrillic_24x24_Prop74
                        0x08060020     0xc  Data  Gb  cyrillic_24x24.o [1]
GUI_Fontcyrillic_24x24_Prop75
                        0x08060014     0xc  Data  Gb  cyrillic_24x24.o [1]
GUI_Fontcyrillic_24x24_Prop76
                        0x08060008     0xc  Data  Gb  cyrillic_24x24.o [1]
GUI_Fontcyrillic_24x24_Prop77
                        0x0805fffc     0xc  Data  Gb  cyrillic_24x24.o [1]
GUI_Fontcyrillic_24x24_Prop78
                        0x0805fff0     0xc  Data  Gb  cyrillic_24x24.o [1]
GUI_Fontcyrillic_24x24_Prop79
                        0x0805ffe4     0xc  Data  Gb  cyrillic_24x24.o [1]
GUI_Fontcyrillic_24x24_Prop8
                        0x08060338     0xc  Data  Gb  cyrillic_24x24.o [1]
GUI_Fontcyrillic_24x24_Prop80
                        0x0805ffd8     0xc  Data  Gb  cyrillic_24x24.o [1]
GUI_Fontcyrillic_24x24_Prop81
                        0x0805ffcc     0xc  Data  Gb  cyrillic_24x24.o [1]
GUI_Fontcyrillic_24x24_Prop9
                        0x0806032c     0xc  Data  Gb  cyrillic_24x24.o [1]
GUI_GetBitsPerPixelEx   0x08079fed     0xe  Code  Gb  LCD_GetEx.o [3]
GUI_GetBkColor          0x080711b5     0xa  Code  Gb  GUI_Common.o [3]
GUI_GetCharDistX        0x0807a6ab    0x16  Code  Gb  GUI_Char.o [3]
GUI_GetCharDistXEx      0x0807a6c1    0x1e  Code  Gb  GUI_Char.o [3]
GUI_GetClientRect       0x080711ab     0xa  Code  Gb  GUI_Common.o [3]
GUI_GetColor            0x080711cd     0xc  Code  Gb  GUI_Common.o [3]
GUI_GetFontDistY        0x0807a695     0xe  Code  Gb  GUI_Char.o [3]
GUI_GetOrg              0x080711ef     0xe  Code  Gb  GUI_Common.o [3]
GUI_GetpfColor2IndexEx  0x0807a033     0xc  Code  Gb  LCD_GetEx.o [3]
GUI_GetpfIndex2ColorEx  0x0807a019     0xc  Code  Gb  LCD_GetEx.o [3]
GUI_GotoXY              0x080712cf    0x16  Code  Gb  GUI_Common.o [3]
GUI_Init                0x08071695    0xd6  Code  Gb  GUI_Core.o [3]
GUI_Lock                0x08078703    0x5c  Code  Gb  GUI_Task.o [3]
GUI_MEMDEV_Clear        0x08089f6d    0x44  Code  Gb  GUIDEV_Clear.o [3]
GUI_MEMDEV_CopyToLCD    0x0808614d     0x6  Code  Gb  GUIDEV.o [3]
GUI_MEMDEV_CopyToLCDAt  0x080860ab    0xa2  Code  Gb  GUIDEV.o [3]
GUI_MEMDEV_CreateEx     0x08085fe1    0x7c  Code  Gb  GUIDEV.o [3]
GUI_MEMDEV_DEVICE_16    0x0809303c    0x34  Data  Gb  GUIDEV_16.o [3]
GUI_MEMDEV_DEVICE_32    0x08094338    0x34  Data  Gb  GUIDEV_32.o [3]
GUI_MEMDEV_Delete       0x08085f9b    0x40  Code  Gb  GUIDEV.o [3]
GUI_MEMDEV_Draw         0x0808622b   0x148  Code  Gb  GUIDEV_Banding.o [3]
GUI_MEMDEV_GetBitsPerPixel
                        0x08085f6f    0x2c  Code  Gb  GUIDEV.o [3]
GUI_MEMDEV_GetDataPtr   0x0808ab31    0x2a  Code  Gb  GUIDEV_GetDataPtr.o [3]
GUI_MEMDEV_GetYSize     0x08089e91    0x34  Code  Gb  GUIDEV_GetYSize.o [3]
GUI_MEMDEV_Paint1Static
                        0x08097509    0x1e  Code  Gb  GUIDEV_StaticDevices.o [3]
GUI_MEMDEV_ReduceYSize  0x08089ec5    0x38  Code  Gb  GUIDEV_ReduceYSize.o [3]
GUI_MEMDEV_Select       0x0808605d    0x48  Code  Gb  GUIDEV.o [3]
GUI_MEMDEV_SetOrg       0x08089efd    0x70  Code  Gb  GUIDEV_SetOrg.o [3]
GUI_MEMDEV_Write        0x0809759f     0x6  Code  Gb  GUIDEV_Write.o [3]
GUI_MEMDEV_WriteAt      0x08097565    0x3a  Code  Gb  GUIDEV_Write.o [3]
GUI_MEMDEV__CreateFixed
                        0x08085e6d   0x102  Code  Gb  GUIDEV.o [3]
GUI_MEMDEV__WriteToActiveAlpha
                        0x0809723b    0x16  Code  Gb  GUIDEV_WriteToActiveAlpha.o [3]
GUI_MEMDEV__WriteToActiveAt
                        0x08085e3d    0x30  Code  Gb  GUIDEV.o [3]
GUI_MEMDEV__WriteToActiveOpaque
                        0x08089d0b    0x3e  Code  Gb  GUIDEV_WriteToActiveOpaque.o [3]
GUI_MergeRect           0x08071205    0x58  Code  Gb  GUI_Common.o [3]
GUI_MoveRect            0x0807125d    0x1c  Code  Gb  GUI_Common.o [3]
GUI_OrgX                0x20017014     0x2  Data  Gb  GUI_Core.o [3]
GUI_OrgY                0x20017016     0x2  Data  Gb  GUI_Core.o [3]
GUI_PollKeyMsg          0x080863d9    0x2e  Code  Gb  GUI_OnKey.o [3]
GUI_ReadRectEx          0x08096119    0x56  Code  Gb  LCD_ReadRect.o [3]
GUI_RectsIntersect      0x08071305    0x38  Code  Gb  GUI_Common.o [3]
GUI_RestoreContext      0x08071343     0x6  Code  Gb  GUI_Common.o [3]
GUI_SaveContext_W       0x0807133d     0x6  Code  Gb  GUI_Common.o [3]
GUI_SelectLCD           0x0807134f    0x14  Code  Gb  GUI_Common.o [3]
GUI_SelectLayer         0x080861e9    0x2e  Code  Gb  GUI_SelectLayer.o [3]
GUI_SetBkColor          0x08071363     0xe  Code  Gb  GUI_Common.o [3]
GUI_SetColor            0x08071371     0xc  Code  Gb  GUI_Common.o [3]
GUI_SetDefaultFont      0x080715d9     0x6  Code  Gb  GUI_Core.o [3]
GUI_SetDrawMode         0x080713cd     0xe  Code  Gb  GUI_Common.o [3]
GUI_SetFont             0x080713db    0x12  Code  Gb  GUI_Common.o [3]
GUI_SetLineStyle        0x080713ed    0x10  Code  Gb  GUI_Common.o [3]
GUI_SetOrg              0x080713fd    0x26  Code  Gb  GUI_Common.o [3]
GUI_SetPenSize          0x080712ed    0x10  Code  Gb  GUI_Common.o [3]
GUI_SetTextAlign        0x08071423    0x12  Code  Gb  GUI_Common.o [3]
GUI_SetTextMode         0x08071435    0x12  Code  Gb  GUI_Common.o [3]
GUI_SignalEvent         0x08085e2d     0xc  Code  Gb  GUI_WaitEvent.o [3]
GUI_StoreKey            0x0808639d     0xc  Code  Gb  GUI_OnKey.o [3]
GUI_StoreKeyMsg         0x080863a9    0x30  Code  Gb  GUI_OnKey.o [3]
GUI_TIMER_Create::RegisterExit
                        0x20016e7c     0x8  Data  Lc  GUI_Timer.o [3]
GUI_TIMER_Delete        0x08089df5    0x60  Code  Gb  GUI_Timer.o [3]
GUI_TIMER_GetFlag       0x08089e63    0x2c  Code  Gb  GUI_Timer.o [3]
GUI_TIMER__GetFirstTimer
                        0x08089d99    0x20  Code  Gb  GUI_Timer.o [3]
GUI_TIMER__GetNextTimerLin
                        0x08089db9    0x2c  Code  Gb  GUI_Timer.o [3]
GUI_UC_None             0x08098004    0x10  Data  Gb  GUI_UC_EncodeNone.o [3]
GUI_UC_SetEncodeUTF8    0x0807bc01    0x16  Code  Gb  GUI_UC_EncodeUTF8.o [3]
GUI_UC__GetCharCodeInc  0x0807a8c5    0x22  Code  Gb  GUI_UC.o [3]
GUI_UC__NumChars2NumBytes
                        0x0807a8e7    0x24  Code  Gb  GUI_UC.o [3]
GUI_USAGE_AddRect       0x0808971f    0x2a  Code  Gb  GUIDEV_Usage.o [3]
GUI_USAGE_BM_AddHLine   0x08089563    0x6e  Code  Lc  GUIDEV_UsageBM.o [3]
GUI_USAGE_BM_AddPixel   0x08089539    0x2a  Code  Lc  GUIDEV_UsageBM.o [3]
GUI_USAGE_BM_Clear      0x080895d1     0xe  Code  Lc  GUIDEV_UsageBM.o [3]
GUI_USAGE_BM_Create     0x08089675    0x62  Code  Gb  GUIDEV_UsageBM.o [3]
GUI_USAGE_BM_GetNextDirty
                        0x080895df    0x92  Code  Lc  GUIDEV_UsageBM.o [3]
GUI_USAGE_DecUseCnt     0x080896f1    0x2e  Code  Gb  GUIDEV_Usage.o [3]
GUI_Unlock              0x080786f3    0x10  Code  Gb  GUI_Task.o [3]
GUI_X_Config            0x08079e41    0x20  Code  Gb  GUIConf.o [1]
GUI_X_Config::aMemory   0x200022dc  0xdc00  Data  Lc  GUIConf.o [1]
GUI_X_Delay             0x08079f4b     0x4  Code  Gb  GUI_X_embOS.o [1]
GUI_X_GetTaskId         0x08079f61     0x6  Code  Gb  GUI_X_embOS.o [1]
GUI_X_GetTime           0x08079f45     0x6  Code  Gb  GUI_X_embOS.o [1]
GUI_X_Init              0x08079f6d     0x6  Code  Gb  GUI_X_embOS.o [1]
GUI_X_InitOS            0x08079f4f     0x6  Code  Gb  GUI_X_embOS.o [1]
GUI_X_Lock              0x08079f5b     0x6  Code  Gb  GUI_X_embOS.o [1]
GUI_X_OnRx              0x08079f67     0x6  Code  Gb  GUI_X_embOS.o [1]
GUI_X_Unlock            0x08079f55     0x6  Code  Gb  GUI_X_embOS.o [1]
GUI__AllocAlphaBuffer   0x08095f93    0x16  Code  Gb  GUI__Alpha.o [3]
GUI__AlphaPreserveTrans
                        0x08097541    0x20  Code  Gb  GUI_SetAlpha.o [3]
GUI__BkColorDefault     0x20001e10     0x4  Data  Gb  GUI_Core.o [3]
GUI__BufferSize         0x20016fb0     0x4  Data  Gb  GUI_Core.o [3]
GUI__CharHasTrans       0x20002288     0x1  Data  Gb  GUI_EncExt.o [3]
GUI__ColorDefault       0x20001e0c     0x4  Data  Gb  GUI_Core.o [3]
GUI__CompactPixelIndices
                        0x0808a8bd   0x120  Code  Gb  GUI__CompactPixelIndices.o [3]
GUI__CompactPixelIndicesEx
                        0x0808ab23     0xe  Code  Gb  GUI__CompactPixelIndices.o [3]
GUI__Config             0x0807166d    0x28  Code  Gb  GUI_Core.o [3]
GUI__Config::RegisterExit
                        0x20016e68     0x8  Data  Lc  GUI_Core.o [3]
GUI__Context            0x20001530    0x70  Data  Lc  GUI_Core.o [3]
GUI__ConvertColor2Index
                        0x0808a9dd   0x140  Code  Gb  GUI__CompactPixelIndices.o [3]
GUI__DispLine           0x0807a80f    0xa0  Code  Gb  GUI_CharLine.o [3]
GUI__DispStringInRect   0x08071945   0x140  Code  Gb  GUI_DispString.o [3]
GUI__DoAlphaBlending    0x08095d51   0x19e  Code  Gb  GUI__Alpha.o [3]
GUI__DrawTwinArc4       0x080968c5    0x64  Code  Gb  GUI__DrawTwinArc.o [3]
GUI__ExpandPixelIndicesEx
                        0x0809617d   0x120  Code  Gb  GUI__ExpandPixelIndices.o [3]
GUI__GetAlphaBuffer     0x08095efd    0x8e  Code  Gb  GUI__Alpha.o [3]
GUI__GetAlphaBuffer::RegisterExit
                        0x20016e14     0x8  Data  Lc  GUI__Alpha.o [3]
GUI__GetLineDistX       0x0807a7bb    0x4a  Code  Gb  GUI_CharLine.o [3]
GUI__GetLineNumChars    0x0807a76d    0x32  Code  Gb  GUI_CharLine.o [3]
GUI__GetOrg             0x080711d9    0x16  Code  Gb  GUI_Common.o [3]
GUI__GetOverlap         0x0807a79f    0x1c  Code  Gb  GUI_CharLine.o [3]
GUI__HandleEOLine       0x0807a911    0x24  Code  Gb  GUI__Private.o [3]
GUI__IntersectRect      0x0807a935    0x40  Code  Gb  GUI__Private.o [3]
GUI__IntersectRects     0x0807a975    0x60  Code  Gb  GUI__Private.o [3]
GUI__IsInitialized      0x20001dfd     0x1  Data  Gb  GUI_Core.o [3]
GUI__ManageCache        0x080864cd     0xa  Code  Gb  GUI__ManageCache.o [3]
GUI__ManageCacheEx      0x08086411    0xb0  Code  Gb  GUI__ManageCache.o [3]
GUI__ManageCacheEx::aLockCnt
                        0x20016f0c     0x8  Data  Lc  GUI__ManageCache.o [3]
GUI__MixColors          0x08095cfb    0x56  Code  Gb  GUI__Alpha.o [3]
GUI__NumLayersInUse     0x2001701b     0x1  Data  Gb  GUI_Core.o [3]
GUI__PreserveTrans      0x20016e5c     0x1  Data  Gb  GUI_Core.o [3]
GUI__Read16             0x0807aa0f     0xe  Code  Gb  GUI__Private.o [3]
GUI__Read32             0x0807aa1d    0x18  Code  Gb  GUI__Private.o [3]
GUI__ReduceRect         0x0807aa3b    0x1a  Code  Gb  GUI__Private.o [3]
GUI__RegisterExit       0x0807176b     0xa  Code  Gb  GUI_Core.o [3]
GUI__SetText            0x0807aa55    0x70  Code  Gb  GUI__Private.o [3]
GUI__aConvert_255_31    0x080962fc   0x100  Data  Gb  GUI__DivTbl.o [3]
GUI__aConvert_255_63    0x080963fc   0x100  Data  Gb  GUI__DivTbl.o [3]
GUI__aConvert_31_255    0x0809629c    0x20  Data  Gb  GUI__DivTbl.o [3]
GUI__aConvert_63_255    0x080962bc    0x40  Data  Gb  GUI__DivTbl.o [3]
GUI__aNumBuffers        0x20017012     0x2  Data  Gb  GUI_Core.o [3]
GUI__apDevice           0x200015a8     0x8  Data  Gb  GUI_Core.o [3]
GUI__memset16           0x0807a9d5    0x3a  Code  Gb  GUI__Private.o [3]
GUI__pFontDefault       0x20001e08     0x4  Data  Gb  GUI_Core.o [3]
GUI__pfDrawLine_RGB     0x200022bc     0x4  Data  Gb  GUI_BMP.o [3]
GUI__pfMemcpy           0x200022c8     0x4  Data  Gb  GUI__Private.o [3]
GUI__pfMemset           0x200022c4     0x4  Data  Gb  GUI__Private.o [3]
GUI__pfMixColors        0x200022a4     0x4  Data  Gb  GUI__Alpha.o [3]
GUI__sqrt32             0x0807aac5    0x1a  Code  Gb  GUI__Private.o [3]
GUI__strcmp             0x0807aadf    0x24  Code  Gb  GUI__Private.o [3]
GUI__strcmp_hp          0x0807ab0d    0x20  Code  Gb  GUI__Private.o [3]
GUI__strlen             0x0807ab2d    0x14  Code  Gb  GUI__Private.o [3]
GUI_acFont6x8           0x08094c84   0x518  Data  Lc  F6x8.o [3]
GUI_cos                 0x0807a221     0x6  Code  Gb  GUI_DrawLine.o [3]
GUI_pContext            0x200015a4     0x4  Data  Gb  GUI_Core.o [3]
GUI_pLCD_APIList        0x20016fb8     0x4  Data  Gb  GUI_Core.o [3]
GUI_pUC_API             0x20001e00     0x4  Data  Gb  GUI_Core.o [3]
GUI_pfAfterInitHook     0x200015a0     0x4  Data  Gb  GUI_Core.o [3]
GUI_pfDispCharLine      0x20016fac     0x4  Data  Gb  GUI_Core.o [3]
GUI_pfDispCharStyle     0x20016fa8     0x4  Data  Gb  GUI_Core.o [3]
GUI_pfExecAnimations    0x20016f9c     0x4  Data  Gb  GUI_Core.o [3]
GUI_pfGetpPalConvTable  0x200022b4     0x4  Data  Gb  GUI_Core.o [3]
GUI_pfTimerExec         0x20001e04     0x4  Data  Gb  GUI_Core.o [3]
GUI_pfUpdateSoftLayer   0x20016fa0     0x4  Data  Gb  GUI_Core.o [3]
GUI_sin                 0x0807a1cb    0x56  Code  Gb  GUI_DrawLine.o [3]
GetDaysInMonth          0x0807fe41    0x46  Code  Lc  SettingTime.o [1]
GetDaysInMonth::g_DaysInMonth
                        0x20001ffc    0x18  Data  Lc  SettingTime.o [1]
GetKey                  0x08070ee3   0x1b0  Code  Gb  MainMenu.o [1]
GetKey::gCommCheckStatus
                        0x20016400    0x20  Data  Lc  MainMenu.o [1]
GetSector               0x08074809    0xb2  Code  Lc  main.o [1]
GuiMain                 0x08070c79   0x238  Code  Gb  MainMenu.o [1]
HAL_CRC_Init            0x0807c429    0x24  Code  Gb  stm32f4xx_hal_crc.o [1]
HAL_CRC_MspInit         0x0807caaf    0x2a  Code  Gb  stm32f4xx_hal_msp.o [1]
HAL_DMA_Abort           0x080881f5    0x8a  Code  Gb  stm32f4xx_hal_dma.o [1]
HAL_DMA_Abort_IT        0x0808827f    0x24  Code  Gb  stm32f4xx_hal_dma.o [1]
HAL_DMA_IRQHandler      0x080882a3   0x188  Code  Gb  stm32f4xx_hal_dma.o [1]
HAL_DMA_Init            0x080880a5    0xe6  Code  Gb  stm32f4xx_hal_dma.o [1]
HAL_DMA_Start_IT        0x0808818b    0x6a  Code  Gb  stm32f4xx_hal_dma.o [1]
HAL_Delay               0x0807d96d     0xa  Code  Wk  stm32f4xx_hal.o [1]
HAL_FLASHEx_Erase       0x0807c1e9    0x92  Code  Gb  stm32f4xx_hal_flash_ex.o [1]
HAL_FLASHEx_OBGetConfig
                        0x0807c329    0x32  Code  Gb  stm32f4xx_hal_flash_ex.o [1]
HAL_FLASHEx_OBProgram   0x0807c27b    0xae  Code  Gb  stm32f4xx_hal_flash_ex.o [1]
HAL_FLASH_Lock          0x0807d027     0x8  Code  Gb  stm32f4xx_hal_flash.o [1]
HAL_FLASH_OB_Launch     0x0807d053    0x10  Code  Gb  stm32f4xx_hal_flash.o [1]
HAL_FLASH_OB_Lock       0x0807d049     0xa  Code  Gb  stm32f4xx_hal_flash.o [1]
HAL_FLASH_OB_Unlock     0x0807d035    0x14  Code  Gb  stm32f4xx_hal_flash.o [1]
HAL_FLASH_Program       0x0807cf9d    0x6e  Code  Gb  stm32f4xx_hal_flash.o [1]
HAL_FLASH_Unlock        0x0807d00b    0x1c  Code  Gb  stm32f4xx_hal_flash.o [1]
HAL_FSMC_MspInit::FSMC_Initialized
                        0x20016f98     0x4  Data  Lc  stm32f4xx_hal_msp.o [1]
HAL_GPIO_EXTI_Callback  0x08074d31    0x42  Code  Gb  main.o [1]
HAL_GPIO_EXTI_Callback::last
                        0x20016f88     0x4  Data  Lc  main.o [1]
HAL_GPIO_EXTI_IRQHandler
                        0x0807baff    0x10  Code  Gb  stm32f4xx_hal_gpio.o [1]
HAL_GPIO_Init           0x0807b92d   0x1b2  Code  Gb  stm32f4xx_hal_gpio.o [1]
HAL_GPIO_ReadPin        0x0807badf     0xc  Code  Gb  stm32f4xx_hal_gpio.o [1]
HAL_GPIO_TogglePin      0x0807baf7     0x8  Code  Gb  stm32f4xx_hal_gpio.o [1]
HAL_GPIO_WritePin       0x0807baeb     0xc  Code  Gb  stm32f4xx_hal_gpio.o [1]
HAL_GetTick             0x08073ac5     0xc  Code  Wk  stm32f4xx_hal.o [1]
HAL_I2C_Init            0x0807d1b1    0xc8  Code  Gb  stm32f4xx_hal_i2c.o [1]
HAL_I2C_Master_Receive  0x0807d34d    0xe2  Code  Gb  stm32f4xx_hal_i2c.o [1]
HAL_I2C_Master_Transmit
                        0x0807d289    0xa2  Code  Gb  stm32f4xx_hal_i2c.o [1]
HAL_I2C_MspInit         0x0807ca61    0x4e  Code  Gb  stm32f4xx_hal_msp.o [1]
HAL_IncTick             0x0807e75d    0x10  Code  Wk  stm32f4xx_hal.o [1]
HAL_InitTick            0x0807bcc9    0x6e  Code  Gb  stm32f4xx_hal_timebase_TIM.o [1]
HAL_NVIC_EnableIRQ      0x0807bc9f     0xa  Code  Gb  stm32f4xx_hal_cortex.o [1]
HAL_NVIC_SetPriority    0x0807bc65    0x3a  Code  Gb  stm32f4xx_hal_cortex.o [1]
HAL_NVIC_SetPriorityGrouping
                        0x0807bc4b    0x1a  Code  Gb  stm32f4xx_hal_cortex.o [1]
HAL_RCC_ClockConfig     0x0807c015    0xfe  Code  Gb  stm32f4xx_hal_rcc.o [1]
HAL_RCC_GetClockConfig  0x0807c143    0x36  Code  Gb  stm32f4xx_hal_rcc.o [1]
HAL_RCC_GetPCLK1Freq    0x0807c11f    0x10  Code  Gb  stm32f4xx_hal_rcc.o [1]
HAL_RCC_GetPCLK2Freq    0x0807c12f     0xe  Code  Gb  stm32f4xx_hal_rcc.o [1]
HAL_RCC_OscConfig       0x0807bd45   0x2d0  Code  Wk  stm32f4xx_hal_rcc.o [1]
HAL_SPI_IRQHandler      0x0807ce9d    0xf4  Code  Gb  stm32f4xx_hal_spi.o [1]
HAL_SPI_Init            0x0807ce19    0x78  Code  Gb  stm32f4xx_hal_spi.o [1]
HAL_SPI_MspInit         0x0807cad9    0x56  Code  Gb  stm32f4xx_hal_msp.o [1]
HAL_SRAM_Init           0x0807c44d    0x54  Code  Gb  stm32f4xx_hal_sram.o [1]
HAL_SRAM_MspInit        0x0807cd1f    0x62  Code  Gb  stm32f4xx_hal_msp.o [1]
HAL_TIMEx_BreakCallback
                        0x08088621     0x2  Code  Wk  stm32f4xx_hal_tim_ex.o [1]
HAL_TIMEx_CommutationCallback
                        0x08088625     0x2  Code  Wk  stm32f4xx_hal_tim_ex.o [1]
HAL_TIMEx_MasterConfigSynchronization
                        0x0807ca15    0x4a  Code  Gb  stm32f4xx_hal_tim_ex.o [1]
HAL_TIM_Base_Init       0x0807c4a1    0x1a  Code  Gb  stm32f4xx_hal_tim.o [1]
HAL_TIM_Base_Start_IT   0x0807c4bb    0x16  Code  Gb  stm32f4xx_hal_tim.o [1]
HAL_TIM_IRQHandler      0x0807c5c5   0x142  Code  Gb  stm32f4xx_hal_tim.o [1]
HAL_TIM_MspPostInit     0x0807cb55    0x3c  Code  Gb  stm32f4xx_hal_msp.o [1]
HAL_TIM_PWM_ConfigChannel
                        0x0807c70d    0xc0  Code  Gb  stm32f4xx_hal_tim.o [1]
HAL_TIM_PWM_Init        0x0807c4fb    0x1a  Code  Gb  stm32f4xx_hal_tim.o [1]
HAL_TIM_PWM_MspInit     0x0807cb2f    0x26  Code  Gb  stm32f4xx_hal_msp.o [1]
HAL_TIM_PWM_Start       0x0807c515    0x14  Code  Gb  stm32f4xx_hal_tim.o [1]
HAL_TIM_PWM_Stop        0x0807c533    0x32  Code  Gb  stm32f4xx_hal_tim.o [1]
HAL_TIM_PeriodElapsedCallback
                        0x080747eb     0xe  Code  Gb  main.o [1]
HAL_UART_DMAStop        0x0807ae27    0x48  Code  Gb  stm32f4xx_hal_uart.o [1]
HAL_UART_ErrorCallback  0x08073c13    0xa6  Code  Gb  main.o [1]
HAL_UART_IRQHandler     0x0807ae87   0x152  Code  Gb  stm32f4xx_hal_uart.o [1]
HAL_UART_Init           0x0807ab69    0x1e  Code  Gb  stm32f4xx_hal_uart.o [1]
HAL_UART_MspInit        0x0807cb91   0x148  Code  Gb  stm32f4xx_hal_msp.o [1]
HAL_UART_Receive_DMA    0x0807ad95    0x92  Code  Gb  stm32f4xx_hal_uart.o [1]
HAL_UART_Receive_IT     0x0807accd    0x4a  Code  Gb  stm32f4xx_hal_uart.o [1]
HAL_UART_RxCpltCallback
                        0x0807417b    0x40  Code  Gb  main.o [1]
HAL_UART_Transmit       0x0807abe1    0xd6  Code  Gb  stm32f4xx_hal_uart.o [1]
HAL_UART_Transmit_DMA   0x0807ad1d    0x78  Code  Gb  stm32f4xx_hal_uart.o [1]
HardFaultHandler        0x08097da1    0x6c  Code  Gb  SEGGER_HardFaultHandler.o [1]
HardFaultRegs           0x200169f0    0x40  Data  Lc  SEGGER_HardFaultHandler.o [1]
HardFault_Handler       0x08098189          Code  Gb  HardFaultHandler.o [1]
I2C_IsAcknowledgeFailed
                        0x0807d945    0x28  Code  Lc  stm32f4xx_hal_i2c.o [1]
I2C_MasterRequestRead   0x0807d695    0xb2  Code  Lc  stm32f4xx_hal_i2c.o [1]
I2C_MasterRequestWrite  0x0807d60d    0x7a  Code  Lc  stm32f4xx_hal_i2c.o [1]
I2C_WaitOnBTFFlagUntilTimeout
                        0x0807d897    0x34  Code  Lc  stm32f4xx_hal_i2c.o [1]
I2C_WaitOnFlagUntilTimeout
                        0x0807d775    0x6c  Code  Lc  stm32f4xx_hal_i2c.o [1]
I2C_WaitOnMasterAddressFlagUntilTimeout
                        0x0807d7e1    0x82  Code  Lc  stm32f4xx_hal_i2c.o [1]
I2C_WaitOnRXNEFlagUntilTimeout
                        0x0807d8e5    0x52  Code  Lc  stm32f4xx_hal_i2c.o [1]
I2C_WaitOnTXEFlagUntilTimeout
                        0x0807d863    0x34  Code  Lc  stm32f4xx_hal_i2c.o [1]
InStream_Read           0x08096ed5    0x26  Code  Lc  lz77_init.o [7]
InStream_StepRegion     0x08096ec1    0x14  Code  Lc  lz77_init.o [7]
InfoDisp                0x08083ce1    0xf0  Code  Lc  AcbMccbInfo.o [1]
InfoInitDisp            0x08083bbf    0xd6  Code  Lc  AcbMccbInfo.o [1]
InfoMenu                0x080838e7    0xe0  Code  Gb  AcbMccbInfo.o [1]
InfoSend                0x08083879    0x6e  Code  Lc  AcbMccbInfo.o [1]
InfoValueDisp           0x080839c7   0x1c6  Code  Lc  AcbMccbInfo.o [1]
InitDisp                0x0807efbd    0x54  Code  Lc  MLinkControl.o [1]
InputDisp               0x0807e781    0x90  Code  Lc  SettingInput.o [1]
InputDispString         0x0807e90d    0xa6  Code  Lc  SettingInput.o [1]
JLINKMEM_Process        0x080887bf    0xb0  Code  Gb  JLINKMEM_Process.o [1]
JLINKMEM_SendChar       0x0808886f    0x48  Code  Gb  JLINKMEM_Process.o [1]
JLINKMEM_SetpfGetNextChar
                        0x080888c3     0x6  Code  Gb  JLINKMEM_Process.o [1]
JLINKMEM_SetpfOnRx      0x080888b7     0x6  Code  Gb  JLINKMEM_Process.o [1]
JLINKMEM_SetpfOnTx      0x080888bd     0x6  Code  Gb  JLINKMEM_Process.o [1]
KeyChanged              0x2001638c     0x8  Data  Gb  MainMenu.o [1]
KeyPin                  0x20002148     0xc  Data  Gb  GuiData.o [1]
KeyStatus               0x20016f40     0x8  Data  Gb  GuiData.o [1]
LCD_AA_SetAndMask       0x080975e9     0xa  Code  Gb  LCD_AA.o [3]
LCD_API_ColorConv_0     0x0809810c    0x18  Data  Gb  GUICC_0.o [3]
LCD_API_ColorConv_565   0x080980f4    0x18  Data  Gb  GUICC_565.o [3]
LCD_API_ColorConv_8888  0x08098124    0x18  Data  Gb  GUICC_8888.o [3]
LCD_Clear               0x08078633    0x76  Code  Gb  lcd.o [1]
LCD_Color2Index         0x08078d67    0x12  Code  Gb  LCD.o [3]
LCD_DrawBitmap          0x08078a77   0x114  Code  Gb  LCD.o [3]
LCD_DrawHLine           0x080788d9    0x3a  Code  Gb  LCD.o [3]
LCD_DrawPixel           0x0807887f    0x5a  Code  Gb  LCD.o [3]
LCD_DrawVLine           0x08078913    0x32  Code  Gb  LCD.o [3]
LCD_FillRect            0x0807895b    0x4e  Code  Gb  LCD.o [3]
LCD_GetBitsPerPixelEx   0x08079fcd     0x4  Code  Gb  LCD_GetEx.o [3]
LCD_GetBkColorIndex     0x08078801     0xa  Code  Gb  LCD_GetColorIndex.o [3]
LCD_GetColorIndex       0x0807880b     0xa  Code  Gb  LCD_GetColorIndex.o [3]
LCD_GetNumColors        0x08079fe5     0x8  Code  Gb  LCD_GetEx.o [3]
LCD_GetNumColorsEx      0x08079fd1     0x4  Code  Gb  LCD_GetEx.o [3]
LCD_GetNumLayers        0x08089fb1    0x1a  Code  Gb  LCD_GetNumDisplays.o [3]
LCD_GetPalette          0x0807a011     0x8  Code  Gb  LCD_GetEx.o [3]
LCD_GetPaletteEx        0x08079ffb    0x16  Code  Gb  LCD_GetEx.o [3]
LCD_GetVXSizeEx         0x08079fc5     0x4  Code  Gb  LCD_GetEx.o [3]
LCD_GetVXSizeMax        0x0807a047     0x4  Code  Gb  LCD_GetEx.o [3]
LCD_GetVYSizeEx         0x08079fc9     0x4  Code  Gb  LCD_GetEx.o [3]
LCD_GetXSize            0x08079fd5     0x8  Code  Gb  LCD_GetEx.o [3]
LCD_GetXSizeDisplay     0x0807a053     0x6  Code  Gb  LCD_GetEx.o [3]
LCD_GetXSizeEx          0x08079fbd     0x4  Code  Gb  LCD_GetEx.o [3]
LCD_GetXSizeMax         0x0807a03f     0x4  Code  Gb  LCD_GetEx.o [3]
LCD_GetYSize            0x08079fdd     0x8  Code  Gb  LCD_GetEx.o [3]
LCD_GetYSizeDisplay     0x0807a059     0x6  Code  Gb  LCD_GetEx.o [3]
LCD_GetYSizeEx          0x08079fc1     0x4  Code  Gb  LCD_GetEx.o [3]
LCD_GetYSizeMax         0x0807a043     0x4  Code  Gb  LCD_GetEx.o [3]
LCD_GetpPalConvTableBM  0x080866d5     0x2  Code  Gb  LCD_Color.o [3]
LCD_GetpPalConvTableUncached
                        0x08086683    0x52  Code  Gb  LCD_Color.o [3]
LCD_GetpfColor2IndexEx  0x0807a025     0xe  Code  Gb  LCD_GetEx.o [3]
LCD_Index2Color         0x08078d79    0x12  Code  Gb  LCD.o [3]
LCD_Index2Color_565     0x08096df5    0x22  Code  Gb  GUICC_565.o [3]
LCD_Index2Color_888     0x08072937     0x2  Code  Gb  GUICC_888_Index2Color.o [3]
LCD_Index2Color_8888    0x0807299b     0x2  Code  Gb  GUICC_8888_Index2Color.o [3]
LCD_Index2Color_M555    0x08098015    0x24  Code  Gb  GUICC_M555_Index2Color.o [3]
LCD_Index2Color_M565    0x08096dc9    0x22  Code  Gb  GUICC_M565.o [3]
LCD_InitColors          0x0808665b    0x28  Code  Gb  LCD_Color.o [3]
LCD_InitColors::RegisterExit
                        0x20002098     0x8  Data  Lc  LCD_Color.o [3]
LCD_InitLUT             0x080866d7    0x6c  Code  Gb  LCD_Color.o [3]
LCD_OnOff               0x0807850b    0x10  Code  Gb  lcd.o [1]
LCD_ReadRectEx          0x08095fc9   0x148  Code  Lc  LCD_ReadRect.o [3]
LCD_SelectLCD           0x08078e89    0x44  Code  Gb  LCD_SelectLCD.o [3]
LCD_SetBkColor          0x08078daf     0x8  Code  Gb  LCD.o [3]
LCD_SetBkColorIndex     0x08078d9d    0x12  Code  Gb  LCD.o [3]
LCD_SetClipRectEx       0x08085dfd    0x30  Code  Gb  LCD_SetClipRectEx.o [3]
LCD_SetClipRectMax      0x08078cbb    0x14  Code  Gb  LCD.o [3]
LCD_SetColor            0x08078db7     0x8  Code  Gb  LCD.o [3]
LCD_SetColorIndex       0x08078d8b    0x12  Code  Gb  LCD.o [3]
LCD_SetDisplaySize      0x0807a04b     0x8  Code  Gb  LCD_GetEx.o [3]
LCD_SetDrawMode         0x08078875     0xa  Code  Gb  LCD.o [3]
LCD_SetLUTEntryEx       0x08086eb9    0x28  Code  Gb  LCD_Set.o [3]
LCD_SetSizeEx           0x08086e79    0x28  Code  Gb  LCD_Set.o [3]
LCD_SetVSizeEx          0x08086e51    0x28  Code  Gb  LCD_Set.o [3]
LCD_UpdateColorIndices  0x08078ecd    0x24  Code  Gb  LCD_UpdateColorIndices.o [3]
LCD_X_Config            0x08079ea5    0x5e  Code  Gb  LCDConf_FlexColor_Hmi.o [1]
LCD_X_DisplayDriver     0x08079f31    0x14  Code  Gb  LCDConf_FlexColor_Hmi.o [1]
LCD__DrawBitmap_1bpp    0x080789a9    0xce  Code  Gb  LCD.o [3]
LCD__GetBPP             0x0807a06d    0x72  Code  Gb  LCD_GetEx.o [3]
LCD__GetBPPDevice       0x0807a0df    0x32  Code  Gb  LCD_GetEx.o [3]
LCD__RLE16_SetFunc::RegisterExit
                        0x20016b3c     0x8  Data  Lc  LCD_RLE16.o [3]
LCD__aConvTable         0x20002094     0x4  Data  Gb  LCD_Color.o [3]
LCD__pSetColorAPI       0x200022cc     0x4  Data  Gb  LCD.o [3]
LCD_aMirror             0x08097960   0x100  Data  Gb  LCD_Mirror.o [3]
LCD_init                0x0807851b    0xd4  Code  Gb  lcd.o [1]
LanguageSelect          0x0806fb69    0xc2  Code  Gb  MainMenu.o [1]
LcdReadDataMultiple     0x08079e87    0x1e  Code  Lc  LCDConf_FlexColor_Hmi.o [1]
LcdWriteData            0x08079e65     0x4  Code  Lc  LCDConf_FlexColor_Hmi.o [1]
LcdWriteDataMultiple    0x08079e69    0x1e  Code  Lc  LCDConf_FlexColor_Hmi.o [1]
LcdWriteReg             0x08079e61     0x4  Code  Lc  LCDConf_FlexColor_Hmi.o [1]
LoadInt                 0x080790bf    0x7a  Code  Lc  xprintffull.o [4]
MLinkButtonDisp         0x0807ef0d    0x98  Code  Gb  MLinkControl.o [1]
MLinkControl            0x0807f4df   0x280  Code  Gb  MLinkControl.o [1]
MLinkControlDisp        0x0807f333    0xcc  Code  Lc  MLinkControl.o [1]
MLinkControlValueDisp   0x0807f1b5   0x16a  Code  Lc  MLinkControl.o [1]
MLinkDiMakeString       0x08081637    0x82  Code  Lc  MLinkIOSet.o [1]
MLinkEvent              0x08081ca1   0x188  Code  Gb  MLinkEvent.o [1]
MLinkEventInitDisp      0x08081c03    0x86  Code  Lc  MLinkEvent.o [1]
MLinkHwSet              0x08080961    0xc2  Code  Gb  MLinkHwSet.o [1]
MLinkIOSet              0x08081963   0x152  Code  Gb  MLinkIOSet.o [1]
MLinkIOSetAppValue      0x0808151f   0x10c  Code  Lc  MLinkIOSet.o [1]
MLinkIOSetDOValue       0x080816b9    0xde  Code  Lc  MLinkIOSet.o [1]
MLinkIOSetDisp          0x080817cd   0x126  Code  Lc  MLinkIOSet.o [1]
MLinkIOSetMenu          0x08081425    0xb0  Code  Lc  MLinkIOSet.o [1]
MLinkIOSetSend          0x080814d5    0x4a  Code  Lc  MLinkIOSet.o [1]
MLinkInfomation         0x080811df   0x18e  Code  Gb  MLinkInfo.o [1]
MLinkOverview           0x08072c45    0xc8  Code  Gb  MLinkOverview.o [1]
MLinkOverviewValue      0x080729f5   0x22c  Code  Gb  MLinkOverview.o [1]
MLinkOverviewValue::aiValue
                        0x200168a4     0x4  Data  Lc  MLinkOverview.o [1]
MLinkOverviewValue::diSetup
                        0x2001689c     0x8  Data  Lc  MLinkOverview.o [1]
MLinkSetInitDisp        0x080808b9    0x9c  Code  Lc  MLinkHwSet.o [1]
MX_CRC_Init::hcrc       0x2000ffc0     0x8  Data  Lc  main.o [1]
MX_DMA_Init             0x08074d79    0x72  Code  Gb  main.o [1]
MX_FSMC_Init::hsram1    0x2000fedc    0x50  Data  Lc  main.o [1]
MX_GPIO_Init            0x08074691   0x148  Code  Lc  main.o [1]
MX_USART2_UART_Init     0x08074651    0x40  Code  Gb  main.o [1]
MasterModbusSend        0x08071b0d    0x80  Code  Gb  modbus.o [1]
MasterTxBuffer          0x20016e48    0x14  Data  Gb  main.o [1]
MemManage_Handler       0x08097a7d     0x8  Code  Gb  stm32f4xx_it.o [1]
MenuDisp                0x0807665f     0xc  Code  Lc  MenuDLG.o [1]
MlinkHwSetDisp          0x0808079f   0x11a  Code  Lc  MLinkHwSet.o [1]
MlinkHwSetDisp::nAddress
                        0x20016f92     0x2  Data  Lc  MLinkHwSet.o [1]
MlinkHwSetDisp::nBaudrate
                        0x20016f90     0x2  Data  Lc  MLinkHwSet.o [1]
MlinkHwSetSend          0x08080761    0x3e  Code  Lc  MLinkHwSet.o [1]
MlinkMenu               0x08076671   0x10e  Code  Lc  MenuDLG.o [1]
ModbusAcbSystemEventGet
                        0x0807228b    0xd0  Code  Gb  modbus.o [1]
ModbusCRCCheck          0x08071d75    0x78  Code  Gb  modbus.o [1]
ModbusControl           0x080720f3    0xe8  Code  Gb  modbus.o [1]
ModbusGetBit            0x08071ee1    0x38  Code  Gb  modbus.o [1]
ModbusGetDateTime       0x08071f49    0x38  Code  Gb  modbus.o [1]
ModbusGetFloat          0x08071e51    0x4a  Code  Gb  modbus.o [1]
ModbusGetId1            0x08071f81    0x40  Code  Gb  modbus.o [1]
ModbusGetId2            0x08071fc1    0x20  Code  Gb  modbus.o [1]
ModbusGetId3            0x08071fe9    0x9c  Code  Gb  modbus.o [1]
ModbusGetString         0x08071f19    0x30  Code  Gb  modbus.o [1]
ModbusGetUint16         0x08071e2b    0x26  Code  Gb  modbus.o [1]
ModbusGetUint32         0x08071e9b    0x46  Code  Gb  modbus.o [1]
ModbusGetUint8_L        0x08071e0b    0x20  Code  Gb  modbus.o [1]
ModbusGetUint8_U        0x08071ded    0x1e  Code  Gb  modbus.o [1]
ModbusRecvCheck         0x08072089    0x6a  Code  Lc  modbus.o [1]
ModbusSendFrame         0x08071b8d    0x8e  Code  Gb  modbus.o [1]
ModbusSendFrameDeviceIdentofocation3
                        0x08071c85    0x54  Code  Gb  modbus.o [1]
ModbusSendFrameEvent    0x08071cf3    0x74  Code  Gb  modbus.o [1]
ModbusSendFrameReadTime
                        0x08071c1b    0x3a  Code  Gb  modbus.o [1]
ModbusSetTime           0x08072207    0x72  Code  Gb  modbus.o [1]
ModbusSetTimeAndWait    0x08072279    0x12  Code  Gb  modbus.o [1]
ModbusSlaveCheck        0x08073d01    0xd8  Code  Lc  main.o [1]
ModbusVersion           0x20016b98    0x34  Data  Gb  main.o [1]
NMI_Handler             0x08097a7b     0x2  Code  Gb  stm32f4xx_it.o [1]
NVIC_SetPriority        0x0807e299    0x1e  Code  Lc  RTOSInit_STM32F4x_CMSIS.o [1]
NVIC_SetPriority        0x0807bc2d    0x1e  Code  Lc  stm32f4xx_hal_cortex.o [1]
NVIC_SystemReset        0x08097a61    0x1a  Code  Lc  stm32f4xx_it.o [1]
OS_ARM_ISRCheckPrio     0x08088bc9    0x30  Code  Gb  OS_ARMv7M_ISRCheckPrio.o [6]
OS_AssertCPUInISRMode   0x0807dcb5    0x48  Code  Gb  OS_Kern.o [6]
OS_AssertCPUNotInIllegalState
                        0x0807dcfd    0x3e  Code  Gb  OS_Kern.o [6]
OS_COM_GetNextChar      0x08087f6f     0x2  Code  Gb  OS_Com.o [6]
OS_COM_Init             0x0807e437    0x18  Code  Gb  RTOSInit_STM32F4x_CMSIS.o [1]
OS_COM_Send1            0x0807e433     0x4  Code  Gb  RTOSInit_STM32F4x_CMSIS.o [1]
OS_COM_StoreOutU8       0x08087f71    0x14  Code  Gb  OS_Com.o [6]
OS_COM_pTask            0x200162c4     0x4  Data  Gb  OS_Com.o [6]
OS_ChangeTask_VFP       0x0807ddf9   0x2a4  Code  Gb  OS_Kern.o [6]
OS_ClearWaitObj         0x0807dbb9    0x3e  Code  Gb  OS_Kern.o [6]
OS_Config_SysTimer      0x080889a5    0xaa  Code  Gb  OS_Timing.o [6]
OS_CreateRSema          0x08087627    0xb2  Code  Gb  OS_ResourceSemaphore.o [6]
OS_CreateTask_DP        0x08075269   0x184  Code  Gb  OS_Task.o [6]
OS_DeactivateP          0x0807dbf7    0x3c  Code  Gb  OS_Kern.o [6]
OS_Deactivated          0x0807e1f3    0x42  Code  Gb  OS_Kern.o [6]
OS_DebugInfo            0x080980bc    0x1c  Data  Gb  OS_Info.o [6]
OS_Delay                0x080753ed    0x58  Code  Gb  OS_Task.o [6]
OS_EnableProfiling      0x0807dab1    0x6c  Code  Gb  OS_Kern.o [6]
OS_Error                0x0807e495    0x24  Code  Gb  OS_Error.o [1]
OS_Exception            0x0807e5c5          Code  Gb  rtos.o [6]
OS_GetCPU               0x0807e4b9    0x2a  Code  Gb  OS_Info.o [6]
OS_GetCPUState          0x0807e76d          Code  Gb  OS_GetCPUState.o [6]
OS_GetLibName           0x0807e4e3    0x2a  Code  Gb  OS_Info.o [6]
OS_GetSP                0x0808868d     0x4  Code  Gb  OS_StackInfo.o [6]
OS_GetStackBase         0x0807e50d    0x38  Code  Gb  OS_Info.o [6]
OS_GetStackSize         0x0807e545    0x38  Code  Gb  OS_Info.o [6]
OS_GetSysStackBase      0x08088679     0x4  Code  Gb  OS_StackInfo.o [6]
OS_GetSysStackSize      0x0808867d     0x8  Code  Gb  OS_StackInfo.o [6]
OS_GetTaskName          0x08075445    0x44  Code  Gb  OS_Task.o [6]
OS_GetTimeSliceRem      0x08075489    0x46  Code  Gb  OS_Task.o [6]
OS_GetTime_Cycles       0x0807e3fb    0x2c  Code  Gb  RTOSInit_STM32F4x_CMSIS.o [1]
OS_GetTime_us64         0x08088a4f    0xca  Code  Gb  OS_Timing.o [6]
OS_GetVersion           0x0807e57d    0x28  Code  Gb  OS_Info.o [6]
OS_Global               0x20001958    0x48  Data  Gb  OS_Global.o [6]
OS_Idle                 0x0807e3f9     0x2  Code  Gb  RTOSInit_STM32F4x_CMSIS.o [1]
OS_InTimer              0x20017020     0x1  Data  Gb  OS_Global.o [6]
OS_InitCalled           0x20017021     0x1  Data  Gb  OS_Global.o [6]
OS_InitHW               0x0807e34b    0x9e  Code  Gb  RTOSInit_STM32F4x_CMSIS.o [1]
OS_InitKern_VFP         0x0807dd3d    0xa2  Code  Gb  OS_Kern.o [6]
OS_InitMode             0x0808862d    0x4c  Code  Gb  OS_InitMode.o [6]
OS_InitialSuspendCnt    0x2001701e     0x1  Data  Gb  OS_Global.o [6]
OS_InsertTask           0x0807e141    0xa2  Code  Gb  OS_Kern.o [6]
OS_JLINKMEM_BufferSize  0x080981fc     0x4  Data  Gb  RTOSInit_STM32F4x_CMSIS.o [1]
OS_LeaveRegion          0x0807dc33    0x62  Code  Gb  OS_Kern.o [6]
OS_MakeTaskReady        0x0807e09d    0x9c  Code  Gb  OS_Kern.o [6]
OS_OnRx                 0x08087f85    0xca  Code  Gb  OS_Com.o [6]
OS_OnTx                 0x0808804f    0x1c  Code  Gb  OS_Com.o [6]
OS_RestoreI             0x0807dc95    0x1e  Code  Gb  OS_Kern.o [6]
OS_Running              0x2001701d     0x1  Data  Gb  OS_Global.o [6]
OS_STAT_GetNumActivations
                        0x0807dbb5     0x4  Code  Gb  OS_Kern.o [6]
OS_STAT_GetTaskExecTime
                        0x0807db1d    0x96  Code  Gb  OS_Kern.o [6]
OS_SaveMainStack        0x0807e247    0x34  Code  Gb  OS_Kern.o [6]
OS_SetRxCallback        0x0808806b    0x22  Code  Gb  OS_Com.o [6]
OS_SetTraceAPI          0x0808a829    0x14  Code  Gb  OS_Trace.o [6]
OS_StartASM             0x0807e673          Code  Gb  rtos.o [6]
OS_StartTask            0x0807e659          Code  Gb  rtos.o [6]
OS_Status               0x2001701c     0x1  Data  Gb  OS_Global.o [6]
OS_StopASM              0x0807e6b5          Code  Gb  rtos.o [6]
OS_Switch               0x0807e6cf          Code  Gb  rtos.o [6]
OS_SwitchAfterISR_CortexM4F
                        0x0807e6ef          Code  Gb  rtos.o [6]
OS_SwitchFromInt        0x0807e701          Code  Gb  rtos.o [6]
OS_Switch_End           0x0807e6ff          Code  Gb  rtos.o [6]
OS_TICK_Handle          0x08088691    0x66  Code  Gb  OS_SysTick.o [6]
OS_TS_ExecStart         0x20016fd8     0x4  Data  Gb  OS_Global.o [6]
OS_TerminateError       0x0807e241     0x6  Code  Gb  OS_Kern.o [6]
OS_TickStep             0x2001701f     0x1  Data  Gb  OS_Global.o [6]
OS_TickStepTime         0x20016fd0     0x4  Data  Gb  OS_Global.o [6]
OS_UnlinkTask           0x0807e1e3    0x10  Code  Gb  OS_Kern.o [6]
OS_Unuse                0x080876d9    0x7c  Code  Gb  OS_ResourceSemaphore.o [6]
OS_Use                  0x08087755    0x8e  Code  Gb  OS_ResourceSemaphore.o [6]
OS_Version              0x08098200     0x4  Data  Gb  OS_Global.o [6]
OS_pDefaultTaskContextExtension
                        0x20016fd4     0x4  Data  Gb  OS_Global.o [6]
OS_pMainContext         0x20016fc4     0x4  Data  Gb  OS_Global.o [6]
OS_pObjNameRoot         0x20016fcc     0x4  Data  Gb  OS_Global.o [6]
OS_pRSemaRoot           0x20016fbc     0x4  Data  Gb  OS_Global.o [6]
OS_pTickHookRoot        0x20016fc0     0x4  Data  Gb  OS_Global.o [6]
OS_pfOnTerminate        0x20016f54     0x4  Data  Gb  OS_Task.o [6]
OS_pfTaskStartHook      0x20016fc8     0x4  Data  Gb  OS_Global.o [6]
OS_sCopyright           0x20016fdc     0x4  Data  Gb  OS_Global.o [6]
OTG_FS_IRQHandler       0x08097aa7     0x2  Code  Gb  stm32f4xx_it.o [1]
OTG_HS_IRQHandler       0x08097aa9     0x2  Code  Gb  stm32f4xx_it.o [1]
OperationDisp           0x08081129    0xb6  Code  Lc  MLinkInfo.o [1]
OperationInfoSend       0x08080bb3    0x4c  Code  Lc  MLinkInfo.o [1]
OperationInfoValueDisp  0x08080dcd   0x200  Code  Lc  MLinkInfo.o [1]
OperationInfoValueDisp::DiConstant
                        0x20001af0    0x18  Data  Lc  MLinkInfo.o [1]
OperationInfoValueDisp::DiType
                        0x20001ae4     0xc  Data  Lc  MLinkInfo.o [1]
OperationInfoValueDisp::_acPulse_unit
                        0x20001b08    0x14  Data  Lc  MLinkInfo.o [1]
OperationInitDisp       0x08080fd5   0x104  Code  Lc  MLinkInfo.o [1]
OutStream_Write         0x08096efb    0x42  Code  Lc  lz77_init.o [7]
OverViewValue           0x080703d1    0x2a  Code  Gb  MainMenu.o [1]
Overview                0x08070473    0x86  Code  Lc  MainMenu.o [1]
OverviewSend            0x08070bb5    0x72  Code  Gb  MainMenu.o [1]
P                       0x200165f4    0x14  Data  Lc  AcbMccbMeasurement.o [1]
PCF2127_readTime        0x08074c0d    0xe4  Code  Gb  main.o [1]
PCF2127_set_time        0x08074baf    0x5e  Code  Gb  main.o [1]
PQ1                     0x200165ec     0x8  Data  Lc  AcbMccbMeasurement.o [1]
PQ2                     0x200165a8    0x24  Data  Lc  AcbMccbMeasurement.o [1]
PQ_LABEL_X              0x20001f9c    0x18  Data  Gb  GuiData.o [1]
PQ_UNIT_X               0x20001fcc    0x18  Data  Gb  GuiData.o [1]
PQ_VALUE_X              0x20001fb4    0x18  Data  Gb  GuiData.o [1]
PasswordButtonDisp      0x0807fa01    0xae  Code  Lc  PasswordChange.o [1]
PasswordChange          0x0807fcb9   0x120  Code  Gb  PasswordChange.o [1]
PasswordChangeDisp      0x0807fb41   0x16a  Code  Lc  PasswordChange.o [1]
PasswordDisp            0x0807ee3f    0xce  Code  Gb  MLinkControl.o [1]
PendSV_Handler          0x0807e5c5          Code  Gb  rtos.o [6]
QuestionMessage         0x0807faaf    0x92  Code  Gb  PasswordChange.o [1]
RCC_IRQHandler          0x08097a99     0x2  Code  Gb  stm32f4xx_it.o [1]
RSema                   0x20016e34    0x14  Data  Lc  GUI_X_embOS.o [1]
RTCBatteryStatus        0x08074cf1    0x30  Code  Gb  main.o [1]
ReceiveTask             0x08073e41   0x264  Code  Lc  main.o [1]
RecvHwSetDisp           0x0808201f   0x17e  Code  Lc  AcbMccbHwSet.o [1]
Region$$Table$$Base     0x0809805c           --   Gb  - Linker created -
Region$$Table$$Limit    0x08098088           --   Gb  - Linker created -
RelaySetSend            0x0808401d    0x64  Code  Lc  AcbMccbRelaySet.o [1]
RelaySetValueDisp       0x08084081   0x342  Code  Lc  AcbMccbRelaySet.o [1]
RussianInitButton       0x080764cb     0x2  Code  Lc  MenuDLG.o [1]
SEGGER_RTT_ConfigDownBuffer
                        0x0808ad07    0x3c  Code  Gb  SEGGER_RTT.o [1]
SEGGER_RTT_ConfigUpBuffer
                        0x0808acbd    0x3c  Code  Gb  SEGGER_RTT.o [1]
SEGGER_RTT_ReadNoLock   0x0808abc3    0x74  Code  Gb  SEGGER_RTT.o [1]
SEGGER_RTT_WriteSkipNoLock
                        0x0808ac37    0x6e  Code  Gb  SEGGER_RTT.o [1]
SEGGER_SYSVIEW_Conf     0x08088b3f    0x38  Code  Gb  SEGGER_SYSVIEW_Config_embOS.o [1]
SEGGER_SYSVIEW_GetSysDesc
                        0x0808a403    0x2c  Code  Gb  SEGGER_SYSVIEW.o [1]
SEGGER_SYSVIEW_Init     0x0808a193    0x5a  Code  Gb  SEGGER_SYSVIEW.o [1]
SEGGER_SYSVIEW_NameResource
                        0x0808a6cb    0x38  Code  Gb  SEGGER_SYSVIEW.o [1]
SEGGER_SYSVIEW_OnIdle   0x0808a60f     0xa  Code  Gb  SEGGER_SYSVIEW.o [1]
SEGGER_SYSVIEW_OnTaskCreate
                        0x0808a619     0xa  Code  Gb  SEGGER_SYSVIEW.o [1]
SEGGER_SYSVIEW_OnTaskStartExec
                        0x0808a65f     0xa  Code  Gb  SEGGER_SYSVIEW.o [1]
SEGGER_SYSVIEW_OnTaskStartReady
                        0x0808a673     0xa  Code  Gb  SEGGER_SYSVIEW.o [1]
SEGGER_SYSVIEW_OnTaskStopExec
                        0x0808a669     0xa  Code  Gb  SEGGER_SYSVIEW.o [1]
SEGGER_SYSVIEW_OnTaskStopReady
                        0x0808a67d    0x42  Code  Gb  SEGGER_SYSVIEW.o [1]
SEGGER_SYSVIEW_OnTaskTerminate
                        0x0808a623     0xa  Code  Gb  SEGGER_SYSVIEW.o [1]
SEGGER_SYSVIEW_RecordEndCall
                        0x0808a5a9     0xc  Code  Gb  SEGGER_SYSVIEW.o [1]
SEGGER_SYSVIEW_RecordEndCallU32
                        0x0808a5d9    0x28  Code  Gb  SEGGER_SYSVIEW.o [1]
SEGGER_SYSVIEW_RecordEnterISR
                        0x0808a527    0x1e  Code  Gb  SEGGER_SYSVIEW.o [1]
SEGGER_SYSVIEW_RecordEnterTimer
                        0x0808a587     0xa  Code  Gb  SEGGER_SYSVIEW.o [1]
SEGGER_SYSVIEW_RecordExitISR
                        0x0808a569     0x8  Code  Gb  SEGGER_SYSVIEW.o [1]
SEGGER_SYSVIEW_RecordExitISRToScheduler
                        0x0808a57d     0xa  Code  Gb  SEGGER_SYSVIEW.o [1]
SEGGER_SYSVIEW_RecordExitTimer
                        0x0808a591     0xa  Code  Gb  SEGGER_SYSVIEW.o [1]
SEGGER_SYSVIEW_RecordSystime
                        0x0808a4fd    0x2a  Code  Gb  SEGGER_SYSVIEW.o [1]
SEGGER_SYSVIEW_RecordU32
                        0x0808a1ff    0x24  Code  Gb  SEGGER_SYSVIEW.o [1]
SEGGER_SYSVIEW_RecordU32x2
                        0x0808a223    0x40  Code  Gb  SEGGER_SYSVIEW.o [1]
SEGGER_SYSVIEW_RecordU32x3
                        0x0808a263    0x10  Code  Gb  SEGGER_SYSVIEW.o [1]
SEGGER_SYSVIEW_RecordU32x4
                        0x0808a273    0x12  Code  Gb  SEGGER_SYSVIEW.o [1]
SEGGER_SYSVIEW_RecordU32x5
                        0x0808a2cf     0x8  Code  Gb  SEGGER_SYSVIEW.o [1]
SEGGER_SYSVIEW_RecordVoid
                        0x0808a1f5     0xa  Code  Gb  SEGGER_SYSVIEW.o [1]
SEGGER_SYSVIEW_SendModule
                        0x0808a745    0x4c  Code  Gb  SEGGER_SYSVIEW.o [1]
SEGGER_SYSVIEW_SendModuleDescription
                        0x0808a7b7    0x16  Code  Gb  SEGGER_SYSVIEW.o [1]
SEGGER_SYSVIEW_SendNumModules
                        0x0808a7cd    0x14  Code  Gb  SEGGER_SYSVIEW.o [1]
SEGGER_SYSVIEW_SendSysDesc
                        0x0808a4f1     0xc  Code  Gb  SEGGER_SYSVIEW.o [1]
SEGGER_SYSVIEW_SendTaskInfo
                        0x0808a45d    0x66  Code  Gb  SEGGER_SYSVIEW.o [1]
SEGGER_SYSVIEW_SendTaskList
                        0x0808a4d9    0x18  Code  Gb  SEGGER_SYSVIEW.o [1]
SEGGER_SYSVIEW_SetRAMBase
                        0x0808a1ed     0x8  Code  Gb  SEGGER_SYSVIEW.o [1]
SEGGER_SYSVIEW_ShrinkId
                        0x0808a729     0xa  Code  Gb  SEGGER_SYSVIEW.o [1]
SEGGER_SYSVIEW_Start    0x0808a37f    0x68  Code  Gb  SEGGER_SYSVIEW.o [1]
SEGGER_SYSVIEW_Stop     0x0808a3e7    0x1c  Code  Gb  SEGGER_SYSVIEW.o [1]
SPI3_IRQHandler         0x08097aa1     0x6  Code  Gb  stm32f4xx_it.o [1]
SPI_DMAAbortOnError     0x0807cf91     0xc  Code  Lc  stm32f4xx_hal_spi.o [1]
SVC_Handler             0x08097a95     0x2  Code  Gb  stm32f4xx_it.o [1]
SYSVIEW_X_OS_TraceAPI   0x08097e7c     0x8  Data  Gb  SEGGER_SYSVIEW_embOS.o [1]
ScreenTimerInit         0x08070c31    0x34  Code  Lc  MainMenu.o [1]
SetInfoMenu             0x080760b5    0xd6  Code  Lc  Setup.o [1]
SettingInput            0x0807e831    0xdc  Code  Gb  SettingInput.o [1]
SettingInputString      0x0807e9f1    0xd6  Code  Gb  SettingInput.o [1]
SettingMenuExec         0x08075cfd   0x12a  Code  Lc  Setup.o [1]
SettingTime             0x08080043   0x1d6  Code  Gb  SettingTime.o [1]
SettingValue            0x20002014    0x14  Data  Gb  GuiData.o [1]
Setup                   0x080761bf   0x156  Code  Gb  Setup.o [1]
SetupDeviceInfoValueDisp
                        0x08075f5f    0x8a  Code  Lc  Setup.o [1]
SlaveSendLength         0x200160d8     0x2  Data  Gb  main.o [1]
SlaveTxBuffer           0x200160dc   0x100  Data  Gb  main.o [1]
StatusRecv              0x08070659   0x4e8  Code  Gb  MainMenu.o [1]
StatusRecv::gEventMax   0x200167ec    0x10  Data  Lc  MainMenu.o [1]
StatusRecv::gFaultMax   0x200167fc    0x10  Data  Lc  MainMenu.o [1]
StatusRecvErrorProcess  0x080705c9    0x2a  Code  Gb  MainMenu.o [1]
StatusSend              0x08070509    0xc0  Code  Gb  MainMenu.o [1]
SysTick_Handler         0x0807e2c7    0x78  Code  Gb  RTOSInit_STM32F4x_CMSIS.o [1]
SystemCoreClock         0x200022b0     0x4  Data  Gb  system_stm32f4xx.o [1]
SystemCoreClockUpdate   0x0808890f    0x60  Code  Gb  system_stm32f4xx.o [1]
SystemInit              0x080888d5    0x3a  Code  Gb  system_stm32f4xx.o [1]
TIM2_IRQHandler         0x08097a9b     0x6  Code  Gb  stm32f4xx_it.o [1]
TIM_Base_SetConfig      0x0807c7f5    0x8e  Code  Gb  stm32f4xx_hal_tim.o [1]
TIM_CCxChannelCmd       0x0807c8df    0x14  Code  Gb  stm32f4xx_hal_tim.o [1]
TIM_OC1_SetConfig       0x0807c8f3    0x4a  Code  Lc  stm32f4xx_hal_tim.o [1]
TIM_OC2_SetConfig       0x0807c885    0x58  Code  Gb  stm32f4xx_hal_tim.o [1]
TIM_OC3_SetConfig       0x0807c93d    0x50  Code  Lc  stm32f4xx_hal_tim.o [1]
TIM_OC4_SetConfig       0x0807c999    0x46  Code  Lc  stm32f4xx_hal_tim.o [1]
UART_DMAAbortOnError    0x0807b129     0xc  Code  Lc  stm32f4xx_hal_uart.o [1]
UART_DMAError           0x0807b04d    0x4a  Code  Lc  stm32f4xx_hal_uart.o [1]
UART_DMAReceiveCplt     0x0807b00d    0x38  Code  Lc  stm32f4xx_hal_uart.o [1]
UART_DMARxHalfCplt      0x0807b045     0x6  Code  Lc  stm32f4xx_hal_uart.o [1]
UART_DMATransmitCplt    0x0807afd9    0x2a  Code  Lc  stm32f4xx_hal_uart.o [1]
UART_DMATxHalfCplt      0x0807b005     0x6  Code  Lc  stm32f4xx_hal_uart.o [1]
UART_EndRxTransfer      0x0807b10d    0x1c  Code  Lc  stm32f4xx_hal_uart.o [1]
UART_EndTxTransfer      0x0807b0fb    0x12  Code  Lc  stm32f4xx_hal_uart.o [1]
UART_Receive_IT         0x0807b135    0x8c  Code  Lc  stm32f4xx_hal_uart.o [1]
UART_SetConfig          0x0807b1c1   0x13a  Code  Lc  stm32f4xx_hal_uart.o [1]
UART_WaitOnFlagUntilTimeout
                        0x0807b097    0x56  Code  Lc  stm32f4xx_hal_uart.o [1]
UP_POINT                0x200021d8     0xc  Data  Gb  GuiData.o [1]
USART1_IRQHandler       0x08097aab     0x6  Code  Gb  stm32f4xx_it.o [1]
USART2_IRQHandler       0x08097ab1     0x6  Code  Gb  stm32f4xx_it.o [1]
USART6_IRQHandler       0x08097af5     0x6  Code  Gb  stm32f4xx_it.o [1]
UsageFault_Handler      0x08097a8d     0x8  Code  Gb  stm32f4xx_it.o [1]
User_Pwm_Setup          0x080783e1    0x76  Code  Gb  backlight.o [1]
VI                      0x200165cc    0x20  Data  Lc  AcbMccbMeasurement.o [1]
VendorName              0x20016b64    0x34  Data  Gb  main.o [1]
WIDGET_AndState         0x08088fa3    0x2e  Code  Gb  WIDGET.o [3]
WIDGET_Effect_Simple    0x080980d8    0x1c  Data  Gb  WIDGET_Effect_Simple.o [3]
WIDGET_HandleActive     0x08088fdd   0x13e  Code  Gb  WIDGET.o [3]
WIDGET_OrState          0x08088f6d    0x30  Code  Gb  WIDGET.o [3]
WIDGET_SetState         0x08088f45    0x28  Code  Gb  WIDGET.o [3]
WIDGET__GetInsideRect   0x08088f1d    0x1a  Code  Gb  WIDGET.o [3]
WIDGET__Init            0x08088f37     0xe  Code  Gb  WIDGET.o [3]
WINDOW_Callback         0x080802f1   0x114  Code  Gb  WINDOW.o [3]
WINDOW_CreateIndirect   0x08080499    0x3c  Code  Gb  WINDOW.o [3]
WINDOW_CreateUser       0x0808042b    0x64  Code  Gb  WINDOW.o [3]
WINDOW_SetBkColor       0x08080405    0x26  Code  Gb  WINDOW.o [3]
WINDOW__DefaultBkColor  0x200022c0     0x4  Data  Gb  WINDOW.o [3]
WM_Activate             0x080781cf     0xc  Code  Gb  WM.o [3]
WM_BringToBottom        0x08076c65    0x82  Code  Gb  WM_Lib.o [3]
WM_BringToTop           0x0808a841    0x76  Code  Gb  WM_BringToTop.o [3]
WM_CreateWindowAsChild  0x08077805   0x144  Code  Gb  WM.o [3]
WM_Deactivate           0x080781db    0x1c  Code  Gb  WM.o [3]
WM_DefaultProc          0x080781f7    0x42  Code  Gb  WM.o [3]
WM_DeleteTimer          0x080861b9    0x2a  Code  Gb  WM_Timer.o [3]
WM_DeleteWindow         0x08077949    0xd6  Code  Gb  WM.o [3]
WM_Exec                 0x08078109    0x72  Code  Gb  WM.o [3]
WM_ForEachDesc          0x08076bf1    0x1e  Code  Gb  WM_Lib.o [3]
WM_GetActiveWindow      0x08077a95     0xa  Code  Gb  WM.o [3]
WM_GetClientRect        0x08076c2d    0x12  Code  Gb  WM_Lib.o [3]
WM_GetClientRectEx      0x08076c17     0xe  Code  Gb  WM_Lib.o [3]
WM_GetClientWindow      0x08076c3f    0x14  Code  Gb  WM_Lib.o [3]
WM_GetDesktopWindow     0x08076c53    0x12  Code  Gb  WM_Lib.o [3]
WM_GetDialogItem        0x08076ce7    0x46  Code  Gb  WM_Lib.o [3]
WM_GetFirstChild        0x08076d2d    0x18  Code  Gb  WM_Lib.o [3]
WM_GetFocusedWindow     0x08076d45    0x10  Code  Gb  WM_Lib.o [3]
WM_GetId                0x08076d55    0x24  Code  Gb  WM_Lib.o [3]
WM_GetParent            0x08076da7    0x18  Code  Gb  WM_Lib.o [3]
WM_GetWindowInfo::iWin  0x200165a0     0x4  Data  Lc  WM.o [3]
WM_GetWindowOrgX        0x08076d87    0x1a  Code  Gb  WM_Lib.o [3]
WM_GetWindowSizeX       0x08097d5b    0x1c  Code  Gb  WM_GetWindowSize.o [3]
WM_GetWindowSizeY       0x08097d77    0x1a  Code  Gb  WM_GetWindowSize.o [3]
WM_HasFocus             0x08076ddf    0x18  Code  Gb  WM_Lib.o [3]
WM_HideWindow           0x08081fab    0x38  Code  Gb  WM_Hide.o [3]
WM_Init                 0x0807828f    0xb0  Code  Gb  WM.o [3]
WM_Init::RegisterExit   0x20016598     0x8  Data  Lc  WM.o [3]
WM_InvalidateRect       0x08077789    0x78  Code  Gb  WM.o [3]
WM_InvalidateWindow     0x08077801     0x4  Code  Gb  WM.o [3]
WM_InvalidateWindowAndDescs
                        0x080770e1    0x2a  Code  Gb  WM_Lib.o [3]
WM_InvalidateWindowAndDescsEx
                        0x080774c7    0x54  Code  Gb  WM.o [3]
WM_IsFocusable          0x08076df7    0x34  Code  Gb  WM_Lib.o [3]
WM_IsWindow             0x08076e2b    0x10  Code  Gb  WM_Lib.o [3]
WM_MULTIBUF__pAPI       0x20016580     0x4  Data  Gb  WM.o [3]
WM_MoveWindow           0x080894f1     0xc  Code  Gb  WM_Move.o [3]
WM_NotifyParent         0x08076e41    0x14  Code  Gb  WM_Lib.o [3]
WM_OnKey                0x08076e55    0x32  Code  Gb  WM_Lib.o [3]
WM_ResizeWindow         0x08076e9b    0xf4  Code  Gb  WM_Lib.o [3]
WM_SelectWindow         0x08077a51    0x3e  Code  Gb  WM.o [3]
WM_SendMessage          0x08077741    0x1e  Code  Gb  WM.o [3]
WM_SendMessageNoPara    0x08076f8f    0x10  Code  Gb  WM_Lib.o [3]
WM_SendToParent         0x08076f9f    0x1e  Code  Gb  WM_Lib.o [3]
WM_SetCreateFlags       0x08076fcf     0x4  Code  Gb  WM_Lib.o [3]
WM_SetDefault           0x08077ceb    0x12  Code  Gb  WM.o [3]
WM_SetFocus             0x08076fd3    0x84  Code  Gb  WM_Lib.o [3]
WM_SetFocusOnNextChild  0x080891a7    0x5e  Code  Gb  WM_SetFocusOnNextChild.o [3]
WM_SetFocusOnPrevChild  0x0808913f    0x44  Code  Gb  WM_SetFocusOnPrevChild.o [3]
WM_SetHasTrans          0x08096b61    0x44  Code  Gb  WM_SetTrans.o [3]
WM_SetSize              0x0807706f    0x44  Code  Gb  WM_Lib.o [3]
WM_SetUserClipRect      0x080770b9    0x12  Code  Gb  WM_Lib.o [3]
WM_ShowWindow           0x0807710b    0x30  Code  Gb  WM_Lib.o [3]
WM_ValidateWindow       0x0807713b    0x30  Code  Gb  WM_Lib.o [3]
WM__ActivateClipRect    0x08077305    0x44  Code  Gb  WM.o [3]
WM__AddCriticalHandle   0x08085db3     0xa  Code  Gb  WM__Private.o [3]
WM__Client2Screen       0x0807744d    0x10  Code  Gb  WM.o [3]
WM__ClipAtParentBorders
                        0x080772c7    0x3e  Code  Gb  WM.o [3]
WM__CreateFlags         0x20016578     0x4  Data  Gb  WM.o [3]
WM__DeleteAssocTimer    0x08086165    0x54  Code  Gb  WM_Timer.o [3]
WM__DetachWindow        0x08077415    0x26  Code  Gb  WM.o [3]
WM__FirstWin            0x20016568     0x4  Data  Gb  WM.o [3]
WM__ForEachDesc         0x08085b8d    0x2c  Code  Gb  WM__Private.o [3]
WM__GetClientRectEx     0x08085dcd    0x20  Code  Gb  WM__Private.o [3]
WM__GetClientRectWin    0x08077771    0x18  Code  Gb  WM.o [3]
WM__GetFirstSibling     0x08085bb9    0x10  Code  Gb  WM__Private.o [3]
WM__GetFocusedChild     0x08085bc9    0x20  Code  Gb  WM__Private.o [3]
WM__GetLastSibling      0x08085be9    0x1a  Code  Gb  WM__Private.o [3]
WM__GetNextIVR          0x08077bdd    0x36  Code  Gb  WM.o [3]
WM__GetPrevSibling      0x08085c03    0x22  Code  Gb  WM__Private.o [3]
WM__GetTopLevelLayer    0x08077a25    0x18  Code  Gb  WM.o [3]
WM__GetWindowSizeX      0x08097d43     0xa  Code  Gb  WM_GetWindowSize.o [3]
WM__GetWindowSizeY      0x08097d4d     0x8  Code  Gb  WM_GetWindowSize.o [3]
WM__InitIVRSearch       0x08077c13    0xd8  Code  Gb  WM.o [3]
WM__InsertWindowIntoList
                        0x08077349    0x92  Code  Gb  WM.o [3]
WM__InvalidLayerMask    0x20016560     0x4  Data  Gb  WM.o [3]
WM__Invalidate1Abs      0x080772c3     0x4  Code  Gb  WM.o [3]
WM__InvalidateDrawAndDescs
                        0x08077479    0x4e  Code  Gb  WM.o [3]
WM__InvalidateParent    0x0807720b    0x24  Code  Gb  WM.o [3]
WM__InvalidateRect      0x08077525    0x72  Code  Gb  WM.o [3]
WM__InvalidateRectEx    0x08077597     0x4  Code  Gb  WM.o [3]
WM__IsAncestor          0x08085c25    0x24  Code  Gb  WM__Private.o [3]
WM__IsAncestorOrSelf    0x08085c49     0xc  Code  Gb  WM__Private.o [3]
WM__IsChild             0x08085c55    0x20  Code  Gb  WM__Private.o [3]
WM__IsEnabled           0x08085c75    0x16  Code  Gb  WM__Private.o [3]
WM__IsWindow            0x0807745d    0x1c  Code  Gb  WM.o [3]
WM__ModalLayer          0x200020b0     0x4  Data  Gb  WM_Touch.o [3]
WM__MoveWindow          0x0808944b    0x94  Code  Gb  WM_Move.o [3]
WM__NumInvalidWindows   0x20016544     0x2  Data  Gb  WM.o [3]
WM__NumWindows          0x20016542     0x2  Data  Gb  WM.o [3]
WM__Paint               0x08077f8b    0x98  Code  Gb  WM.o [3]
WM__Paint1              0x08077cfd    0x74  Code  Gb  WM.o [3]
WM__PaintCallbackCnt    0x20016540     0x1  Data  Gb  WM.o [3]
WM__PaintWinAndOverlays
                        0x08077ed3    0x6a  Code  Lc  WM.o [3]
WM__RectIsNZ            0x0807759b    0x1e  Code  Gb  WM.o [3]
WM__RemoveWindowFromList
                        0x080773db    0x3a  Code  Gb  WM.o [3]
WM__SelectTopLevelLayer
                        0x08077a3d    0x14  Code  Gb  WM.o [3]
WM__SendMessage         0x08085c8b    0x3a  Code  Gb  WM__Private.o [3]
WM__SendMessage::_EntranceCnt
                        0x20016ff0     0x4  Data  Lc  WM__Private.o [3]
WM__SendMessageNoPara   0x08085cc5    0x28  Code  Gb  WM__Private.o [3]
WM__SendMsgNoData       0x0807775f    0x12  Code  Gb  WM.o [3]
WM__TouchedLayer        0x20016564     0x4  Data  Gb  WM.o [3]
WM__TransWindowCnt      0x20016584     0x4  Data  Gb  WM.o [3]
WM__UpdateChildPositions
                        0x08085ced    0xc0  Code  Gb  WM__Private.o [3]
WM__aBkColor            0x20016570     0x8  Data  Gb  WM.o [3]
WM__aCHWinLast          0x20016a8c    0x10  Data  Gb  WM_Touch.o [3]
WM__aCHWinModal         0x200020a0    0x10  Data  Gb  WM_Touch.o [3]
WM__aCHWinMouseOver     0x20016a9c    0x10  Data  Gb  WM_Touch.o [3]
WM__ahCapture           0x20016550     0x8  Data  Gb  WM.o [3]
WM__ahDesktopWin        0x20016548     0x8  Data  Gb  WM.o [3]
WM__ahWinFocus          0x20016558     0x8  Data  Gb  WM.o [3]
WM__hATransWindow       0x20016588     0x4  Data  Gb  WM.o [3]
WM__hCreateStatic       0x20016fe4     0x4  Data  Gb  WM.o [3]
WM__pExecGestures       0x2001658c     0x4  Data  Gb  WM.o [3]
WM__pFirstCriticalHandle
                        0x2001656c     0x4  Data  Gb  WM.o [3]
WM_pfHandlePID          0x20016fa4     0x4  Data  Gb  GUI_Core.o [3]
WM_pfPollPID            0x2001657c     0x4  Data  Gb  WM.o [3]
_API_Table              0x0807bc1c    0x10  Data  Lc  GUI_UC_EncodeUTF8.o [3]
_Add                    0x0807eb0d    0x34  Code  Lc  GUI_FillPolygon.o [3]
_AddFreeMemory          0x0807b3a7    0x88  Code  Lc  GUI_Alloc.o [3]
_AddPoint               0x0807eb41    0x20  Code  Lc  GUI_FillPolygon.o [3]
_Alloc                  0x0807b5ed    0xea  Code  Lc  GUI_Alloc.o [3]
_AndMask                0x200020c4     0x4  Data  Lc  LCD_AA.o [3]
_BaseAddr               0x20016cac     0x4  Data  Lc  JLINKMEM_Process.o [1]
_BitmapSwapRB           0x20016b2c     0x1  Data  Lc  LCD_RLE16.o [3]
_CPU_Ram_Write          0x080784f1    0x1a  Code  Lc  lcd.o [1]
_CalcOrto               0x0807a325    0x50  Code  Lc  GUI_DrawLine.o [3]
_CalcSizeOfChar         0x0807bb9f    0x1a  Code  Lc  GUI_UC_EncodeUTF8.o [3]
_CalcSizeOfChar         0x08097ff9     0x4  Code  Lc  GUI_UC_EncodeNone.o [3]
_CheckDelays            0x0807da17    0x98  Code  Lc  OS_Kern.o [6]
_ChkSum                 0x200162aa     0x1  Data  Lc  OS_Com.o [6]
_ClipContext            0x20016528    0x18  Data  Lc  WM.o [3]
_Color2IndexBulk        0x08096e3f    0x30  Code  Lc  GUICC_565.o [3]
_Color2IndexBulk        0x08097fa9    0x10  Code  Lc  GUICC_8888.o [3]
_Color2Index_0          0x08097b29    0x50  Code  Lc  GUICC_0.o [3]
_Color2Index_565        0x08096e17    0x22  Code  Lc  GUICC_565.o [3]
_Color2Index_8888       0x08097fa1     0x2  Code  Lc  GUICC_8888.o [3]
_Config                 0x20016f20     0xc  Data  Lc  GUI_Alloc.o [3]
_ConstObjData           0x08088ed0     0xc  Data  Lc  GUI_DRAW_BITMAP.o [3]
_Context                0x20016ccc    0x30  Data  Lc  GUI_BMP.o [3]
_Continue               0x20016a30     0x4  Data  Lc  SEGGER_HardFaultHandler.o [1]
_Convert16              0x08089749    0x22  Code  Lc  GUIDEV_WriteToActiveOpaque.o [3]
_Convert8               0x0808976b    0x22  Code  Lc  GUIDEV_WriteToActiveOpaque.o [3]
_Create                 0x08097d09    0x30  Code  Lc  BUTTON_Skin.o [3]
_CreateStaticDevice     0x080973d1   0x12c  Code  Lc  GUIDEV_StaticDevices.o [3]
_CurrentTaskNo          0x20001e1c     0x4  Data  Lc  GUI_Task.o [3]
_Data2Index_16bpp_B16   0x08095b69    0x1a  Code  Lc  GUIDRV_FlexColor_Func66709.o [3]
_Data2Index_16bpp_B8    0x08095ae9    0x16  Code  Lc  GUIDRV_FlexColor_Func66709.o [3]
_DelayUntil             0x08075225    0x44  Code  Lc  OS_Task.o [6]
_DeleteAllChildren      0x0807743b    0x12  Code  Lc  WM.o [3]
_DeleteWindows          0x20016594     0x4  Data  Lc  WM.o [3]
_DesktopHandle2Index    0x080771a9    0x1e  Code  Lc  WM.o [3]
_DispLine               0x0807a6ef    0x7e  Code  Lc  GUI_CharLine.o [3]
_DoAlphaBlending        0x080970b5    0x32  Code  Lc  GUIDEV_WriteToActiveAlpha.o [3]
_DoInit                 0x0808ab71    0x52  Code  Lc  SEGGER_RTT.o [1]
_DownBuffer             0x200154ac     0x8  Data  Lc  SEGGER_SYSVIEW.o [1]
_Draw                   0x08073761   0x156  Code  Lc  GUI_BMP.o [3]
_DrawBitLine16BPP       0x08093a8d    0x4e  Code  Lc  GUIDEV_32.o [3]
_DrawBitLine16BPP_DDB   0x080926dd    0x32  Code  Lc  GUIDEV_16.o [3]
_DrawBitLine1BPP        0x080953ad   0x130  Code  Lc  GUIDRV_FlexColor_16bpp_C0B16.o [3]
_DrawBitLine1BPP        0x080927a1   0x11e  Code  Lc  GUIDEV_16.o [3]
_DrawBitLine1BPP        0x08093b15   0x100  Code  Lc  GUIDEV_32.o [3]
_DrawBitLine2BPP        0x080954f3    0x84  Code  Lc  GUIDRV_FlexColor_16bpp_C0B16.o [3]
_DrawBitLine2BPP        0x080928cd    0xce  Code  Lc  GUIDEV_16.o [3]
_DrawBitLine2BPP        0x08093c21    0xd8  Code  Lc  GUIDEV_32.o [3]
_DrawBitLine32BPP       0x0809270f    0x58  Code  Lc  GUIDEV_16.o [3]
_DrawBitLine32BPP_DDB   0x080939f5    0x98  Code  Lc  GUIDEV_32.o [3]
_DrawBitLine4BPP        0x08095593    0x86  Code  Lc  GUIDRV_FlexColor_16bpp_C0B16.o [3]
_DrawBitLine4BPP        0x080929b5   0x142  Code  Lc  GUIDEV_16.o [3]
_DrawBitLine4BPP        0x08093d0d   0x142  Code  Lc  GUIDEV_32.o [3]
_DrawBitLine8BPP        0x080956c1    0xbc  Code  Lc  GUIDRV_FlexColor_16bpp_C0B16.o [3]
_DrawBitLine8BPP        0x08092b03    0x58  Code  Lc  GUIDEV_16.o [3]
_DrawBitLine8BPP        0x08093e5b    0x58  Code  Lc  GUIDEV_32.o [3]
_DrawBitLine8BPP_DDB    0x08092b5b    0x52  Code  Lc  GUIDEV_16.o [3]
_DrawBitLine8BPP_DDB    0x08093eb3    0x52  Code  Lc  GUIDEV_32.o [3]
_DrawBitmap             0x08096be7   0x1a2  Code  Lc  LCD_RLE16.o [3]
_DrawBitmap             0x08086f7f    0x28  Code  Lc  GUIDRV_FlexColor.o [3]
_DrawBitmap             0x08095887    0xbc  Code  Lc  GUIDRV_FlexColor_16bpp_C0B16.o [3]
_DrawBitmap             0x08092bc7   0x16e  Code  Lc  GUIDEV_16.o [3]
_DrawBitmap             0x08088e31    0x30  Code  Lc  GUI_DRAW_BITMAP.o [3]
_DrawBitmap             0x08093f1f   0x152  Code  Lc  GUIDEV_32.o [3]
_DrawBitmap_16bpp       0x0807343f    0xe4  Code  Lc  GUI_BMP.o [3]
_DrawBitmap_24bpp       0x08073721    0x1e  Code  Lc  GUI_BMP.o [3]
_DrawBitmap_32bpp       0x0807373f    0x12  Code  Lc  GUI_BMP.o [3]
_DrawBitmap_Pal         0x08073371    0xce  Code  Lc  GUI_BMP.o [3]
_DrawBitmap_RGB         0x08073523   0x104  Code  Lc  GUI_BMP.o [3]
_DrawBitmap_RLE         0x08072f8d   0x1fa  Code  Lc  GUI_BMP.o [3]
_DrawBitmap_RLE16       0x08096d89     0xe  Code  Lc  LCD_RLE16.o [3]
_DrawBitmap_RLE16::Cache
                        0x20016b44    0x10  Data  Lc  LCD_RLE16.o [3]
_DrawBitmap_RLEM16::Cache
                        0x20016b54    0x10  Data  Lc  LCD_RLE16.o [3]
_DrawDown               0x08097ecd    0x12  Code  Lc  WIDGET_Effect_Simple.o [3]
_DrawDownRect           0x08097e9b     0x2  Code  Lc  WIDGET_Effect_Simple.o [3]
_DrawGradient           0x08096939   0x17c  Code  Lc  GUI_DrawGradient.o [3]
_DrawHLine              0x08086f5b     0x8  Code  Lc  GUIDRV_FlexColor.o [3]
_DrawHLine              0x08092e2d     0xa  Code  Lc  GUIDEV_16.o [3]
_DrawHLine              0x08094155     0xa  Code  Lc  GUIDEV_32.o [3]
_DrawLineEnd            0x0807a375    0x12  Code  Lc  GUI_DrawLine.o [3]
_DrawLine_RGB           0x08073305    0x6c  Code  Lc  GUI_BMP.o [3]
_DrawTwinArc4           0x0809678b    0xd0  Code  Lc  GUI__DrawTwinArc.o [3]
_DrawUp                 0x08097e89    0x12  Code  Lc  WIDGET_Effect_Simple.o [3]
_DrawUpRect             0x08097e85     0x4  Code  Lc  WIDGET_Effect_Simple.o [3]
_DrawVLine              0x08086f63     0x8  Code  Lc  GUIDRV_FlexColor.o [3]
_DrawVLine              0x08092e37    0x96  Code  Lc  GUIDEV_16.o [3]
_DrawVLine              0x0809415f    0x94  Code  Lc  GUIDEV_32.o [3]
_DropTxData             0x080887ad    0x12  Code  Lc  JLINKMEM_Process.o [1]
_Encode                 0x0807bbb9    0x48  Code  Lc  GUI_UC_EncodeUTF8.o [3]
_Encode                 0x08097ffd     0x6  Code  Lc  GUI_UC_EncodeNone.o [3]
_EncodeStr              0x08089fd5    0x30  Code  Lc  SEGGER_SYSVIEW.o [1]
_Encoding_8859_1_Mbrlen
                        0x080715a1     0x2  Code  Gb  xencoding_8859_1.o [4]
_Encoding_8859_1_Wctomb
                        0x0807158f    0x12  Code  Gb  xencoding_8859_1.o [4]
_EnlargeBlocks          0x0807b4c9    0x8a  Code  Lc  GUI_Alloc.o [3]
_Error_Handler          0x080747f9    0x10  Code  Gb  main.o [1]
_EvaPacket              0x080877f9   0x2d4  Code  Lc  OS_Com.o [6]
_Exec1Draw              0x0807808d    0x76  Code  Lc  WM.o [3]
_Exec1Input             0x08078023    0x6a  Code  Lc  WM.o [3]
_ExecGetTaskInfo        0x08087acd   0x266  Code  Lc  OS_Com.o [6]
_FillByte               0x200022da     0x1  Data  Lc  GUIDEV_StaticDevices.o [3]
_FillRect               0x08086f75     0xa  Code  Lc  GUIDRV_FlexColor.o [3]
_FillRect               0x08095789    0xf8  Code  Lc  GUIDRV_FlexColor_16bpp_C0B16.o [3]
_FillRect               0x08092d87    0xa6  Code  Lc  GUIDEV_16.o [3]
_FillRect               0x080940b5    0xa0  Code  Lc  GUIDEV_32.o [3]
_FillRoundedRect        0x08088c2d    0x86  Code  Lc  GUI_FillRoundedRect.o [3]
_FillTxBuf              0x08088763    0x3a  Code  Lc  JLINKMEM_Process.o [1]
_FindNext_IVR           0x08077a9f   0x12e  Code  Lc  WM.o [3]
_Findx0                 0x0807765f    0x6c  Code  Lc  WM.o [3]
_Findx1                 0x080776d3    0x60  Code  Lc  WM.o [3]
_Findy1                 0x080775b9    0x96  Code  Lc  WM.o [3]
_GL_FP_Cnt              0x20016dfc     0x4  Data  Lc  GUI_FillPolygon.o [3]
_GUI_USAGE_BM_Delete    0x08089671     0x4  Code  Lc  GUIDEV_UsageBM.o [3]
_GenldFull              0x08079b3f   0x250  Code  Lc  xprintffull.o [4]
_GetBitfieldsPara       0x0807362b    0x20  Code  Lc  GUI_BMP.o [3]
_GetByte_pPixel         0x08096bb1     0xe  Code  Lc  LCD_RLE16.o [3]
_GetCharCode            0x0807bb41    0x3c  Code  Lc  GUI_UC_EncodeUTF8.o [3]
_GetCharCode            0x08097ff1     0x4  Code  Lc  GUI_UC_EncodeNone.o [3]
_GetCharSize            0x0807bb7d    0x22  Code  Lc  GUI_UC_EncodeUTF8.o [3]
_GetCharSize            0x08097ff5     0x4  Code  Lc  GUI_UC_EncodeNone.o [3]
_GetClipParam           0x080731a5    0xbe  Code  Lc  GUI_BMP.o [3]
_GetDefaultWin          0x08097d39     0xa  Code  Lc  WM_GetWindowSize.o [3]
_GetDevData             0x08087259     0xc  Code  Lc  GUIDRV_FlexColor.o [3]
_GetDevData             0x08092fad     0xc  Code  Lc  GUIDEV_16.o [3]
_GetDevData             0x080942b9     0xc  Code  Lc  GUIDEV_32.o [3]
_GetDevFunc             0x0808718b    0x76  Code  Lc  GUIDRV_FlexColor.o [3]
_GetDevFunc             0x08092fb9     0xa  Code  Lc  GUIDEV_16.o [3]
_GetDevFunc             0x080942c5     0xa  Code  Lc  GUIDEV_32.o [3]
_GetDevFunc_Init        0x08086fc7    0x4a  Code  Lc  GUIDRV_FlexColor.o [3]
_GetDevFunc_Off         0x0808704d    0x16  Code  Lc  GUIDRV_FlexColor.o [3]
_GetDevFunc_On          0x08087037    0x16  Code  Lc  GUIDRV_FlexColor.o [3]
_GetDevFunc_SetRect     0x08087035     0x2  Code  Lc  GUIDRV_FlexColor.o [3]
_GetDevFunc_SetRectOutside
                        0x08087063    0x3e  Code  Lc  GUIDRV_FlexColor.o [3]
_GetDevFunc_SetRectOutside::pfSetRect
                        0x20016fe0     0x4  Data  Lc  GUIDRV_FlexColor.o [3]
_GetDevFunc_SetSize     0x0808701f     0xe  Code  Lc  GUIDRV_FlexColor.o [3]
_GetDevFunc_SetVSize    0x08087011     0xe  Code  Lc  GUIDRV_FlexColor.o [3]
_GetDevProp             0x08087201    0x58  Code  Lc  GUIDRV_FlexColor.o [3]
_GetDevProp             0x08079f81    0x1e  Code  Lc  LCD_GetEx.o [3]
_GetDevProp             0x08092fe5    0x18  Code  Lc  GUIDEV_16.o [3]
_GetDevProp             0x080942e5     0xa  Code  Lc  GUIDEV_32.o [3]
_GetDialogItem          0x08076ba9    0x48  Code  Lc  WM_Lib.o [3]
_GetEarlyOut            0x08073263    0xa2  Code  Lc  GUI_BMP.o [3]
_GetIndexMask_0         0x08097b97    0x4a  Code  Lc  GUICC_0.o [3]
_GetIndexMask_565       0x08096e39     0x6  Code  Lc  GUICC_565.o [3]
_GetIndexMask_8888      0x08097fa3     0x6  Code  Lc  GUICC_8888.o [3]
_GetMaxValue            0x08079f9f    0x1e  Code  Lc  LCD_GetEx.o [3]
_GetMinIndex            0x0807b34d    0x18  Code  Lc  GUI_Alloc.o [3]
_GetNextChild           0x08089185    0x22  Code  Lc  WM_SetFocusOnNextChild.o [3]
_GetPixelIndex          0x08096bbf    0x28  Code  Lc  LCD_RLE16.o [3]
_GetPixelIndex          0x08086f2d     0x8  Code  Lc  GUIDRV_FlexColor.o [3]
_GetPixelIndex          0x08092f5f     0xe  Code  Lc  GUIDEV_16.o [3]
_GetPixelIndex          0x0809426b     0xe  Code  Lc  GUIDEV_32.o [3]
_GetPrevChild           0x08089125    0x1a  Code  Lc  WM_SetFocusOnPrevChild.o [3]
_GetRect                0x08087265    0x16  Code  Lc  GUIDRV_FlexColor.o [3]
_GetRect                0x08092f6d    0x3a  Code  Lc  GUIDEV_16.o [3]
_GetRect                0x08094279    0x3a  Code  Lc  GUIDEV_32.o [3]
_GetTaskNo              0x080786b5    0x2e  Code  Lc  GUI_Task.o [3]
_GetTwinArcPara         0x08096741    0x40  Code  Lc  GUI__DrawTwinArc.o [3]
_GetXSize               0x08088e61    0x10  Code  Lc  GUI_DRAW_BITMAP.o [3]
_GetYSize               0x08088e71    0x10  Code  Lc  GUI_DRAW_BITMAP.o [3]
_HL_APIList             0x080717a0     0x8  Data  Lc  GUI_Core.o [3]
_HandleIncomingPacket   0x0808a005    0x74  Code  Lc  SEGGER_SYSVIEW.o [1]
_InBufferCnt            0x200162a8     0x1  Data  Lc  OS_Com.o [6]
_InCheckSum             0x200162ac     0x1  Data  Lc  OS_Com.o [6]
_InInt                  0x200162ad     0x1  Data  Lc  OS_Com.o [6]
_InRdOff                0x200162a9     0x1  Data  Lc  OS_Com.o [6]
_InStage                0x200162a4     0x1  Data  Lc  OS_Com.o [6]
_IncPointer             0x08086381    0x18  Code  Lc  GUI_OnKey.o [3]
_IncReadPointer         0x08086399     0x4  Code  Lc  GUI_OnKey.o [3]
_Index2ColorBitfields   0x080736ad    0x74  Code  Lc  GUI_BMP.o [3]
_Index2ColorBulk        0x08096e6f    0x40  Code  Lc  GUICC_565.o [3]
_Index2ColorBulk        0x08097fb9    0x10  Code  Lc  GUICC_8888.o [3]
_Index2Color_0          0x08097b79    0x1e  Code  Lc  GUICC_0.o [3]
_Init                   0x08088701    0x46  Code  Lc  JLINKMEM_Process.o [1]
_InitOnce               0x0807b553    0x7a  Code  Lc  GUI_Alloc.o [3]
_Invalidate1Abs         0x0807722f    0x94  Code  Lc  WM.o [3]
_IsInited               0x20016cb4     0x4  Data  Lc  JLINKMEM_Process.o [1]
_IsInited               0x20016541     0x1  Data  Lc  WM.o [3]
_IsInitialized          0x20016e64     0x4  Data  Lc  GUI_Core.o [3]
_IsInitialized          0x20016e10     0x4  Data  Lc  GUI__Alpha.o [3]
_IsInitialized          0x20016e78     0x4  Data  Lc  GUI_Timer.o [3]
_JLINKMEM_GetNextChar   0x0807e42f     0x4  Code  Lc  RTOSInit_STM32F4x_CMSIS.o [1]
_JLINKMEM_OnRx          0x0807e427     0x4  Code  Lc  RTOSInit_STM32F4x_CMSIS.o [1]
_JLINKMEM_OnTx          0x0807e42b     0x4  Code  Lc  RTOSInit_STM32F4x_CMSIS.o [1]
_Key                    0x20002130     0x4  Data  Lc  GUI_OnKey.o [3]
_LdtobFull              0x08079715   0x3fe  Code  Lc  xprintffull.o [4]
_LitobFull              0x080795bd   0x112  Code  Lc  xprintffull.o [4]
_LocaleC_isspace        0x08086765    0x14  Code  Gb  xlocale_c.o [4]
_LocaleC_isupper        0x08086759     0x2  Code  Gb  xlocale_c.o [4]
_LocaleC_tolower        0x08086779     0xc  Code  Gb  xlocale_c.o [4]
_Locale_lconv           0x20001b1c    0x38  Data  Lc  xlocale_c.o [4]
_LockTxBuf              0x08088747    0x1c  Code  Lc  JLINKMEM_Process.o [1]
_Log2PhysX_X0Y0S0       0x08086ee1     0x4  Code  Lc  GUIDRV_FlexColor.o [3]
_Log2PhysX_X0Y0S1       0x08086ef5     0x4  Code  Lc  GUIDRV_FlexColor.o [3]
_Log2PhysX_X0Y1S0       0x08086ee7     0x4  Code  Lc  GUIDRV_FlexColor.o [3]
_Log2PhysX_X0Y1S1       0x08086efb     0x4  Code  Lc  GUIDRV_FlexColor.o [3]
_Log2PhysX_X1Y0S0       0x08086ee5     0x2  Code  Lc  GUIDRV_FlexColor.o [3]
_Log2PhysX_X1Y0S1       0x08086ef9     0x2  Code  Lc  GUIDRV_FlexColor.o [3]
_Log2PhysX_X1Y1S0       0x08086eeb     0x2  Code  Lc  GUIDRV_FlexColor.o [3]
_Log2PhysX_X1Y1S1       0x08086eff     0x2  Code  Lc  GUIDRV_FlexColor.o [3]
_Log2PhysY_X0Y0S0       0x08086f09     0x4  Code  Lc  GUIDRV_FlexColor.o [3]
_Log2PhysY_X0Y0S1       0x08086f15     0x4  Code  Lc  GUIDRV_FlexColor.o [3]
_Log2PhysY_X0Y1S0       0x08086f11     0x2  Code  Lc  GUIDRV_FlexColor.o [3]
_Log2PhysY_X0Y1S1       0x08086f1d     0x2  Code  Lc  GUIDRV_FlexColor.o [3]
_Log2PhysY_X1Y0S0       0x08086f0d     0x4  Code  Lc  GUIDRV_FlexColor.o [3]
_Log2PhysY_X1Y0S1       0x08086f19     0x4  Code  Lc  GUIDRV_FlexColor.o [3]
_Log2PhysY_X1Y1S0       0x08086f13     0x2  Code  Lc  GUIDRV_FlexColor.o [3]
_Log2PhysY_X1Y1S1       0x08086f1f     0x2  Code  Lc  GUIDRV_FlexColor.o [3]
_Log2VisBuffered        0x0807a6ed     0x2  Code  Lc  GUI_CharLine.o [3]
_ManageBitfields        0x0807364b    0x62  Code  Lc  GUI_BMP.o [3]
_ManageBitfields::Info  0x20016d20    0x24  Data  Lc  GUI_BMP.o [3]
_MaxTask                0x20001e24     0x4  Data  Lc  GUI_Task.o [3]
_Min                    0x08086221     0xa  Code  Lc  GUIDEV_Banding.o [3]
_MoveDescendents        0x080893e9    0x62  Code  Lc  WM_Move.o [3]
_NextDrawWin            0x20016590     0x4  Data  Lc  WM.o [3]
_NextPixel_API          0x20002138    0x10  Data  Lc  GUI_BMP.o [3]
_NextPixel_End          0x08072f6d    0x20  Code  Lc  GUI_BMP.o [3]
_NextPixel_FlushBuffer  0x08072dc9    0x52  Code  Lc  GUI_BMP.o [3]
_NextPixel_NextLine     0x08072f4f    0x1e  Code  Lc  GUI_BMP.o [3]
_NextPixel_SetPixel     0x08072e97    0xb8  Code  Lc  GUI_BMP.o [3]
_NextPixel_Start        0x08072e1b    0x7c  Code  Lc  GUI_BMP.o [3]
_NumColors              0x2000208c     0x4  Data  Lc  LCD_Color.o [3]
_NumModules             0x2001701a     0x1  Data  Lc  SEGGER_SYSVIEW.o [1]
_OS_COM_pac             0x200162c0     0x4  Data  Lc  OS_Com.o [6]
_OS_DoRR                0x0807d979    0x9e  Code  Lc  OS_Kern.o [6]
_OS_GetHWTimerCycles    0x0807e2b7     0x6  Code  Lc  RTOSInit_STM32F4x_CMSIS.o [1]
_OS_GetHWTimer_IntPending
                        0x0807e2bd     0xa  Code  Lc  RTOSInit_STM32F4x_CMSIS.o [1]
_OS_ProfilingExTime     0x20016f2c     0x4  Data  Lc  OS_Kern.o [6]
_OS_RSema_OnTerminate   0x08087529    0x2c  Code  Lc  OS_ResourceSemaphore.o [6]
_OS_STAT_SampleDelta    0x20016f30     0x4  Data  Lc  OS_Kern.o [6]
_OS_STAT_SampleTime     0x20016f34     0x4  Data  Lc  OS_Kern.o [6]
_OS_StringLen           0x200162a6     0x1  Data  Lc  OS_Com.o [6]
_OS_TxActive            0x200162a7     0x1  Data  Lc  OS_Com.o [6]
_OS_pTerminateHookRoot  0x20016f50     0x4  Data  Lc  OS_Task.o [6]
_OnButtonPressed        0x080804d5    0x26  Code  Lc  BUTTON.o [3]
_OnButtonReleased       0x080804fb    0x34  Code  Lc  BUTTON.o [3]
_OnExit                 0x080715ad    0x2c  Code  Lc  GUI_Core.o [3]
_OnExit                 0x08078239    0x56  Code  Lc  WM.o [3]
_OnExit                 0x080786e3    0x10  Code  Lc  GUI_Task.o [3]
_OnExit                 0x08086649    0x12  Code  Lc  LCD_Color.o [3]
_OnExit                 0x08095cd5    0x26  Code  Lc  GUI__Alpha.o [3]
_OnTouchDefault         0x0808052f    0x2a  Code  Lc  BUTTON.o [3]
_OnTx                   0x08087d35   0x18a  Code  Lc  OS_Com.o [6]
_OutBufferCnt           0x200162ae     0x2  Data  Lc  OS_Com.o [6]
_OutStage               0x200162a5     0x1  Data  Lc  OS_Com.o [6]
_Paint                  0x08097c91    0x72  Code  Lc  BUTTON_Skin.o [3]
_Paint1                 0x08077d7d    0x1e  Code  Lc  WM.o [3]
_Paint1Trans            0x08077d9b    0x7c  Code  Lc  WM.o [3]
_PaintTransChildren     0x08077e29    0x90  Code  Lc  WM.o [3]
_PrintfFull             0x08078ef1   0x1b8  Code  Gb  xprintffull.o [4]
_PropsDisabled          0x20001ddc    0x20  Data  Lc  BUTTON_SkinFlex.o [3]
_PropsEnabled           0x20001dbc    0x20  Data  Lc  BUTTON_SkinFlex.o [3]
_PropsFocused           0x20001d9c    0x20  Data  Lc  BUTTON_SkinFlex.o [3]
_PropsPressed           0x20001d7c    0x20  Data  Lc  BUTTON_SkinFlex.o [3]
_Prout                  0x0809813d    0x16  Code  Gb  xprout.o [4]
_PushFreeBlock          0x0807b5cd    0x20  Code  Lc  GUI_Alloc.o [3]
_PutcharsFull           0x08079d8f    0x2e  Code  Lc  xprintffull.o [4]
_PutfldFull             0x08079139   0x2d0  Code  Lc  xprintffull.o [4]
_PutstrFull             0x080794ff    0xbe  Code  Lc  xprintffull.o [4]
_PuttxtFull             0x08079409    0xf6  Code  Lc  xprintffull.o [4]
_ReadData               0x0809539d     0x6  Code  Lc  GUIDRV_FlexColor_16bpp_C0B16.o [3]
_ReadPixelCust_16bpp    0x080870a1     0xc  Code  Lc  GUIDRV_FlexColor.o [3]
_ReadPixelCust_18bpp    0x080870ad     0xc  Code  Lc  GUIDRV_FlexColor.o [3]
_ReadPixel_16bpp_B16_I  0x08095b83    0x24  Code  Lc  GUIDRV_FlexColor_Func66709.o [3]
_ReadPixel_16bpp_B8     0x08095aff    0x28  Code  Lc  GUIDRV_FlexColor_Func66709.o [3]
_ReadRectCust_16bpp     0x080870b9    0x18  Code  Lc  GUIDRV_FlexColor.o [3]
_ReadRectCust_18bpp     0x080870d1    0x18  Code  Lc  GUIDRV_FlexColor.o [3]
_ReadRect_16bpp_B16_I   0x08095ba7    0x46  Code  Lc  GUIDRV_FlexColor_Func66709.o [3]
_ReadRect_16bpp_B8      0x08095b27    0x42  Code  Lc  GUIDRV_FlexColor_Func66709.o [3]
_RecordEndCallU32       0x08097c89     0x4  Code  Lc  SEGGER_SYSVIEW_embOS.o [1]
_RecordEnterTimer       0x08097c81     0x4  Code  Lc  SEGGER_SYSVIEW_embOS.o [1]
_RecordExitTimer        0x08097c85     0x4  Code  Lc  SEGGER_SYSVIEW_embOS.o [1]
_RemLen                 0x200162ab     0x1  Data  Lc  OS_Com.o [6]
_RemoveFreeBlock        0x0807b375    0x32  Code  Lc  GUI_Alloc.o [3]
_RemoveHoles            0x0807b437    0x92  Code  Lc  GUI_Alloc.o [3]
_SEGGER_RTT             0x20015598    0xa8  Data  Gb  SEGGER_RTT.o [1]
_SProut                 0x080726e7     0xa  Code  Gb  xsprout.o [4]
_SYSVIEW_Globals        0x20015080    0x28  Data  Lc  SEGGER_SYSVIEW.o [1]
_SendPacket             0x0808a0db    0xb8  Code  Lc  SEGGER_SYSVIEW.o [1]
_SetBkColor             0x08078819    0x1c  Code  Lc  LCD.o [3]
_SetClipRectUserIntersect
                        0x080771c7    0x44  Code  Lc  WM.o [3]
_SetColor               0x08078835    0x1c  Code  Lc  LCD.o [3]
_SetColorAPI            0x080981c8     0xc  Data  Lc  LCD.o [3]
_SetDevFunc             0x08087117    0x74  Code  Lc  GUIDRV_FlexColor.o [3]
_SetDrawMode            0x08078851    0x24  Code  Lc  LCD.o [3]
_SetInterface           0x08095c3d    0x1e  Code  Lc  GUIDRV_FlexColor_Func66709.o [3]
_SetLineColor           0x0807a2ad    0x78  Code  Lc  GUI_DrawLine.o [3]
_SetOrg                 0x08086fa7    0x20  Code  Lc  GUIDRV_FlexColor.o [3]
_SetOrg                 0x08092fd9     0xc  Code  Lc  GUIDEV_16.o [3]
_SetOrg                 0x080942ef     0x8  Code  Lc  GUIDEV_32.o [3]
_SetOrientation         0x08095ab5    0x34  Code  Lc  GUIDRV_FlexColor_Func66709.o [3]
_SetPhysRAMAddr         0x080959bd    0x52  Code  Lc  GUIDRV_FlexColor_Func66709.o [3]
_SetPixelIndex          0x08086f21     0xc  Code  Lc  GUIDRV_FlexColor.o [3]
_SetPixelIndex          0x08092ed7    0x2e  Code  Lc  GUIDEV_16.o [3]
_SetPixelIndex          0x08094207    0x14  Code  Lc  GUIDEV_32.o [3]
_SetRect                0x08095a2b    0x70  Code  Lc  GUIDRV_FlexColor_Func66709.o [3]
_SetReg_B16             0x08095c1f     0xa  Code  Lc  GUIDRV_FlexColor_Func66709.o [3]
_SetReg_B8              0x08095c05    0x1a  Code  Lc  GUIDRV_FlexColor_Func66709.o [3]
_ShrinkId               0x08097c7d     0x4  Code  Lc  SEGGER_SYSVIEW_embOS.o [1]
_StartSend              0x08087ebf    0x44  Code  Lc  OS_Com.o [6]
_StoreOutString         0x08087f03    0x6c  Code  Lc  OS_Com.o [6]
_SwapInt                0x0807a1b9     0xa  Code  Lc  GUI_DrawLine.o [3]
_SysTimer_Settings      0x20016dc4    0x20  Data  Lc  OS_Timing.o [6]
_TaskIDLock             0x20001e20     0x4  Data  Lc  GUI_Task.o [3]
_TimeSlice              0x200022b8     0x4  Data  Lc  GUI_Time.o [3]
_TrySendOverflowPacket  0x0808a083    0x42  Code  Lc  SEGGER_SYSVIEW.o [1]
_TxBufLocked            0x20016cc8     0x4  Data  Lc  JLINKMEM_Process.o [1]
_TxCnt                  0x200162b0     0x2  Data  Lc  OS_Com.o [6]
_TxIsPending            0x20016cb0     0x4  Data  Lc  JLINKMEM_Process.o [1]
_TxPendingData          0x20016c9c     0x1  Data  Lc  JLINKMEM_Process.o [1]
_TxTimeout              0x20016cc0     0x4  Data  Lc  JLINKMEM_Process.o [1]
_TxTimeoutTimer         0x20016cc4     0x4  Data  Lc  JLINKMEM_Process.o [1]
_Unlink                 0x08089d51    0x42  Code  Lc  GUI_Timer.o [3]
_Unuse                  0x08087555    0xd2  Code  Lc  OS_ResourceSemaphore.o [6]
_UpBuffer               0x200150ac   0x400  Data  Lc  SEGGER_SYSVIEW.o [1]
_VXSizeMax              0x20016e0c     0x4  Data  Lc  GUI__Alpha.o [3]
_WriteData              0x080953a3     0xa  Code  Lc  GUIDRV_FlexColor_16bpp_C0B16.o [3]
_WritePara_B16          0x08095c33     0xa  Code  Lc  GUIDRV_FlexColor_Func66709.o [3]
_WritePara_B8           0x08095c29     0xa  Code  Lc  GUIDRV_FlexColor_Func66709.o [3]
_WriteTagData           0x0807b365    0x10  Code  Lc  GUI_Alloc.o [3]
_WriteToActiveAlpha     0x080970e7   0x154  Code  Lc  GUIDEV_WriteToActiveAlpha.o [3]
_WriteToActiveOpaque_8  0x080897ad   0x276  Code  Lc  GUIDEV_WriteToActiveOpaque.o [3]
_WriteToActiveOpaque_HT
                        0x08089a8f   0x222  Code  Lc  GUIDEV_WriteToActiveOpaque.o [3]
_XY2PTR                 0x08092767    0x38  Code  Lc  GUIDEV_16.o [3]
_XY2PTR                 0x08093adb    0x3a  Code  Lc  GUIDEV_32.o [3]
_XorPixel               0x08086f35    0x26  Code  Lc  GUIDRV_FlexColor.o [3]
_XorPixel               0x08092f05    0x3e  Code  Lc  GUIDEV_16.o [3]
_XorPixel               0x08094223    0x1a  Code  Lc  GUIDEV_32.o [3]
__aeabi_cdcmple         0x08071561          Code  Gb  DblCmpLe.o [5]
__aeabi_cdrcmple        0x08086b5d          Code  Gb  DblCmpGe.o [5]
__aeabi_d2f             0x080714f9          Code  Gb  DblToFlt.o [5]
__aeabi_d2iz            0x08086cc9          Code  Gb  DblToS32.o [5]
__aeabi_d2uiz           0x08086e0d          Code  Gb  DblToU32.o [5]
__aeabi_dadd            0x08089271          Code  Gb  DblAdd.o [5]
__aeabi_ddiv            0x080726f1          Code  Gb  DblDiv.o [5]
__aeabi_dmul            0x08072545          Code  Gb  DblMul.o [5]
__aeabi_dsub            0x08086d29          Code  Gb  DblSub.o [5]
__aeabi_f2d             0x080714b1          Code  Gb  FltToDbl.o [5]
__aeabi_i2d             0x08086d05          Code  Gb  S32ToDbl.o [5]
__aeabi_ldiv0           0x08089fd1          Code  Gb  I64DivZer.o [7]
__aeabi_memclr          0x0807521d          Code  Gb  ABImemclr.o [7]
__aeabi_memclr4         0x0807e779          Code  Gb  ABImemclr4.o [7]
__aeabi_memcpy          0x08078de1          Code  Gb  ABImemcpy.o [7]
__aeabi_memcpy4         0x08078e01          Code  Gb  ABImemcpy.o [7]
__aeabi_memcpy8         0x08078e01          Code  Gb  ABImemcpy.o [7]
__aeabi_memmove         0x080884b1          Code  Gb  ABImemmove.o [7]
__aeabi_memmove4        0x080884b1          Code  Gb  ABImemmove.o [7]
__aeabi_memmove8        0x080884b1          Code  Gb  ABImemmove.o [7]
__aeabi_memset          0x080751b5          Code  Gb  ABImemset.o [7]
__aeabi_ui2d            0x08086e35          Code  Gb  U32ToDbl.o [5]
__aeabi_uldivmod        0x080868bd          Code  Gb  I64DivMod.o [7]
__cmain                 0x08098089          Code  Gb  cmain.o [7]
__exit                  0x0808ab5d    0x14  Code  Gb  exit.o [8]
__iar_Fail_s            0x08086815    0x1e  Code  Gb  xfail_s.o [4]
__iar_Mbcurmax          0x080868b1     0xa  Code  Gb  xmbcurmax.o [4]
__iar_Memchr            0x08086859          Code  Gb  memchr.o [7]
__iar_Memset            0x080751b5          Code  Gb  ABImemset.o [7]
__iar_Memset4_word      0x08088bf9          Code  Gb  ABImemset48.o [7]
__iar_Memset8_word      0x08088bf9          Code  Gb  ABImemset48.o [7]
__iar_Memset_word       0x080751bd          Code  Gb  ABImemset.o [7]
__iar_Stdout            0x200019e8    0x48  Data  Gb  xfiles.o [4]
__iar_Stoulx            0x0807f889   0x116  Code  Gb  iar_Stoulx.o [4]
__iar_Strchr            0x080867fd          Code  Gb  strchr.o [7]
__iar_dadd              0x08086d39          Code  Gb  DblSub.o [5]
__iar_data_init3        0x08097fc9    0x28  Code  Gb  data_init.o [7]
__iar_dsub              0x08089281          Code  Gb  DblAdd.o [5]
__iar_dsubStart         0x08089293          Code  Gb  DblAdd.o [5]
__iar_floor64           0x08089219          Code  Gb  floor.o [5]
__iar_frexp             0x08086af9          Code  Gb  frexp.o [5]
__iar_frexpl            0x08086af9          Code  Gb  frexp.o [5]
__iar_globLocale        0x200019a0    0x48  Data  Lc  xlocale_c.o [4]
__iar_global_Locale     0x08086785     0x4  Code  Gb  xlocale_c.o [4]
__iar_init_vfp          0x08098039          Code  Gb  fpinit_M.o [5]
__iar_ldexp64           0x08086b8d          Code  Gb  ldexp.o [5]
__iar_lz77_init3        0x08096f3d   0x176  Code  Gb  lz77_init.o [7]
__iar_program_start     0x080981d5          Code  Gb  cstartup_M.o [7]
__iar_round64           0x08072949          Code  Gb  round.o [5]
__iar_scalbln64         0x08086b8d          Code  Gb  ldexp.o [5]
__iar_scalbn64          0x08086b8d          Code  Gb  ldexp.o [5]
__iar_softfp___iar_frexp64
                        0x08086aed          Code  Gb  frexp.o [5]
__iar_softfp_frexp      0x08086aed          Code  Gb  frexp.o [5]
__iar_softfp_frexpl     0x08086aed          Code  Gb  frexp.o [5]
__iar_systems$$module {Abs}
                        0x00000001          Data  Gb  command line/config [2]
__iar_vfp___iar_floor64
                        0x08089209          Code  Gb  floor.o [5]
__iar_vfp___iar_round64
                        0x08072939          Code  Gb  round.o [5]
__iar_vfp_floor         0x08089209          Code  Gb  floor.o [5]
__iar_vfp_floorl        0x08089209          Code  Gb  floor.o [5]
__iar_vfp_round         0x08072939          Code  Gb  round.o [5]
__iar_vfp_roundl        0x08072939          Code  Gb  round.o [5]
__iar_zero_init3        0x08097f2d    0x40  Code  Gb  zero_init3.o [7]
__low_level_init        0x080980a7     0x4  Code  Gb  low_level_init.o [4]
__vector_table          0x0800c000          Data  Gb  startup_stm32f407xx.o [1]
_aColor                 0x20016ff8     0x4  Data  Lc  WIDGET_Effect_Simple.o [3]
_aFactoryReset_confirm_text
                        0x200021a8     0xc  Data  Gb  GuiData.o [1]
_aGamma                 0x200020b4    0x10  Data  Lc  LCD_AA.o [3]
_aID                    0x08092ffc    0x40  Data  Lc  GUIDEV_16.o [3]
_aPacket                0x200154b4    0xe4  Data  Lc  SEGGER_SYSVIEW.o [1]
_aState                 0x200168a8    0x58  Data  Lc  GUI_OnKey.o [3]
_aStateLast             0x20016a74    0x18  Data  Lc  WM_Touch.o [3]
_aX                     0x20016de4    0x18  Data  Lc  GUI_FillPolygon.o [3]
_abInBuffer             0x200162b4     0x8  Data  Lc  OS_Com.o [6]
_abOutBuffer            0x200161dc    0xc8  Data  Lc  OS_Com.o [6]
_abSync                 0x0808a81c     0xc  Data  Lc  SEGGER_SYSVIEW.o [1]
_acCBSetting_invalid_text
                        0x200021fc     0xc  Data  Gb  GuiData.o [1]
_acDown                 0x08018898   0xa50  Data  Gb  Image.o [1]
_acDownBuffer           0x20015a40    0x10  Data  Lc  SEGGER_RTT.o [1]
_acHardwareVersion      0x20016f14     0xc  Data  Gb  GuiData.o [1]
_acImage                0x20016f38     0x8  Data  Gb  GuiData.o [1]
_acImageStatusConnected
                        0x08016128   0xe90  Data  Gb  Image.o [1]
_acImageStatusDisconnected
                        0x08016fb8   0xe90  Data  Gb  Image.o [1]
_acNotUsed              0x20002154     0xc  Data  Gb  GuiData.o [1]
_acPQS_unit             0x2000222c     0xc  Data  Gb  GuiData.o [1]
_acPhase_Label          0x200020d8    0x10  Data  Gb  GuiData.o [1]
_acUp                   0x08017e48   0xa50  Data  Gb  Image.o [1]
_acUpBuffer             0x20015640   0x400  Data  Lc  SEGGER_RTT.o [1]
_acXyPos                0x0806be4c     0x2  Data  Gb  GuiData.o [1]
_acacbMccbcontrol_confirm_text
                        0x2000219c     0xc  Data  Gb  GuiData.o [1]
_acacbmccb_cbstatus_control_text
                        0x20002190     0xc  Data  Gb  GuiData.o [1]
_acacbmccb_control_normal_ch
                        0x08028bec  0x119c  Data  Lc  Image.o [1]
_acacbmccb_control_selected_ch
                        0x08029d9c  0x11f4  Data  Lc  Image.o [1]
_acacbmccb_iostatus_text
                        0x20001eac    0x18  Data  Gb  GuiData.o [1]
_acalarm_text           0x20002160     0xc  Data  Gb  GuiData.o [1]
_acappdesc_label_text   0x20001278    0xf0  Data  Gb  GuiData.o [1]
_acbat_status           0x20001e94    0x18  Data  Gb  GuiData.o [1]
_acbtn_IOset_normal     0x08019ee0   0xb9c  Data  Lc  Image.o [1]
_acbtn_IOset_normal_ch  0x0802afa4   0xd38  Data  Lc  Image.o [1]
_acbtn_IOset_selected   0x080192e8   0xbe4  Data  Lc  Image.o [1]
_acbtn_IOset_selected_ch
                        0x0802bcf0   0xda8  Data  Lc  Image.o [1]
_acbtn_IOstatus_normal  0x0801b954   0xe1c  Data  Lc  Image.o [1]
_acbtn_IOstatus_normal_ch
                        0x080213d8   0xd6c  Data  Lc  Image.o [1]
_acbtn_IOstatus_selected
                        0x0801aa90   0xeb0  Data  Lc  Image.o [1]
_acbtn_IOstatus_selected_ch
                        0x08022158   0xdfc  Data  Lc  Image.o [1]
_acbtn_events_normal    0x08013c24   0x6e8  Data  Lc  Image.o [1]
_acbtn_events_normal_ch
                        0x080281cc   0x520  Data  Lc  Image.o [1]
_acbtn_events_selected  0x080134cc   0x744  Data  Lc  Image.o [1]
_acbtn_events_selected_ch
                        0x08028700   0x4d8  Data  Lc  Image.o [1]
_acbtn_hwset_normal     0x0800ccbc   0xac8  Data  Lc  Image.o [1]
_acbtn_hwset_normal_ch  0x08020730   0xc94  Data  Lc  Image.o [1]
_acbtn_hwset_selected   0x0800c188   0xb20  Data  Lc  Image.o [1]
_acbtn_hwset_selected_ch
                        0x0801fa08   0xd14  Data  Lc  Image.o [1]
_acbtn_measurement_normal
                        0x0800ea88  0x11bc  Data  Lc  Image.o [1]
_acbtn_measurement_normal_ch
                        0x08022f68   0xbec  Data  Lc  Image.o [1]
_acbtn_measurement_selected
                        0x0800d798  0x12dc  Data  Lc  Image.o [1]
_acbtn_measurement_selected_ch
                        0x08023b68   0xc54  Data  Lc  Image.o [1]
_acbtn_relayset_normal  0x08012734   0xd84  Data  Lc  Image.o [1]
_acbtn_relayset_normal_ch
                        0x08026040  0x10b0  Data  Lc  Image.o [1]
_acbtn_relayset_selected
                        0x080118d0   0xe50  Data  Lc  Image.o [1]
_acbtn_relayset_selected_ch
                        0x08027104  0x10b4  Data  Lc  Image.o [1]
_acbtn_systeminfo_normal
                        0x08010af8   0xdc4  Data  Lc  Image.o [1]
_acbtn_systeminfo_normal_ch
                        0x080247d0   0xbc8  Data  Lc  Image.o [1]
_acbtn_systeminfo_selected
                        0x0800fc58   0xe8c  Data  Lc  Image.o [1]
_acbtn_systeminfo_selected_ch
                        0x080253ac   0xc80  Data  Lc  Image.o [1]
_accb_control_status    0x20001a30    0x3c  Data  Gb  GuiData.o [1]
_accb_status            0x2000191c    0x3c  Data  Gb  GuiData.o [1]
_accontrol_btn_normal   0x0801c784  0x1470  Data  Lc  Image.o [1]
_accontrol_btn_normal_ch
                        0x0802caac   0xc80  Data  Lc  Image.o [1]
_accontrol_btn_selected
                        0x0801dc08  0x1598  Data  Lc  Image.o [1]
_accontrol_btn_selected_ch
                        0x0802d740   0xc64  Data  Lc  Image.o [1]
_accontrol_button_text  0x20001ef4    0x18  Data  Gb  GuiData.o [1]
_accontrol_confirm_text
                        0x20001edc    0x18  Data  Gb  GuiData.o [1]
_accontrol_failed_text  0x20002214     0xc  Data  Gb  GuiData.o [1]
_accontrol_normal       0x08015268   0xeac  Data  Lc  Image.o [1]
_accontrol_selected_    0x08014320   0xf34  Data  Lc  Image.o [1]
_accontrol_succeeded_text
                        0x20002220     0xc  Data  Gb  GuiData.o [1]
_achwset_label_text     0x2000188c    0x48  Data  Gb  GuiData.o [1]
_acicon_succeeded       0x0801f1b4   0x840  Data  Lc  Image.o [1]
_acinfo_label_text      0x2000141c    0x90  Data  Gb  GuiData.o [1]
_acinfo_menu_text       0x20001718    0x6c  Data  Gb  GuiData.o [1]
_acinfo_modebus_version
                        0x200022a8     0x4  Data  Gb  GuiData.o [1]
_acinfo_value_text      0x20001e34    0x18  Data  Gb  GuiData.o [1]
_aclocal_remote         0x20001e64    0x18  Data  Gb  GuiData.o [1]
_acmeasurementDemand_label_text
                        0x20001e7c    0x18  Data  Gb  GuiData.o [1]
_acmeasurementDemand_unit
                        0x20001fe4    0x18  Data  Gb  GuiData.o [1]
_acmeasurementEnergy_label_text
                        0x20002050    0x14  Data  Gb  GuiData.o [1]
_acmeasurementEnergy_unit
                        0x2000203c    0x14  Data  Gb  GuiData.o [1]
_acmeasurementPQ_I_text
                        0x20002238     0xc  Data  Gb  GuiData.o [1]
_acmeasurementPQ_label_text
                        0x20002064    0x14  Data  Gb  GuiData.o [1]
_acmeasurementPQ_unit_text
                        0x20002118    0x10  Data  Gb  GuiData.o [1]
_acmeasurementVI_A_label_text
                        0x200020e8    0x10  Data  Gb  GuiData.o [1]
_acmeasurementVI_LNLL_label_text
                        0x20001bb8    0x30  Data  Gb  GuiData.o [1]
_acmeasurement_menu_text
                        0x20001b88    0x30  Data  Gb  GuiData.o [1]
_acmlink_control_text   0x200020f8    0x10  Data  Gb  GuiData.o [1]
_acmlink_hwset_label_text
                        0x20001cd4    0x24  Data  Gb  GuiData.o [1]
_acmlink_info_label_text
                        0x20001c48    0x30  Data  Gb  GuiData.o [1]
_acmlink_info_title_text
                        0x200021c0     0xc  Data  Gb  GuiData.o [1]
_acmlink_iostatusAPP_value_text
                        0x20001c18    0x30  Data  Gb  GuiData.o [1]
_acmlink_iostatusDO_value
                        0x20001cf8    0x24  Data  Gb  GuiData.o [1]
_acmlink_iostatusDO_value_text
                        0x20002078    0x14  Data  Gb  GuiData.o [1]
_acmlink_iostatus_menu_text
                        0x20001be8    0x30  Data  Gb  GuiData.o [1]
_acmlink_overview_label_text
                        0x200021b4     0xc  Data  Gb  GuiData.o [1]
_acmlink_overview_unit_text
                        0x20002270     0x8  Data  Gb  GuiData.o [1]
_acmlinkiostatusDI_label_text
                        0x20001f0c    0x18  Data  Gb  GuiData.o [1]
_acmlinkiostatusDI_value_text
                        0x200014ac    0x84  Data  Gb  GuiData.o [1]
_acmode_invalid_text    0x20002208     0xc  Data  Gb  GuiData.o [1]
_aconoff_text           0x20001ec4    0x18  Data  Gb  GuiData.o [1]
_acpassword_input_text  0x200022ac     0x4  Data  Gb  GuiData.o [1]
_acpassword_question_text
                        0x200021f0     0xc  Data  Gb  GuiData.o [1]
_acrelayset_label_text  0x20001368    0xb4  Data  Gb  GuiData.o [1]
_acsetup_disp_conn_label_text
                        0x20001a6c    0x3c  Data  Gb  GuiData.o [1]
_acsetup_disp_setting_label_text
                        0x200015b0    0x78  Data  Gb  GuiData.o [1]
_acsetup_disp_setting_value_text
                        0x20001628    0x78  Data  Gb  GuiData.o [1]
_acsetup_disp_setting_value_text_not
                        0x200016a0    0x78  Data  Gb  GuiData.o [1]
_acsetup_gateway_use    0x20001e4c    0x18  Data  Gb  GuiData.o [1]
_acsetup_language       0x2000216c     0xc  Data  Gb  GuiData.o [1]
_acsetup_password_text  0x20001f54    0x18  Data  Gb  GuiData.o [1]
_acsetup_speed          0x200020c8    0x10  Data  Gb  GuiData.o [1]
_acsetup_type           0x20002178     0xc  Data  Gb  GuiData.o [1]
_acsetupinfo_label_text
                        0x200018d4    0x48  Data  Gb  GuiData.o [1]
_apProps                0x08096730    0x10  Data  Lc  BUTTON_SkinFlex.o [3]
_apassword_button_text  0x20001f6c    0x18  Data  Gb  GuiData.o [1]
_atan2                  0x0807a227    0x84  Code  Lc  GUI_DrawLine.o [3]
_call_main              0x08098095          Code  Gb  cmain.o [7]
_cbBackWin              0x08078185    0x4a  Code  Lc  WM.o [3]
_cbDialog               0x08076625    0x3a  Code  Lc  MenuDLG.o [1]
_cbInvalidateOne        0x0808a83d     0x4  Code  Lc  WM_BringToTop.o [3]
_cbPaintMemDev          0x08077f3d    0x44  Code  Lc  WM.o [3]
_cbRecordObjName        0x08097c8d     0x4  Code  Lc  SEGGER_SYSVIEW_embOS.o [1]
_cbRecordU32            0x08097c55     0x4  Code  Lc  SEGGER_SYSVIEW_embOS.o [1]
_cbRecordU32x2          0x08097c59     0x4  Code  Lc  SEGGER_SYSVIEW_embOS.o [1]
_cbRecordU32x3          0x08097c5d     0x4  Code  Lc  SEGGER_SYSVIEW_embOS.o [1]
_cbRecordU32x4          0x08097c61     0xc  Code  Lc  SEGGER_SYSVIEW_embOS.o [1]
_cbRecordU32x5          0x08097c6d    0x10  Code  Lc  SEGGER_SYSVIEW_embOS.o [1]
_cbSendSystemDesc       0x08088b29    0x16  Code  Lc  SEGGER_SYSVIEW_Config_embOS.o [1]
_cbSendTaskInfo         0x08097be1    0x36  Code  Lc  SEGGER_SYSVIEW_embOS.o [1]
_cbSendTaskList         0x08097c17    0x36  Code  Lc  SEGGER_SYSVIEW_embOS.o [1]
_exit                   0x080980b1          Code  Gb  cexit.o [7]
_fpClearLine            0x2000228c     0x4  Data  Lc  GUI_EncExt.o [3]
_gLocale_mblen          0x080867e5     0x4  Code  Gb  xlocale_c.o [4]
_gLocale_mblenInt       0x080867ad    0x34  Code  Gb  xlocale_c.o [4]
_gLocale_wctomb         0x080867e9     0x4  Code  Gb  xlocale_c.o [4]
_gLocale_wctombInt      0x080867e1     0x4  Code  Gb  xlocale_c.o [4]
_hActiveTimer           0x20016e74     0x4  Data  Lc  GUI_Timer.o [3]
_hFirstTimer            0x20016e70     0x4  Data  Lc  GUI_Timer.o [3]
_ichstatus_line_x       0x0806be50     0xc  Data  Gb  GuiData.o [1]
_main                   0x080980a3          Code  Gb  cmain.o [7]
_pContext               0x20016b38     0x4  Data  Lc  LCD_RLE16.o [3]
_pConvert               0x20016e04     0x4  Data  Lc  GUI__Alpha.o [3]
_pCurrent               0x20016e00     0x4  Data  Lc  GUI__Alpha.o [3]
_pData                  0x20016e08     0x4  Data  Lc  GUI__Alpha.o [3]
_pEffectDefault         0x200022d4     0x4  Data  Gb  WIDGET.o [3]
_pFirstExit             0x20001e14     0x4  Data  Lc  GUI_Core.o [3]
_pFirstModule           0x200150a8     0x4  Data  Lc  SEGGER_SYSVIEW.o [1]
_pFuncControlHook       0x20016f08     0x4  Data  Lc  GUI__ManageCache.o [3]
_pFuncRefreshHook       0x20016f04     0x4  Data  Lc  GUI__ManageCache.o [3]
_pPixel                 0x20016b30     0x4  Data  Lc  LCD_RLE16.o [3]
_pReadKey               0x20002128     0x4  Data  Lc  GUI_OnKey.o [3]
_pRxBuf                 0x20016cb8     0x4  Data  Lc  JLINKMEM_Process.o [1]
_pSave                  0x20001e18     0x4  Data  Lc  GUI_Task.o [3]
_pTxBuf                 0x20016cbc     0x4  Data  Lc  JLINKMEM_Process.o [1]
_pWriteKey              0x2000212c     0x4  Data  Lc  GUI_OnKey.o [3]
_pcbMotion              0x20016aac     0x4  Data  Lc  WM_Touch.o [3]
_pcbSetAlpha            0x20016ff4     0x4  Data  Lc  GUIDEV_Banding.o [3]
_pcbToolTip             0x20016ab0     0x4  Data  Lc  WM_Touch.o [3]
_pfAlphaBlending        0x200022a0     0x4  Data  Lc  GUI__Alpha.o [3]
_pfDrawMemdev16bppFunc  0x20016fec     0x4  Data  Lc  GUIDEV_16.o [3]
_pfGetByte              0x20016b34     0x4  Data  Lc  LCD_RLE16.o [3]
_pfGetNextChar          0x20016ca8     0x4  Data  Gb  JLINKMEM_Process.o [1]
_pfHook                 0x20002134     0x4  Data  Lc  GUI_OnKey.o [3]
_pfOnPidStateChange     0x2000229c     0x4  Data  Lc  BUTTON.o [3]
_pfOnRx                 0x20016ca0     0x4  Data  Gb  JLINKMEM_Process.o [1]
_pfOnTouch              0x20002298     0x4  Data  Lc  BUTTON.o [3]
_pfOnTx                 0x20016ca4     0x4  Data  Gb  JLINKMEM_Process.o [1]
_pfPaletteConversionHook
                        0x20002090     0x4  Data  Lc  LCD_Color.o [3]
_pfRXCallBack           0x200162bc     0x4  Data  Lc  OS_Com.o [6]
_pfReadPixel_16bpp_B16  0x20002290     0x4  Data  Lc  GUIDRV_FlexColor_Func66709.o [3]
_pfReadRect_16bpp_B16   0x20002294     0x4  Data  Lc  GUIDRV_FlexColor_Func66709.o [3]
_pfSignalEvent          0x20016fe8     0x4  Data  Lc  GUI_WaitEvent.o [3]
_xSizeDisplay           0x20016f58     0x4  Data  Lc  LCD_GetEx.o [3]
_ySizeDisplay           0x20016f5c     0x4  Data  Lc  LCD_GetEx.o [3]
aID                     0x080942f8    0x40  Data  Lc  GUIDEV_32.o [3]
aSin                    0x0807a64c    0x24  Data  Lc  GUI_DrawLine.o [3]
aTan                    0x0807a670    0x24  Data  Gb  GUI_DrawLine.o [3]
abort                   0x08089fcb     0x6  Code  Gb  abort.o [4]
acFaultMiddleMsg        0x20001110   0x168  Data  Gb  GuiData.o [1]
acFaultPhase            0x20001784    0x6c  Data  Gb  GuiData.o [1]
acFaultSource           0x20001d3c    0x20  Data  Gb  GuiData.o [1]
acFaultUnit             0x20001d5c    0x20  Data  Gb  GuiData.o [1]
acFont13ASCII_0020      0x0809436c    0x10  Data  Lc  F13_ASCII.o [3]
acFont13ASCII_0021      0x0809437c    0x10  Data  Lc  F13_ASCII.o [3]
acFont13ASCII_0022      0x0809438c    0x10  Data  Lc  F13_ASCII.o [3]
acFont13ASCII_0023      0x0809439c    0x10  Data  Lc  F13_ASCII.o [3]
acFont13ASCII_0024      0x080943ac    0x10  Data  Lc  F13_ASCII.o [3]
acFont13ASCII_0025      0x080943bc    0x1c  Data  Lc  F13_ASCII.o [3]
acFont13ASCII_0026      0x080943d8    0x10  Data  Lc  F13_ASCII.o [3]
acFont13ASCII_0027      0x080943e8    0x10  Data  Lc  F13_ASCII.o [3]
acFont13ASCII_0028      0x080943f8    0x10  Data  Lc  F13_ASCII.o [3]
acFont13ASCII_0029      0x08094408    0x10  Data  Lc  F13_ASCII.o [3]
acFont13ASCII_002A      0x08094418    0x10  Data  Lc  F13_ASCII.o [3]
acFont13ASCII_002B      0x08094428    0x10  Data  Lc  F13_ASCII.o [3]
acFont13ASCII_002C      0x08094438    0x10  Data  Lc  F13_ASCII.o [3]
acFont13ASCII_002D      0x08094448    0x10  Data  Lc  F13_ASCII.o [3]
acFont13ASCII_002E      0x08094458    0x10  Data  Lc  F13_ASCII.o [3]
acFont13ASCII_002F      0x08094468    0x10  Data  Lc  F13_ASCII.o [3]
acFont13ASCII_0030      0x08094478    0x10  Data  Lc  F13_ASCII.o [3]
acFont13ASCII_0031      0x08094488    0x10  Data  Lc  F13_ASCII.o [3]
acFont13ASCII_0032      0x08094498    0x10  Data  Lc  F13_ASCII.o [3]
acFont13ASCII_0033      0x080944a8    0x10  Data  Lc  F13_ASCII.o [3]
acFont13ASCII_0034      0x080944b8    0x10  Data  Lc  F13_ASCII.o [3]
acFont13ASCII_0035      0x080944c8    0x10  Data  Lc  F13_ASCII.o [3]
acFont13ASCII_0036      0x080944d8    0x10  Data  Lc  F13_ASCII.o [3]
acFont13ASCII_0037      0x080944e8    0x10  Data  Lc  F13_ASCII.o [3]
acFont13ASCII_0038      0x080944f8    0x10  Data  Lc  F13_ASCII.o [3]
acFont13ASCII_0039      0x08094508    0x10  Data  Lc  F13_ASCII.o [3]
acFont13ASCII_003A      0x08094518    0x10  Data  Lc  F13_ASCII.o [3]
acFont13ASCII_003B      0x08094528    0x10  Data  Lc  F13_ASCII.o [3]
acFont13ASCII_003C      0x08094538    0x10  Data  Lc  F13_ASCII.o [3]
acFont13ASCII_003D      0x08094548    0x10  Data  Lc  F13_ASCII.o [3]
acFont13ASCII_003E      0x08094558    0x10  Data  Lc  F13_ASCII.o [3]
acFont13ASCII_003F      0x08094568    0x10  Data  Lc  F13_ASCII.o [3]
acFont13ASCII_0040      0x08094578    0x1c  Data  Lc  F13_ASCII.o [3]
acFont13ASCII_0041      0x08094594    0x10  Data  Lc  F13_ASCII.o [3]
acFont13ASCII_0042      0x080945a4    0x10  Data  Lc  F13_ASCII.o [3]
acFont13ASCII_0043      0x080945b4    0x10  Data  Lc  F13_ASCII.o [3]
acFont13ASCII_0044      0x080945c4    0x10  Data  Lc  F13_ASCII.o [3]
acFont13ASCII_0045      0x080945d4    0x10  Data  Lc  F13_ASCII.o [3]
acFont13ASCII_0046      0x080945e4    0x10  Data  Lc  F13_ASCII.o [3]
acFont13ASCII_0047      0x080945f4    0x10  Data  Lc  F13_ASCII.o [3]
acFont13ASCII_0048      0x08094604    0x10  Data  Lc  F13_ASCII.o [3]
acFont13ASCII_0049      0x08094614    0x10  Data  Lc  F13_ASCII.o [3]
acFont13ASCII_004A      0x08094624    0x10  Data  Lc  F13_ASCII.o [3]
acFont13ASCII_004B      0x08094634    0x10  Data  Lc  F13_ASCII.o [3]
acFont13ASCII_004C      0x08094644    0x10  Data  Lc  F13_ASCII.o [3]
acFont13ASCII_004D      0x08094654    0x10  Data  Lc  F13_ASCII.o [3]
acFont13ASCII_004E      0x08094664    0x10  Data  Lc  F13_ASCII.o [3]
acFont13ASCII_004F      0x08094674    0x10  Data  Lc  F13_ASCII.o [3]
acFont13ASCII_0050      0x08094684    0x10  Data  Lc  F13_ASCII.o [3]
acFont13ASCII_0051      0x08094694    0x10  Data  Lc  F13_ASCII.o [3]
acFont13ASCII_0052      0x080946a4    0x10  Data  Lc  F13_ASCII.o [3]
acFont13ASCII_0053      0x080946b4    0x10  Data  Lc  F13_ASCII.o [3]
acFont13ASCII_0054      0x080946c4    0x10  Data  Lc  F13_ASCII.o [3]
acFont13ASCII_0055      0x080946d4    0x10  Data  Lc  F13_ASCII.o [3]
acFont13ASCII_0056      0x080946e4    0x10  Data  Lc  F13_ASCII.o [3]
acFont13ASCII_0057      0x080946f4    0x1c  Data  Lc  F13_ASCII.o [3]
acFont13ASCII_0058      0x08094710    0x10  Data  Lc  F13_ASCII.o [3]
acFont13ASCII_0059      0x08094720    0x10  Data  Lc  F13_ASCII.o [3]
acFont13ASCII_005A      0x08094730    0x10  Data  Lc  F13_ASCII.o [3]
acFont13ASCII_005B      0x08094740    0x10  Data  Lc  F13_ASCII.o [3]
acFont13ASCII_005C      0x08094750    0x10  Data  Lc  F13_ASCII.o [3]
acFont13ASCII_005D      0x08094760    0x10  Data  Lc  F13_ASCII.o [3]
acFont13ASCII_005E      0x08094770    0x10  Data  Lc  F13_ASCII.o [3]
acFont13ASCII_005F      0x08094780    0x10  Data  Lc  F13_ASCII.o [3]
acFont13ASCII_0060      0x08094790    0x10  Data  Lc  F13_ASCII.o [3]
acFont13ASCII_0061      0x080947a0    0x10  Data  Lc  F13_ASCII.o [3]
acFont13ASCII_0062      0x080947b0    0x10  Data  Lc  F13_ASCII.o [3]
acFont13ASCII_0063      0x080947c0    0x10  Data  Lc  F13_ASCII.o [3]
acFont13ASCII_0064      0x080947d0    0x10  Data  Lc  F13_ASCII.o [3]
acFont13ASCII_0065      0x080947e0    0x10  Data  Lc  F13_ASCII.o [3]
acFont13ASCII_0066      0x080947f0    0x10  Data  Lc  F13_ASCII.o [3]
acFont13ASCII_0067      0x08094800    0x10  Data  Lc  F13_ASCII.o [3]
acFont13ASCII_0068      0x08094810    0x10  Data  Lc  F13_ASCII.o [3]
acFont13ASCII_0069      0x08094820    0x10  Data  Lc  F13_ASCII.o [3]
acFont13ASCII_006A      0x08094830    0x10  Data  Lc  F13_ASCII.o [3]
acFont13ASCII_006B      0x08094840    0x10  Data  Lc  F13_ASCII.o [3]
acFont13ASCII_006C      0x08094850    0x10  Data  Lc  F13_ASCII.o [3]
acFont13ASCII_006D      0x08094860    0x10  Data  Lc  F13_ASCII.o [3]
acFont13ASCII_006E      0x08094870    0x10  Data  Lc  F13_ASCII.o [3]
acFont13ASCII_006F      0x08094880    0x10  Data  Lc  F13_ASCII.o [3]
acFont13ASCII_0070      0x08094890    0x10  Data  Lc  F13_ASCII.o [3]
acFont13ASCII_0071      0x080948a0    0x10  Data  Lc  F13_ASCII.o [3]
acFont13ASCII_0072      0x080948b0    0x10  Data  Lc  F13_ASCII.o [3]
acFont13ASCII_0073      0x080948c0    0x10  Data  Lc  F13_ASCII.o [3]
acFont13ASCII_0074      0x080948d0    0x10  Data  Lc  F13_ASCII.o [3]
acFont13ASCII_0075      0x080948e0    0x10  Data  Lc  F13_ASCII.o [3]
acFont13ASCII_0076      0x080948f0    0x10  Data  Lc  F13_ASCII.o [3]
acFont13ASCII_0077      0x08094900    0x10  Data  Lc  F13_ASCII.o [3]
acFont13ASCII_0078      0x08094910    0x10  Data  Lc  F13_ASCII.o [3]
acFont13ASCII_0079      0x08094920    0x10  Data  Lc  F13_ASCII.o [3]
acFont13ASCII_007A      0x08094930    0x10  Data  Lc  F13_ASCII.o [3]
acFont13ASCII_007B      0x08094940    0x10  Data  Lc  F13_ASCII.o [3]
acFont13ASCII_007C      0x08094950    0x10  Data  Lc  F13_ASCII.o [3]
acFont13ASCII_007D      0x08094960    0x10  Data  Lc  F13_ASCII.o [3]
acFont13ASCII_007E      0x08094970    0x10  Data  Lc  F13_ASCII.o [3]
acFont13_1_00A0         0x08093070    0x10  Data  Lc  F13_1.o [3]
acFont13_1_00A1         0x08093080    0x10  Data  Lc  F13_1.o [3]
acFont13_1_00A2         0x08093090    0x10  Data  Lc  F13_1.o [3]
acFont13_1_00A3         0x080930a0    0x10  Data  Lc  F13_1.o [3]
acFont13_1_00A4         0x080930b0    0x10  Data  Lc  F13_1.o [3]
acFont13_1_00A5         0x080930c0    0x10  Data  Lc  F13_1.o [3]
acFont13_1_00A6         0x080930d0    0x10  Data  Lc  F13_1.o [3]
acFont13_1_00A7         0x080930e0    0x10  Data  Lc  F13_1.o [3]
acFont13_1_00A8         0x080930f0    0x10  Data  Lc  F13_1.o [3]
acFont13_1_00A9         0x08093100    0x1c  Data  Lc  F13_1.o [3]
acFont13_1_00AA         0x0809311c    0x10  Data  Lc  F13_1.o [3]
acFont13_1_00AB         0x0809312c    0x10  Data  Lc  F13_1.o [3]
acFont13_1_00AC         0x0809313c    0x10  Data  Lc  F13_1.o [3]
acFont13_1_00AD         0x0809314c    0x10  Data  Lc  F13_1.o [3]
acFont13_1_00AE         0x0809315c    0x1c  Data  Lc  F13_1.o [3]
acFont13_1_00AF         0x08093178    0x10  Data  Lc  F13_1.o [3]
acFont13_1_00B0         0x08093188    0x10  Data  Lc  F13_1.o [3]
acFont13_1_00B1         0x08093198    0x10  Data  Lc  F13_1.o [3]
acFont13_1_00B2         0x080931a8    0x10  Data  Lc  F13_1.o [3]
acFont13_1_00B3         0x080931b8    0x10  Data  Lc  F13_1.o [3]
acFont13_1_00B4         0x080931c8    0x10  Data  Lc  F13_1.o [3]
acFont13_1_00B5         0x080931d8    0x10  Data  Lc  F13_1.o [3]
acFont13_1_00B6         0x080931e8    0x10  Data  Lc  F13_1.o [3]
acFont13_1_00B7         0x080931f8    0x10  Data  Lc  F13_1.o [3]
acFont13_1_00B8         0x08093208    0x10  Data  Lc  F13_1.o [3]
acFont13_1_00B9         0x08093218    0x10  Data  Lc  F13_1.o [3]
acFont13_1_00BA         0x08093228    0x10  Data  Lc  F13_1.o [3]
acFont13_1_00BB         0x08093238    0x10  Data  Lc  F13_1.o [3]
acFont13_1_00BC         0x08093248    0x1c  Data  Lc  F13_1.o [3]
acFont13_1_00BD         0x08093264    0x1c  Data  Lc  F13_1.o [3]
acFont13_1_00BE         0x08093280    0x1c  Data  Lc  F13_1.o [3]
acFont13_1_00BF         0x0809329c    0x10  Data  Lc  F13_1.o [3]
acFont13_1_00C0         0x080932ac    0x10  Data  Lc  F13_1.o [3]
acFont13_1_00C1         0x080932bc    0x10  Data  Lc  F13_1.o [3]
acFont13_1_00C2         0x080932cc    0x10  Data  Lc  F13_1.o [3]
acFont13_1_00C3         0x080932dc    0x10  Data  Lc  F13_1.o [3]
acFont13_1_00C4         0x080932ec    0x10  Data  Lc  F13_1.o [3]
acFont13_1_00C5         0x080932fc    0x10  Data  Lc  F13_1.o [3]
acFont13_1_00C6         0x0809330c    0x1c  Data  Lc  F13_1.o [3]
acFont13_1_00C7         0x08093328    0x10  Data  Lc  F13_1.o [3]
acFont13_1_00C8         0x08093338    0x10  Data  Lc  F13_1.o [3]
acFont13_1_00C9         0x08093348    0x10  Data  Lc  F13_1.o [3]
acFont13_1_00CA         0x08093358    0x10  Data  Lc  F13_1.o [3]
acFont13_1_00CB         0x08093368    0x10  Data  Lc  F13_1.o [3]
acFont13_1_00CC         0x08093378    0x10  Data  Lc  F13_1.o [3]
acFont13_1_00CD         0x08093388    0x10  Data  Lc  F13_1.o [3]
acFont13_1_00CE         0x08093398    0x10  Data  Lc  F13_1.o [3]
acFont13_1_00CF         0x080933a8    0x10  Data  Lc  F13_1.o [3]
acFont13_1_00D0         0x080933b8    0x10  Data  Lc  F13_1.o [3]
acFont13_1_00D1         0x080933c8    0x10  Data  Lc  F13_1.o [3]
acFont13_1_00D2         0x080933d8    0x10  Data  Lc  F13_1.o [3]
acFont13_1_00D3         0x080933e8    0x10  Data  Lc  F13_1.o [3]
acFont13_1_00D4         0x080933f8    0x10  Data  Lc  F13_1.o [3]
acFont13_1_00D5         0x08093408    0x10  Data  Lc  F13_1.o [3]
acFont13_1_00D6         0x08093418    0x10  Data  Lc  F13_1.o [3]
acFont13_1_00D7         0x08093428    0x10  Data  Lc  F13_1.o [3]
acFont13_1_00D8         0x08093438    0x10  Data  Lc  F13_1.o [3]
acFont13_1_00D9         0x08093448    0x10  Data  Lc  F13_1.o [3]
acFont13_1_00DA         0x08093458    0x10  Data  Lc  F13_1.o [3]
acFont13_1_00DB         0x08093468    0x10  Data  Lc  F13_1.o [3]
acFont13_1_00DC         0x08093478    0x10  Data  Lc  F13_1.o [3]
acFont13_1_00DD         0x08093488    0x10  Data  Lc  F13_1.o [3]
acFont13_1_00DE         0x08093498    0x10  Data  Lc  F13_1.o [3]
acFont13_1_00DF         0x080934a8    0x10  Data  Lc  F13_1.o [3]
acFont13_1_00E0         0x080934b8    0x10  Data  Lc  F13_1.o [3]
acFont13_1_00E1         0x080934c8    0x10  Data  Lc  F13_1.o [3]
acFont13_1_00E2         0x080934d8    0x10  Data  Lc  F13_1.o [3]
acFont13_1_00E3         0x080934e8    0x10  Data  Lc  F13_1.o [3]
acFont13_1_00E4         0x080934f8    0x10  Data  Lc  F13_1.o [3]
acFont13_1_00E5         0x08093508    0x10  Data  Lc  F13_1.o [3]
acFont13_1_00E6         0x08093518    0x1c  Data  Lc  F13_1.o [3]
acFont13_1_00E7         0x08093534    0x10  Data  Lc  F13_1.o [3]
acFont13_1_00E8         0x08093544    0x10  Data  Lc  F13_1.o [3]
acFont13_1_00E9         0x08093554    0x10  Data  Lc  F13_1.o [3]
acFont13_1_00EA         0x08093564    0x10  Data  Lc  F13_1.o [3]
acFont13_1_00EB         0x08093574    0x10  Data  Lc  F13_1.o [3]
acFont13_1_00EC         0x08093584    0x10  Data  Lc  F13_1.o [3]
acFont13_1_00ED         0x08093594    0x10  Data  Lc  F13_1.o [3]
acFont13_1_00EE         0x080935a4    0x10  Data  Lc  F13_1.o [3]
acFont13_1_00EF         0x080935b4    0x10  Data  Lc  F13_1.o [3]
acFont13_1_00F0         0x080935c4    0x10  Data  Lc  F13_1.o [3]
acFont13_1_00F1         0x080935d4    0x10  Data  Lc  F13_1.o [3]
acFont13_1_00F2         0x080935e4    0x10  Data  Lc  F13_1.o [3]
acFont13_1_00F3         0x080935f4    0x10  Data  Lc  F13_1.o [3]
acFont13_1_00F4         0x08093604    0x10  Data  Lc  F13_1.o [3]
acFont13_1_00F5         0x08093614    0x10  Data  Lc  F13_1.o [3]
acFont13_1_00F6         0x08093624    0x10  Data  Lc  F13_1.o [3]
acFont13_1_00F7         0x08093634    0x10  Data  Lc  F13_1.o [3]
acFont13_1_00F8         0x08093644    0x10  Data  Lc  F13_1.o [3]
acFont13_1_00F9         0x08093654    0x10  Data  Lc  F13_1.o [3]
acFont13_1_00FA         0x08093664    0x10  Data  Lc  F13_1.o [3]
acFont13_1_00FB         0x08093674    0x10  Data  Lc  F13_1.o [3]
acFont13_1_00FC         0x08093684    0x10  Data  Lc  F13_1.o [3]
acFont13_1_00FD         0x08093694    0x10  Data  Lc  F13_1.o [3]
acFont13_1_00FE         0x080936a4    0x10  Data  Lc  F13_1.o [3]
acFont13_1_00FF         0x080936b4    0x10  Data  Lc  F13_1.o [3]
acFont16ASCII_100       0x08091754    0x10  Data  Lc  F16_ASCII.o [3]
acFont16ASCII_101       0x08091764    0x10  Data  Lc  F16_ASCII.o [3]
acFont16ASCII_102       0x08091774    0x10  Data  Lc  F16_ASCII.o [3]
acFont16ASCII_103       0x08091784    0x10  Data  Lc  F16_ASCII.o [3]
acFont16ASCII_104       0x08091794    0x10  Data  Lc  F16_ASCII.o [3]
acFont16ASCII_105       0x080917a4    0x10  Data  Lc  F16_ASCII.o [3]
acFont16ASCII_106       0x080917b4    0x10  Data  Lc  F16_ASCII.o [3]
acFont16ASCII_107       0x080917c4    0x10  Data  Lc  F16_ASCII.o [3]
acFont16ASCII_108       0x080917d4    0x10  Data  Lc  F16_ASCII.o [3]
acFont16ASCII_109       0x080917e4    0x20  Data  Lc  F16_ASCII.o [3]
acFont16ASCII_110       0x08091804    0x10  Data  Lc  F16_ASCII.o [3]
acFont16ASCII_111       0x08091814    0x10  Data  Lc  F16_ASCII.o [3]
acFont16ASCII_112       0x08091824    0x10  Data  Lc  F16_ASCII.o [3]
acFont16ASCII_113       0x08091834    0x10  Data  Lc  F16_ASCII.o [3]
acFont16ASCII_114       0x08091844    0x10  Data  Lc  F16_ASCII.o [3]
acFont16ASCII_115       0x08091854    0x10  Data  Lc  F16_ASCII.o [3]
acFont16ASCII_116       0x08091864    0x10  Data  Lc  F16_ASCII.o [3]
acFont16ASCII_117       0x08091874    0x10  Data  Lc  F16_ASCII.o [3]
acFont16ASCII_118       0x08091884    0x10  Data  Lc  F16_ASCII.o [3]
acFont16ASCII_119       0x08091894    0x20  Data  Lc  F16_ASCII.o [3]
acFont16ASCII_120       0x080918b4    0x10  Data  Lc  F16_ASCII.o [3]
acFont16ASCII_121       0x080918c4    0x10  Data  Lc  F16_ASCII.o [3]
acFont16ASCII_122       0x080918d4    0x10  Data  Lc  F16_ASCII.o [3]
acFont16ASCII_123       0x080918e4    0x10  Data  Lc  F16_ASCII.o [3]
acFont16ASCII_124       0x080918f4    0x10  Data  Lc  F16_ASCII.o [3]
acFont16ASCII_125       0x08091904    0x10  Data  Lc  F16_ASCII.o [3]
acFont16ASCII_126       0x08091914    0x10  Data  Lc  F16_ASCII.o [3]
acFont16ASCII_32        0x080911b4    0x10  Data  Lc  F16_ASCII.o [3]
acFont16ASCII_33        0x080911c4    0x10  Data  Lc  F16_ASCII.o [3]
acFont16ASCII_34        0x080911d4    0x10  Data  Lc  F16_ASCII.o [3]
acFont16ASCII_35        0x080911e4    0x10  Data  Lc  F16_ASCII.o [3]
acFont16ASCII_36        0x080911f4    0x10  Data  Lc  F16_ASCII.o [3]
acFont16ASCII_37        0x08091204    0x20  Data  Lc  F16_ASCII.o [3]
acFont16ASCII_38        0x08091224    0x20  Data  Lc  F16_ASCII.o [3]
acFont16ASCII_39        0x08091244    0x10  Data  Lc  F16_ASCII.o [3]
acFont16ASCII_40        0x08091254    0x10  Data  Lc  F16_ASCII.o [3]
acFont16ASCII_41        0x08091264    0x10  Data  Lc  F16_ASCII.o [3]
acFont16ASCII_42        0x08091274    0x10  Data  Lc  F16_ASCII.o [3]
acFont16ASCII_43        0x08091284    0x10  Data  Lc  F16_ASCII.o [3]
acFont16ASCII_44        0x08091294    0x10  Data  Lc  F16_ASCII.o [3]
acFont16ASCII_45        0x080912a4    0x10  Data  Lc  F16_ASCII.o [3]
acFont16ASCII_46        0x080912b4    0x10  Data  Lc  F16_ASCII.o [3]
acFont16ASCII_47        0x080912c4    0x10  Data  Lc  F16_ASCII.o [3]
acFont16ASCII_48        0x080912d4    0x10  Data  Lc  F16_ASCII.o [3]
acFont16ASCII_49        0x080912e4    0x10  Data  Lc  F16_ASCII.o [3]
acFont16ASCII_50        0x080912f4    0x10  Data  Lc  F16_ASCII.o [3]
acFont16ASCII_51        0x08091304    0x10  Data  Lc  F16_ASCII.o [3]
acFont16ASCII_52        0x08091314    0x10  Data  Lc  F16_ASCII.o [3]
acFont16ASCII_53        0x08091324    0x10  Data  Lc  F16_ASCII.o [3]
acFont16ASCII_54        0x08091334    0x10  Data  Lc  F16_ASCII.o [3]
acFont16ASCII_55        0x08091344    0x10  Data  Lc  F16_ASCII.o [3]
acFont16ASCII_56        0x08091354    0x10  Data  Lc  F16_ASCII.o [3]
acFont16ASCII_57        0x08091364    0x10  Data  Lc  F16_ASCII.o [3]
acFont16ASCII_58        0x08091374    0x10  Data  Lc  F16_ASCII.o [3]
acFont16ASCII_59        0x08091384    0x10  Data  Lc  F16_ASCII.o [3]
acFont16ASCII_60        0x08091394    0x10  Data  Lc  F16_ASCII.o [3]
acFont16ASCII_61        0x080913a4    0x10  Data  Lc  F16_ASCII.o [3]
acFont16ASCII_62        0x080913b4    0x10  Data  Lc  F16_ASCII.o [3]
acFont16ASCII_63        0x080913c4    0x10  Data  Lc  F16_ASCII.o [3]
acFont16ASCII_64        0x080913d4    0x20  Data  Lc  F16_ASCII.o [3]
acFont16ASCII_65        0x080913f4    0x20  Data  Lc  F16_ASCII.o [3]
acFont16ASCII_66        0x08091414    0x20  Data  Lc  F16_ASCII.o [3]
acFont16ASCII_67        0x08091434    0x20  Data  Lc  F16_ASCII.o [3]
acFont16ASCII_68        0x08091454    0x20  Data  Lc  F16_ASCII.o [3]
acFont16ASCII_69        0x08091474    0x20  Data  Lc  F16_ASCII.o [3]
acFont16ASCII_70        0x08091494    0x10  Data  Lc  F16_ASCII.o [3]
acFont16ASCII_71        0x080914a4    0x20  Data  Lc  F16_ASCII.o [3]
acFont16ASCII_72        0x080914c4    0x20  Data  Lc  F16_ASCII.o [3]
acFont16ASCII_73        0x080914e4    0x10  Data  Lc  F16_ASCII.o [3]
acFont16ASCII_74        0x080914f4    0x10  Data  Lc  F16_ASCII.o [3]
acFont16ASCII_75        0x08091504    0x20  Data  Lc  F16_ASCII.o [3]
acFont16ASCII_76        0x08091524    0x10  Data  Lc  F16_ASCII.o [3]
acFont16ASCII_77        0x08091534    0x20  Data  Lc  F16_ASCII.o [3]
acFont16ASCII_78        0x08091554    0x20  Data  Lc  F16_ASCII.o [3]
acFont16ASCII_79        0x08091574    0x20  Data  Lc  F16_ASCII.o [3]
acFont16ASCII_80        0x08091594    0x20  Data  Lc  F16_ASCII.o [3]
acFont16ASCII_81        0x080915b4    0x20  Data  Lc  F16_ASCII.o [3]
acFont16ASCII_82        0x080915d4    0x20  Data  Lc  F16_ASCII.o [3]
acFont16ASCII_83        0x080915f4    0x20  Data  Lc  F16_ASCII.o [3]
acFont16ASCII_84        0x08091614    0x10  Data  Lc  F16_ASCII.o [3]
acFont16ASCII_85        0x08091624    0x20  Data  Lc  F16_ASCII.o [3]
acFont16ASCII_86        0x08091644    0x20  Data  Lc  F16_ASCII.o [3]
acFont16ASCII_87        0x08091664    0x20  Data  Lc  F16_ASCII.o [3]
acFont16ASCII_88        0x08091684    0x10  Data  Lc  F16_ASCII.o [3]
acFont16ASCII_89        0x08091694    0x20  Data  Lc  F16_ASCII.o [3]
acFont16ASCII_90        0x080916b4    0x10  Data  Lc  F16_ASCII.o [3]
acFont16ASCII_91        0x080916c4    0x10  Data  Lc  F16_ASCII.o [3]
acFont16ASCII_92        0x080916d4    0x10  Data  Lc  F16_ASCII.o [3]
acFont16ASCII_93        0x080916e4    0x10  Data  Lc  F16_ASCII.o [3]
acFont16ASCII_94        0x080916f4    0x10  Data  Lc  F16_ASCII.o [3]
acFont16ASCII_95        0x08091704    0x10  Data  Lc  F16_ASCII.o [3]
acFont16ASCII_96        0x08091714    0x10  Data  Lc  F16_ASCII.o [3]
acFont16ASCII_97        0x08091724    0x10  Data  Lc  F16_ASCII.o [3]
acFont16ASCII_98        0x08091734    0x10  Data  Lc  F16_ASCII.o [3]
acFont16ASCII_99        0x08091744    0x10  Data  Lc  F16_ASCII.o [3]
acFont16B_1_00A0        0x080906d4    0x10  Data  Lc  F16B_1.o [3]
acFont16B_1_00A1        0x080906e4    0x10  Data  Lc  F16B_1.o [3]
acFont16B_1_00A2        0x080906f4    0x10  Data  Lc  F16B_1.o [3]
acFont16B_1_00A3        0x08090704    0x10  Data  Lc  F16B_1.o [3]
acFont16B_1_00A4        0x08090714    0x10  Data  Lc  F16B_1.o [3]
acFont16B_1_00A5        0x08090724    0x10  Data  Lc  F16B_1.o [3]
acFont16B_1_00A6        0x08090734    0x10  Data  Lc  F16B_1.o [3]
acFont16B_1_00A7        0x08090744    0x10  Data  Lc  F16B_1.o [3]
acFont16B_1_00A8        0x08090754    0x10  Data  Lc  F16B_1.o [3]
acFont16B_1_00A9        0x08090764    0x20  Data  Lc  F16B_1.o [3]
acFont16B_1_00AA        0x08090784    0x10  Data  Lc  F16B_1.o [3]
acFont16B_1_00AB        0x08090794    0x10  Data  Lc  F16B_1.o [3]
acFont16B_1_00AC        0x080907a4    0x10  Data  Lc  F16B_1.o [3]
acFont16B_1_00AD        0x080907b4    0x10  Data  Lc  F16B_1.o [3]
acFont16B_1_00AE        0x080907c4    0x20  Data  Lc  F16B_1.o [3]
acFont16B_1_00AF        0x080907e4    0x10  Data  Lc  F16B_1.o [3]
acFont16B_1_00B0        0x080907f4    0x10  Data  Lc  F16B_1.o [3]
acFont16B_1_00B1        0x08090804    0x10  Data  Lc  F16B_1.o [3]
acFont16B_1_00B2        0x08090814    0x10  Data  Lc  F16B_1.o [3]
acFont16B_1_00B3        0x08090824    0x10  Data  Lc  F16B_1.o [3]
acFont16B_1_00B4        0x08090834    0x10  Data  Lc  F16B_1.o [3]
acFont16B_1_00B5        0x08090844    0x10  Data  Lc  F16B_1.o [3]
acFont16B_1_00B6        0x08090854    0x10  Data  Lc  F16B_1.o [3]
acFont16B_1_00B7        0x08090864    0x10  Data  Lc  F16B_1.o [3]
acFont16B_1_00B8        0x08090874    0x10  Data  Lc  F16B_1.o [3]
acFont16B_1_00B9        0x08090884    0x10  Data  Lc  F16B_1.o [3]
acFont16B_1_00BA        0x08090894    0x10  Data  Lc  F16B_1.o [3]
acFont16B_1_00BB        0x080908a4    0x10  Data  Lc  F16B_1.o [3]
acFont16B_1_00BC        0x080908b4    0x20  Data  Lc  F16B_1.o [3]
acFont16B_1_00BD        0x080908d4    0x20  Data  Lc  F16B_1.o [3]
acFont16B_1_00BE        0x080908f4    0x20  Data  Lc  F16B_1.o [3]
acFont16B_1_00BF        0x08090914    0x10  Data  Lc  F16B_1.o [3]
acFont16B_1_00C0        0x08090924    0x20  Data  Lc  F16B_1.o [3]
acFont16B_1_00C1        0x08090944    0x20  Data  Lc  F16B_1.o [3]
acFont16B_1_00C2        0x08090964    0x20  Data  Lc  F16B_1.o [3]
acFont16B_1_00C3        0x08090984    0x20  Data  Lc  F16B_1.o [3]
acFont16B_1_00C4        0x080909a4    0x20  Data  Lc  F16B_1.o [3]
acFont16B_1_00C5        0x080909c4    0x20  Data  Lc  F16B_1.o [3]
acFont16B_1_00C6        0x080909e4    0x20  Data  Lc  F16B_1.o [3]
acFont16B_1_00C7        0x08090a04    0x20  Data  Lc  F16B_1.o [3]
acFont16B_1_00C8        0x08090a24    0x10  Data  Lc  F16B_1.o [3]
acFont16B_1_00C9        0x08090a34    0x10  Data  Lc  F16B_1.o [3]
acFont16B_1_00CA        0x08090a44    0x10  Data  Lc  F16B_1.o [3]
acFont16B_1_00CB        0x08090a54    0x10  Data  Lc  F16B_1.o [3]
acFont16B_1_00CC        0x08090a64    0x10  Data  Lc  F16B_1.o [3]
acFont16B_1_00CD        0x08090a74    0x10  Data  Lc  F16B_1.o [3]
acFont16B_1_00CE        0x08090a84    0x10  Data  Lc  F16B_1.o [3]
acFont16B_1_00CF        0x08090a94    0x10  Data  Lc  F16B_1.o [3]
acFont16B_1_00D0        0x08090aa4    0x20  Data  Lc  F16B_1.o [3]
acFont16B_1_00D1        0x08090ac4    0x20  Data  Lc  F16B_1.o [3]
acFont16B_1_00D2        0x08090ae4    0x20  Data  Lc  F16B_1.o [3]
acFont16B_1_00D3        0x08090b04    0x20  Data  Lc  F16B_1.o [3]
acFont16B_1_00D4        0x08090b24    0x20  Data  Lc  F16B_1.o [3]
acFont16B_1_00D5        0x08090b44    0x20  Data  Lc  F16B_1.o [3]
acFont16B_1_00D6        0x08090b64    0x20  Data  Lc  F16B_1.o [3]
acFont16B_1_00D7        0x08090b84    0x10  Data  Lc  F16B_1.o [3]
acFont16B_1_00D8        0x08090b94    0x20  Data  Lc  F16B_1.o [3]
acFont16B_1_00D9        0x08090bb4    0x20  Data  Lc  F16B_1.o [3]
acFont16B_1_00DA        0x08090bd4    0x20  Data  Lc  F16B_1.o [3]
acFont16B_1_00DB        0x08090bf4    0x20  Data  Lc  F16B_1.o [3]
acFont16B_1_00DC        0x08090c14    0x20  Data  Lc  F16B_1.o [3]
acFont16B_1_00DD        0x08090c34    0x10  Data  Lc  F16B_1.o [3]
acFont16B_1_00DE        0x08090c44    0x20  Data  Lc  F16B_1.o [3]
acFont16B_1_00DF        0x08090c64    0x10  Data  Lc  F16B_1.o [3]
acFont16B_1_00E0        0x08090c74    0x10  Data  Lc  F16B_1.o [3]
acFont16B_1_00E1        0x08090c84    0x10  Data  Lc  F16B_1.o [3]
acFont16B_1_00E2        0x08090c94    0x10  Data  Lc  F16B_1.o [3]
acFont16B_1_00E3        0x08090ca4    0x10  Data  Lc  F16B_1.o [3]
acFont16B_1_00E4        0x08090cb4    0x10  Data  Lc  F16B_1.o [3]
acFont16B_1_00E5        0x08090cc4    0x10  Data  Lc  F16B_1.o [3]
acFont16B_1_00E6        0x08090cd4    0x20  Data  Lc  F16B_1.o [3]
acFont16B_1_00E7        0x08090cf4    0x10  Data  Lc  F16B_1.o [3]
acFont16B_1_00E8        0x08090d04    0x10  Data  Lc  F16B_1.o [3]
acFont16B_1_00E9        0x08090d14    0x10  Data  Lc  F16B_1.o [3]
acFont16B_1_00EA        0x08090d24    0x10  Data  Lc  F16B_1.o [3]
acFont16B_1_00EB        0x08090d34    0x10  Data  Lc  F16B_1.o [3]
acFont16B_1_00EC        0x08090d44    0x10  Data  Lc  F16B_1.o [3]
acFont16B_1_00ED        0x08090d54    0x10  Data  Lc  F16B_1.o [3]
acFont16B_1_00EE        0x08090d64    0x10  Data  Lc  F16B_1.o [3]
acFont16B_1_00EF        0x08090d74    0x10  Data  Lc  F16B_1.o [3]
acFont16B_1_00F0        0x08090d84    0x10  Data  Lc  F16B_1.o [3]
acFont16B_1_00F1        0x08090d94    0x10  Data  Lc  F16B_1.o [3]
acFont16B_1_00F2        0x08090da4    0x10  Data  Lc  F16B_1.o [3]
acFont16B_1_00F3        0x08090db4    0x10  Data  Lc  F16B_1.o [3]
acFont16B_1_00F4        0x08090dc4    0x10  Data  Lc  F16B_1.o [3]
acFont16B_1_00F5        0x08090dd4    0x10  Data  Lc  F16B_1.o [3]
acFont16B_1_00F6        0x08090de4    0x10  Data  Lc  F16B_1.o [3]
acFont16B_1_00F7        0x08090df4    0x10  Data  Lc  F16B_1.o [3]
acFont16B_1_00F8        0x08090e04    0x10  Data  Lc  F16B_1.o [3]
acFont16B_1_00F9        0x08090e14    0x10  Data  Lc  F16B_1.o [3]
acFont16B_1_00FA        0x08090e24    0x10  Data  Lc  F16B_1.o [3]
acFont16B_1_00FB        0x08090e34    0x10  Data  Lc  F16B_1.o [3]
acFont16B_1_00FC        0x08090e44    0x10  Data  Lc  F16B_1.o [3]
acFont16B_1_00FD        0x08090e54    0x10  Data  Lc  F16B_1.o [3]
acFont16B_1_00FE        0x08090e64    0x10  Data  Lc  F16B_1.o [3]
acFont16B_1_00FF        0x08090e74    0x10  Data  Lc  F16B_1.o [3]
acFont16B_ASCII_0020    0x08091c54    0x10  Data  Lc  F16B_ASCII.o [3]
acFont16B_ASCII_0021    0x08091c64    0x10  Data  Lc  F16B_ASCII.o [3]
acFont16B_ASCII_0022    0x08091c74    0x10  Data  Lc  F16B_ASCII.o [3]
acFont16B_ASCII_0023    0x08091c84    0x10  Data  Lc  F16B_ASCII.o [3]
acFont16B_ASCII_0024    0x08091c94    0x10  Data  Lc  F16B_ASCII.o [3]
acFont16B_ASCII_0025    0x08091ca4    0x20  Data  Lc  F16B_ASCII.o [3]
acFont16B_ASCII_0026    0x08091cc4    0x20  Data  Lc  F16B_ASCII.o [3]
acFont16B_ASCII_0027    0x08091ce4    0x10  Data  Lc  F16B_ASCII.o [3]
acFont16B_ASCII_0028    0x08091cf4    0x10  Data  Lc  F16B_ASCII.o [3]
acFont16B_ASCII_0029    0x08091d04    0x10  Data  Lc  F16B_ASCII.o [3]
acFont16B_ASCII_002A    0x08091d14    0x10  Data  Lc  F16B_ASCII.o [3]
acFont16B_ASCII_002B    0x08091d24    0x10  Data  Lc  F16B_ASCII.o [3]
acFont16B_ASCII_002C    0x08091d34    0x10  Data  Lc  F16B_ASCII.o [3]
acFont16B_ASCII_002D    0x08091d44    0x10  Data  Lc  F16B_ASCII.o [3]
acFont16B_ASCII_002E    0x08091d54    0x10  Data  Lc  F16B_ASCII.o [3]
acFont16B_ASCII_002F    0x08091d64    0x10  Data  Lc  F16B_ASCII.o [3]
acFont16B_ASCII_0030    0x08091d74    0x10  Data  Lc  F16B_ASCII.o [3]
acFont16B_ASCII_0031    0x08091d84    0x10  Data  Lc  F16B_ASCII.o [3]
acFont16B_ASCII_0032    0x08091d94    0x10  Data  Lc  F16B_ASCII.o [3]
acFont16B_ASCII_0033    0x08091da4    0x10  Data  Lc  F16B_ASCII.o [3]
acFont16B_ASCII_0034    0x08091db4    0x10  Data  Lc  F16B_ASCII.o [3]
acFont16B_ASCII_0035    0x08091dc4    0x10  Data  Lc  F16B_ASCII.o [3]
acFont16B_ASCII_0036    0x08091dd4    0x10  Data  Lc  F16B_ASCII.o [3]
acFont16B_ASCII_0037    0x08091de4    0x10  Data  Lc  F16B_ASCII.o [3]
acFont16B_ASCII_0038    0x08091df4    0x10  Data  Lc  F16B_ASCII.o [3]
acFont16B_ASCII_0039    0x08091e04    0x10  Data  Lc  F16B_ASCII.o [3]
acFont16B_ASCII_003A    0x08091e14    0x10  Data  Lc  F16B_ASCII.o [3]
acFont16B_ASCII_003B    0x08091e24    0x10  Data  Lc  F16B_ASCII.o [3]
acFont16B_ASCII_003C    0x08091e34    0x10  Data  Lc  F16B_ASCII.o [3]
acFont16B_ASCII_003D    0x08091e44    0x10  Data  Lc  F16B_ASCII.o [3]
acFont16B_ASCII_003E    0x08091e54    0x10  Data  Lc  F16B_ASCII.o [3]
acFont16B_ASCII_003F    0x08091e64    0x10  Data  Lc  F16B_ASCII.o [3]
acFont16B_ASCII_0040    0x08091e74    0x20  Data  Lc  F16B_ASCII.o [3]
acFont16B_ASCII_0041    0x08091e94    0x20  Data  Lc  F16B_ASCII.o [3]
acFont16B_ASCII_0042    0x08091eb4    0x20  Data  Lc  F16B_ASCII.o [3]
acFont16B_ASCII_0043    0x08091ed4    0x20  Data  Lc  F16B_ASCII.o [3]
acFont16B_ASCII_0044    0x08091ef4    0x20  Data  Lc  F16B_ASCII.o [3]
acFont16B_ASCII_0045    0x08091f14    0x10  Data  Lc  F16B_ASCII.o [3]
acFont16B_ASCII_0046    0x08091f24    0x10  Data  Lc  F16B_ASCII.o [3]
acFont16B_ASCII_0047    0x08091f34    0x20  Data  Lc  F16B_ASCII.o [3]
acFont16B_ASCII_0048    0x08091f54    0x20  Data  Lc  F16B_ASCII.o [3]
acFont16B_ASCII_0049    0x08091f74    0x10  Data  Lc  F16B_ASCII.o [3]
acFont16B_ASCII_004A    0x08091f84    0x10  Data  Lc  F16B_ASCII.o [3]
acFont16B_ASCII_004B    0x08091f94    0x20  Data  Lc  F16B_ASCII.o [3]
acFont16B_ASCII_004C    0x08091fb4    0x10  Data  Lc  F16B_ASCII.o [3]
acFont16B_ASCII_004D    0x08091fc4    0x20  Data  Lc  F16B_ASCII.o [3]
acFont16B_ASCII_004E    0x08091fe4    0x20  Data  Lc  F16B_ASCII.o [3]
acFont16B_ASCII_004F    0x08092004    0x20  Data  Lc  F16B_ASCII.o [3]
acFont16B_ASCII_0050    0x08092024    0x20  Data  Lc  F16B_ASCII.o [3]
acFont16B_ASCII_0051    0x08092044    0x20  Data  Lc  F16B_ASCII.o [3]
acFont16B_ASCII_0052    0x08092064    0x20  Data  Lc  F16B_ASCII.o [3]
acFont16B_ASCII_0053    0x08092084    0x20  Data  Lc  F16B_ASCII.o [3]
acFont16B_ASCII_0054    0x080920a4    0x10  Data  Lc  F16B_ASCII.o [3]
acFont16B_ASCII_0055    0x080920b4    0x20  Data  Lc  F16B_ASCII.o [3]
acFont16B_ASCII_0056    0x080920d4    0x20  Data  Lc  F16B_ASCII.o [3]
acFont16B_ASCII_0057    0x080920f4    0x20  Data  Lc  F16B_ASCII.o [3]
acFont16B_ASCII_0058    0x08092114    0x20  Data  Lc  F16B_ASCII.o [3]
acFont16B_ASCII_0059    0x08092134    0x10  Data  Lc  F16B_ASCII.o [3]
acFont16B_ASCII_005A    0x08092144    0x10  Data  Lc  F16B_ASCII.o [3]
acFont16B_ASCII_005B    0x08092154    0x10  Data  Lc  F16B_ASCII.o [3]
acFont16B_ASCII_005C    0x08092164    0x10  Data  Lc  F16B_ASCII.o [3]
acFont16B_ASCII_005D    0x08092174    0x10  Data  Lc  F16B_ASCII.o [3]
acFont16B_ASCII_005E    0x08092184    0x10  Data  Lc  F16B_ASCII.o [3]
acFont16B_ASCII_005F    0x08092194    0x10  Data  Lc  F16B_ASCII.o [3]
acFont16B_ASCII_0060    0x080921a4    0x10  Data  Lc  F16B_ASCII.o [3]
acFont16B_ASCII_0061    0x080921b4    0x10  Data  Lc  F16B_ASCII.o [3]
acFont16B_ASCII_0062    0x080921c4    0x10  Data  Lc  F16B_ASCII.o [3]
acFont16B_ASCII_0063    0x080921d4    0x10  Data  Lc  F16B_ASCII.o [3]
acFont16B_ASCII_0064    0x080921e4    0x10  Data  Lc  F16B_ASCII.o [3]
acFont16B_ASCII_0065    0x080921f4    0x10  Data  Lc  F16B_ASCII.o [3]
acFont16B_ASCII_0066    0x08092204    0x10  Data  Lc  F16B_ASCII.o [3]
acFont16B_ASCII_0067    0x08092214    0x10  Data  Lc  F16B_ASCII.o [3]
acFont16B_ASCII_0068    0x08092224    0x10  Data  Lc  F16B_ASCII.o [3]
acFont16B_ASCII_0069    0x08092234    0x10  Data  Lc  F16B_ASCII.o [3]
acFont16B_ASCII_006A    0x08092244    0x10  Data  Lc  F16B_ASCII.o [3]
acFont16B_ASCII_006B    0x08092254    0x10  Data  Lc  F16B_ASCII.o [3]
acFont16B_ASCII_006C    0x08092264    0x10  Data  Lc  F16B_ASCII.o [3]
acFont16B_ASCII_006D    0x08092274    0x20  Data  Lc  F16B_ASCII.o [3]
acFont16B_ASCII_006E    0x08092294    0x10  Data  Lc  F16B_ASCII.o [3]
acFont16B_ASCII_006F    0x080922a4    0x10  Data  Lc  F16B_ASCII.o [3]
acFont16B_ASCII_0070    0x080922b4    0x10  Data  Lc  F16B_ASCII.o [3]
acFont16B_ASCII_0071    0x080922c4    0x10  Data  Lc  F16B_ASCII.o [3]
acFont16B_ASCII_0072    0x080922d4    0x10  Data  Lc  F16B_ASCII.o [3]
acFont16B_ASCII_0073    0x080922e4    0x10  Data  Lc  F16B_ASCII.o [3]
acFont16B_ASCII_0074    0x080922f4    0x10  Data  Lc  F16B_ASCII.o [3]
acFont16B_ASCII_0075    0x08092304    0x10  Data  Lc  F16B_ASCII.o [3]
acFont16B_ASCII_0076    0x08092314    0x10  Data  Lc  F16B_ASCII.o [3]
acFont16B_ASCII_0077    0x08092324    0x20  Data  Lc  F16B_ASCII.o [3]
acFont16B_ASCII_0078    0x08092344    0x10  Data  Lc  F16B_ASCII.o [3]
acFont16B_ASCII_0079    0x08092354    0x10  Data  Lc  F16B_ASCII.o [3]
acFont16B_ASCII_007A    0x08092364    0x10  Data  Lc  F16B_ASCII.o [3]
acFont16B_ASCII_007B    0x08092374    0x10  Data  Lc  F16B_ASCII.o [3]
acFont16B_ASCII_007C    0x08092384    0x10  Data  Lc  F16B_ASCII.o [3]
acFont16B_ASCII_007D    0x08092394    0x10  Data  Lc  F16B_ASCII.o [3]
acFont16B_ASCII_007E    0x080923a4    0x10  Data  Lc  F16B_ASCII.o [3]
acFont24B_1_00A0        0x0808ad6c    0x18  Data  Lc  F24B_1.o [3]
acFont24B_1_00A1        0x0808ad84    0x18  Data  Lc  F24B_1.o [3]
acFont24B_1_00A2        0x0808ad9c    0x30  Data  Lc  F24B_1.o [3]
acFont24B_1_00A3        0x0808adcc    0x30  Data  Lc  F24B_1.o [3]
acFont24B_1_00A4        0x0808adfc    0x30  Data  Lc  F24B_1.o [3]
acFont24B_1_00A5        0x0808ae2c    0x30  Data  Lc  F24B_1.o [3]
acFont24B_1_00A6        0x0808ae5c    0x18  Data  Lc  F24B_1.o [3]
acFont24B_1_00A7        0x0808ae74    0x30  Data  Lc  F24B_1.o [3]
acFont24B_1_00A8        0x0808aea4    0x18  Data  Lc  F24B_1.o [3]
acFont24B_1_00A9        0x0808aebc    0x30  Data  Lc  F24B_1.o [3]
acFont24B_1_00AA        0x0808aeec    0x18  Data  Lc  F24B_1.o [3]
acFont24B_1_00AB        0x0808af04    0x30  Data  Lc  F24B_1.o [3]
acFont24B_1_00AC        0x0808af34    0x30  Data  Lc  F24B_1.o [3]
acFont24B_1_00AD        0x0808af64    0x18  Data  Lc  F24B_1.o [3]
acFont24B_1_00AE        0x0808af7c    0x30  Data  Lc  F24B_1.o [3]
acFont24B_1_00AF        0x0808afac    0x30  Data  Lc  F24B_1.o [3]
acFont24B_1_00B0        0x0808afdc    0x18  Data  Lc  F24B_1.o [3]
acFont24B_1_00B1        0x0808aff4    0x30  Data  Lc  F24B_1.o [3]
acFont24B_1_00B2        0x0808b024    0x18  Data  Lc  F24B_1.o [3]
acFont24B_1_00B3        0x0808b03c    0x18  Data  Lc  F24B_1.o [3]
acFont24B_1_00B4        0x0808b054    0x18  Data  Lc  F24B_1.o [3]
acFont24B_1_00B5        0x0808b06c    0x30  Data  Lc  F24B_1.o [3]
acFont24B_1_00B6        0x0808b09c    0x30  Data  Lc  F24B_1.o [3]
acFont24B_1_00B7        0x0808b0cc    0x18  Data  Lc  F24B_1.o [3]
acFont24B_1_00B8        0x0808b0e4    0x18  Data  Lc  F24B_1.o [3]
acFont24B_1_00B9        0x0808b0fc    0x18  Data  Lc  F24B_1.o [3]
acFont24B_1_00BA        0x0808b114    0x18  Data  Lc  F24B_1.o [3]
acFont24B_1_00BB        0x0808b12c    0x30  Data  Lc  F24B_1.o [3]
acFont24B_1_00BC        0x0808b15c    0x48  Data  Lc  F24B_1.o [3]
acFont24B_1_00BD        0x0808b1a4    0x48  Data  Lc  F24B_1.o [3]
acFont24B_1_00BE        0x0808b1ec    0x48  Data  Lc  F24B_1.o [3]
acFont24B_1_00BF        0x0808b234    0x30  Data  Lc  F24B_1.o [3]
acFont24B_1_00C0        0x0808b264    0x30  Data  Lc  F24B_1.o [3]
acFont24B_1_00C1        0x0808b294    0x30  Data  Lc  F24B_1.o [3]
acFont24B_1_00C2        0x0808b2c4    0x30  Data  Lc  F24B_1.o [3]
acFont24B_1_00C3        0x0808b2f4    0x30  Data  Lc  F24B_1.o [3]
acFont24B_1_00C4        0x0808b324    0x30  Data  Lc  F24B_1.o [3]
acFont24B_1_00C5        0x0808b354    0x30  Data  Lc  F24B_1.o [3]
acFont24B_1_00C6        0x0808b384    0x48  Data  Lc  F24B_1.o [3]
acFont24B_1_00C7        0x0808b3cc    0x30  Data  Lc  F24B_1.o [3]
acFont24B_1_00C8        0x0808b3fc    0x30  Data  Lc  F24B_1.o [3]
acFont24B_1_00C9        0x0808b42c    0x30  Data  Lc  F24B_1.o [3]
acFont24B_1_00CA        0x0808b45c    0x30  Data  Lc  F24B_1.o [3]
acFont24B_1_00CB        0x0808b48c    0x30  Data  Lc  F24B_1.o [3]
acFont24B_1_00CC        0x0808b4bc    0x18  Data  Lc  F24B_1.o [3]
acFont24B_1_00CD        0x0808b4d4    0x18  Data  Lc  F24B_1.o [3]
acFont24B_1_00CE        0x0808b4ec    0x18  Data  Lc  F24B_1.o [3]
acFont24B_1_00CF        0x0808b504    0x18  Data  Lc  F24B_1.o [3]
acFont24B_1_00D0        0x0808b51c    0x30  Data  Lc  F24B_1.o [3]
acFont24B_1_00D1        0x0808b54c    0x30  Data  Lc  F24B_1.o [3]
acFont24B_1_00D2        0x0808b57c    0x30  Data  Lc  F24B_1.o [3]
acFont24B_1_00D3        0x0808b5ac    0x30  Data  Lc  F24B_1.o [3]
acFont24B_1_00D4        0x0808b5dc    0x30  Data  Lc  F24B_1.o [3]
acFont24B_1_00D5        0x0808b60c    0x30  Data  Lc  F24B_1.o [3]
acFont24B_1_00D6        0x0808b63c    0x30  Data  Lc  F24B_1.o [3]
acFont24B_1_00D7        0x0808b66c    0x30  Data  Lc  F24B_1.o [3]
acFont24B_1_00D8        0x0808b69c    0x30  Data  Lc  F24B_1.o [3]
acFont24B_1_00D9        0x0808b6cc    0x30  Data  Lc  F24B_1.o [3]
acFont24B_1_00DA        0x0808b6fc    0x30  Data  Lc  F24B_1.o [3]
acFont24B_1_00DB        0x0808b72c    0x30  Data  Lc  F24B_1.o [3]
acFont24B_1_00DC        0x0808b75c    0x30  Data  Lc  F24B_1.o [3]
acFont24B_1_00DD        0x0808b78c    0x30  Data  Lc  F24B_1.o [3]
acFont24B_1_00DE        0x0808b7bc    0x30  Data  Lc  F24B_1.o [3]
acFont24B_1_00DF        0x0808b7ec    0x30  Data  Lc  F24B_1.o [3]
acFont24B_1_00E0        0x0808b81c    0x30  Data  Lc  F24B_1.o [3]
acFont24B_1_00E1        0x0808b84c    0x30  Data  Lc  F24B_1.o [3]
acFont24B_1_00E2        0x0808b87c    0x30  Data  Lc  F24B_1.o [3]
acFont24B_1_00E3        0x0808b8ac    0x30  Data  Lc  F24B_1.o [3]
acFont24B_1_00E4        0x0808b8dc    0x30  Data  Lc  F24B_1.o [3]
acFont24B_1_00E5        0x0808b90c    0x30  Data  Lc  F24B_1.o [3]
acFont24B_1_00E6        0x0808b93c    0x48  Data  Lc  F24B_1.o [3]
acFont24B_1_00E7        0x0808b984    0x30  Data  Lc  F24B_1.o [3]
acFont24B_1_00E8        0x0808b9b4    0x30  Data  Lc  F24B_1.o [3]
acFont24B_1_00E9        0x0808b9e4    0x30  Data  Lc  F24B_1.o [3]
acFont24B_1_00EA        0x0808ba14    0x30  Data  Lc  F24B_1.o [3]
acFont24B_1_00EB        0x0808ba44    0x30  Data  Lc  F24B_1.o [3]
acFont24B_1_00EC        0x0808ba74    0x18  Data  Lc  F24B_1.o [3]
acFont24B_1_00ED        0x0808ba8c    0x18  Data  Lc  F24B_1.o [3]
acFont24B_1_00EE        0x0808baa4    0x18  Data  Lc  F24B_1.o [3]
acFont24B_1_00EF        0x0808babc    0x18  Data  Lc  F24B_1.o [3]
acFont24B_1_00F0        0x0808bad4    0x30  Data  Lc  F24B_1.o [3]
acFont24B_1_00F1        0x0808bb04    0x30  Data  Lc  F24B_1.o [3]
acFont24B_1_00F2        0x0808bb34    0x30  Data  Lc  F24B_1.o [3]
acFont24B_1_00F3        0x0808bb64    0x30  Data  Lc  F24B_1.o [3]
acFont24B_1_00F4        0x0808bb94    0x30  Data  Lc  F24B_1.o [3]
acFont24B_1_00F5        0x0808bbc4    0x30  Data  Lc  F24B_1.o [3]
acFont24B_1_00F6        0x0808bbf4    0x30  Data  Lc  F24B_1.o [3]
acFont24B_1_00F7        0x0808bc24    0x30  Data  Lc  F24B_1.o [3]
acFont24B_1_00F8        0x0808bc54    0x30  Data  Lc  F24B_1.o [3]
acFont24B_1_00F9        0x0808bc84    0x30  Data  Lc  F24B_1.o [3]
acFont24B_1_00FA        0x0808bcb4    0x30  Data  Lc  F24B_1.o [3]
acFont24B_1_00FB        0x0808bce4    0x30  Data  Lc  F24B_1.o [3]
acFont24B_1_00FC        0x0808bd14    0x30  Data  Lc  F24B_1.o [3]
acFont24B_1_00FD        0x0808bd44    0x30  Data  Lc  F24B_1.o [3]
acFont24B_1_00FE        0x0808bd74    0x30  Data  Lc  F24B_1.o [3]
acFont24B_1_00FF        0x0808bda4    0x30  Data  Lc  F24B_1.o [3]
acFont24B_ASCII_0020    0x0808c104    0x18  Data  Lc  F24B_ASCII.o [3]
acFont24B_ASCII_0021    0x0808c11c    0x18  Data  Lc  F24B_ASCII.o [3]
acFont24B_ASCII_0022    0x0808c134    0x30  Data  Lc  F24B_ASCII.o [3]
acFont24B_ASCII_0023    0x0808c164    0x30  Data  Lc  F24B_ASCII.o [3]
acFont24B_ASCII_0024    0x0808c194    0x30  Data  Lc  F24B_ASCII.o [3]
acFont24B_ASCII_0025    0x0808c1c4    0x48  Data  Lc  F24B_ASCII.o [3]
acFont24B_ASCII_0026    0x0808c20c    0x30  Data  Lc  F24B_ASCII.o [3]
acFont24B_ASCII_0027    0x0808c23c    0x18  Data  Lc  F24B_ASCII.o [3]
acFont24B_ASCII_0028    0x0808c254    0x18  Data  Lc  F24B_ASCII.o [3]
acFont24B_ASCII_0029    0x0808c26c    0x18  Data  Lc  F24B_ASCII.o [3]
acFont24B_ASCII_002A    0x0808c284    0x18  Data  Lc  F24B_ASCII.o [3]
acFont24B_ASCII_002B    0x0808c29c    0x30  Data  Lc  F24B_ASCII.o [3]
acFont24B_ASCII_002C    0x0808c2cc    0x18  Data  Lc  F24B_ASCII.o [3]
acFont24B_ASCII_002D    0x0808c2e4    0x18  Data  Lc  F24B_ASCII.o [3]
acFont24B_ASCII_002E    0x0808c2fc    0x18  Data  Lc  F24B_ASCII.o [3]
acFont24B_ASCII_002F    0x0808c314    0x18  Data  Lc  F24B_ASCII.o [3]
acFont24B_ASCII_0030    0x0808c32c    0x30  Data  Lc  F24B_ASCII.o [3]
acFont24B_ASCII_0031    0x0808c35c    0x30  Data  Lc  F24B_ASCII.o [3]
acFont24B_ASCII_0032    0x0808c38c    0x30  Data  Lc  F24B_ASCII.o [3]
acFont24B_ASCII_0033    0x0808c3bc    0x30  Data  Lc  F24B_ASCII.o [3]
acFont24B_ASCII_0034    0x0808c3ec    0x30  Data  Lc  F24B_ASCII.o [3]
acFont24B_ASCII_0035    0x0808c41c    0x30  Data  Lc  F24B_ASCII.o [3]
acFont24B_ASCII_0036    0x0808c44c    0x30  Data  Lc  F24B_ASCII.o [3]
acFont24B_ASCII_0037    0x0808c47c    0x30  Data  Lc  F24B_ASCII.o [3]
acFont24B_ASCII_0038    0x0808c4ac    0x30  Data  Lc  F24B_ASCII.o [3]
acFont24B_ASCII_0039    0x0808c4dc    0x30  Data  Lc  F24B_ASCII.o [3]
acFont24B_ASCII_003A    0x0808c50c    0x18  Data  Lc  F24B_ASCII.o [3]
acFont24B_ASCII_003B    0x0808c524    0x18  Data  Lc  F24B_ASCII.o [3]
acFont24B_ASCII_003C    0x0808c53c    0x30  Data  Lc  F24B_ASCII.o [3]
acFont24B_ASCII_003D    0x0808c56c    0x30  Data  Lc  F24B_ASCII.o [3]
acFont24B_ASCII_003E    0x0808c59c    0x30  Data  Lc  F24B_ASCII.o [3]
acFont24B_ASCII_003F    0x0808c5cc    0x30  Data  Lc  F24B_ASCII.o [3]
acFont24B_ASCII_0040    0x0808c5fc    0x48  Data  Lc  F24B_ASCII.o [3]
acFont24B_ASCII_0041    0x0808c644    0x30  Data  Lc  F24B_ASCII.o [3]
acFont24B_ASCII_0042    0x0808c674    0x30  Data  Lc  F24B_ASCII.o [3]
acFont24B_ASCII_0043    0x0808c6a4    0x30  Data  Lc  F24B_ASCII.o [3]
acFont24B_ASCII_0044    0x0808c6d4    0x30  Data  Lc  F24B_ASCII.o [3]
acFont24B_ASCII_0045    0x0808c704    0x30  Data  Lc  F24B_ASCII.o [3]
acFont24B_ASCII_0046    0x0808c734    0x30  Data  Lc  F24B_ASCII.o [3]
acFont24B_ASCII_0047    0x0808c764    0x30  Data  Lc  F24B_ASCII.o [3]
acFont24B_ASCII_0048    0x0808c794    0x30  Data  Lc  F24B_ASCII.o [3]
acFont24B_ASCII_0049    0x0808c7c4    0x18  Data  Lc  F24B_ASCII.o [3]
acFont24B_ASCII_004A    0x0808c7dc    0x30  Data  Lc  F24B_ASCII.o [3]
acFont24B_ASCII_004B    0x0808c80c    0x30  Data  Lc  F24B_ASCII.o [3]
acFont24B_ASCII_004C    0x0808c83c    0x30  Data  Lc  F24B_ASCII.o [3]
acFont24B_ASCII_004D    0x0808c86c    0x48  Data  Lc  F24B_ASCII.o [3]
acFont24B_ASCII_004E    0x0808c8b4    0x30  Data  Lc  F24B_ASCII.o [3]
acFont24B_ASCII_004F    0x0808c8e4    0x30  Data  Lc  F24B_ASCII.o [3]
acFont24B_ASCII_0050    0x0808c914    0x30  Data  Lc  F24B_ASCII.o [3]
acFont24B_ASCII_0051    0x0808c944    0x30  Data  Lc  F24B_ASCII.o [3]
acFont24B_ASCII_0052    0x0808c974    0x30  Data  Lc  F24B_ASCII.o [3]
acFont24B_ASCII_0053    0x0808c9a4    0x30  Data  Lc  F24B_ASCII.o [3]
acFont24B_ASCII_0054    0x0808c9d4    0x30  Data  Lc  F24B_ASCII.o [3]
acFont24B_ASCII_0055    0x0808ca04    0x30  Data  Lc  F24B_ASCII.o [3]
acFont24B_ASCII_0056    0x0808ca34    0x30  Data  Lc  F24B_ASCII.o [3]
acFont24B_ASCII_0057    0x0808ca64    0x48  Data  Lc  F24B_ASCII.o [3]
acFont24B_ASCII_0058    0x0808caac    0x30  Data  Lc  F24B_ASCII.o [3]
acFont24B_ASCII_0059    0x0808cadc    0x30  Data  Lc  F24B_ASCII.o [3]
acFont24B_ASCII_005A    0x0808cb0c    0x30  Data  Lc  F24B_ASCII.o [3]
acFont24B_ASCII_005B    0x0808cb3c    0x18  Data  Lc  F24B_ASCII.o [3]
acFont24B_ASCII_005C    0x0808cb54    0x18  Data  Lc  F24B_ASCII.o [3]
acFont24B_ASCII_005D    0x0808cb6c    0x18  Data  Lc  F24B_ASCII.o [3]
acFont24B_ASCII_005E    0x0808cb84    0x30  Data  Lc  F24B_ASCII.o [3]
acFont24B_ASCII_005F    0x0808cbb4    0x30  Data  Lc  F24B_ASCII.o [3]
acFont24B_ASCII_0060    0x0808cbe4    0x18  Data  Lc  F24B_ASCII.o [3]
acFont24B_ASCII_0061    0x0808cbfc    0x30  Data  Lc  F24B_ASCII.o [3]
acFont24B_ASCII_0062    0x0808cc2c    0x30  Data  Lc  F24B_ASCII.o [3]
acFont24B_ASCII_0063    0x0808cc5c    0x30  Data  Lc  F24B_ASCII.o [3]
acFont24B_ASCII_0064    0x0808cc8c    0x30  Data  Lc  F24B_ASCII.o [3]
acFont24B_ASCII_0065    0x0808ccbc    0x30  Data  Lc  F24B_ASCII.o [3]
acFont24B_ASCII_0066    0x0808ccec    0x18  Data  Lc  F24B_ASCII.o [3]
acFont24B_ASCII_0067    0x0808cd04    0x30  Data  Lc  F24B_ASCII.o [3]
acFont24B_ASCII_0068    0x0808cd34    0x30  Data  Lc  F24B_ASCII.o [3]
acFont24B_ASCII_0069    0x0808cd64    0x18  Data  Lc  F24B_ASCII.o [3]
acFont24B_ASCII_006A    0x0808cd7c    0x18  Data  Lc  F24B_ASCII.o [3]
acFont24B_ASCII_006B    0x0808cd94    0x30  Data  Lc  F24B_ASCII.o [3]
acFont24B_ASCII_006C    0x0808cdc4    0x18  Data  Lc  F24B_ASCII.o [3]
acFont24B_ASCII_006D    0x0808cddc    0x48  Data  Lc  F24B_ASCII.o [3]
acFont24B_ASCII_006E    0x0808ce24    0x30  Data  Lc  F24B_ASCII.o [3]
acFont24B_ASCII_006F    0x0808ce54    0x30  Data  Lc  F24B_ASCII.o [3]
acFont24B_ASCII_0070    0x0808ce84    0x30  Data  Lc  F24B_ASCII.o [3]
acFont24B_ASCII_0071    0x0808ceb4    0x30  Data  Lc  F24B_ASCII.o [3]
acFont24B_ASCII_0072    0x0808cee4    0x18  Data  Lc  F24B_ASCII.o [3]
acFont24B_ASCII_0073    0x0808cefc    0x30  Data  Lc  F24B_ASCII.o [3]
acFont24B_ASCII_0074    0x0808cf2c    0x18  Data  Lc  F24B_ASCII.o [3]
acFont24B_ASCII_0075    0x0808cf44    0x30  Data  Lc  F24B_ASCII.o [3]
acFont24B_ASCII_0076    0x0808cf74    0x30  Data  Lc  F24B_ASCII.o [3]
acFont24B_ASCII_0077    0x0808cfa4    0x30  Data  Lc  F24B_ASCII.o [3]
acFont24B_ASCII_0078    0x0808cfd4    0x30  Data  Lc  F24B_ASCII.o [3]
acFont24B_ASCII_0079    0x0808d004    0x30  Data  Lc  F24B_ASCII.o [3]
acFont24B_ASCII_007A    0x0808d034    0x30  Data  Lc  F24B_ASCII.o [3]
acFont24B_ASCII_007B    0x0808d064    0x18  Data  Lc  F24B_ASCII.o [3]
acFont24B_ASCII_007C    0x0808d07c    0x18  Data  Lc  F24B_ASCII.o [3]
acFont24B_ASCII_007D    0x0808d094    0x18  Data  Lc  F24B_ASCII.o [3]
acFont24B_ASCII_007E    0x0808d0ac    0x30  Data  Lc  F24B_ASCII.o [3]
acFont24_ASCII_0020     0x0808d404    0x18  Data  Lc  F24_ASCII.o [3]
acFont24_ASCII_0021     0x0808d41c    0x18  Data  Lc  F24_ASCII.o [3]
acFont24_ASCII_0022     0x0808d434    0x18  Data  Lc  F24_ASCII.o [3]
acFont24_ASCII_0023     0x0808d44c    0x30  Data  Lc  F24_ASCII.o [3]
acFont24_ASCII_0024     0x0808d47c    0x30  Data  Lc  F24_ASCII.o [3]
acFont24_ASCII_0025     0x0808d4ac    0x48  Data  Lc  F24_ASCII.o [3]
acFont24_ASCII_0026     0x0808d4f4    0x30  Data  Lc  F24_ASCII.o [3]
acFont24_ASCII_0027     0x0808d524    0x18  Data  Lc  F24_ASCII.o [3]
acFont24_ASCII_0028     0x0808d53c    0x18  Data  Lc  F24_ASCII.o [3]
acFont24_ASCII_0029     0x0808d554    0x18  Data  Lc  F24_ASCII.o [3]
acFont24_ASCII_002A     0x0808d56c    0x18  Data  Lc  F24_ASCII.o [3]
acFont24_ASCII_002B     0x0808d584    0x30  Data  Lc  F24_ASCII.o [3]
acFont24_ASCII_002C     0x0808d5b4    0x18  Data  Lc  F24_ASCII.o [3]
acFont24_ASCII_002D     0x0808d5cc    0x18  Data  Lc  F24_ASCII.o [3]
acFont24_ASCII_002E     0x0808d5e4    0x18  Data  Lc  F24_ASCII.o [3]
acFont24_ASCII_002F     0x0808d5fc    0x18  Data  Lc  F24_ASCII.o [3]
acFont24_ASCII_0030     0x0808d614    0x30  Data  Lc  F24_ASCII.o [3]
acFont24_ASCII_0031     0x0808d644    0x30  Data  Lc  F24_ASCII.o [3]
acFont24_ASCII_0032     0x0808d674    0x30  Data  Lc  F24_ASCII.o [3]
acFont24_ASCII_0033     0x0808d6a4    0x30  Data  Lc  F24_ASCII.o [3]
acFont24_ASCII_0034     0x0808d6d4    0x30  Data  Lc  F24_ASCII.o [3]
acFont24_ASCII_0035     0x0808d704    0x30  Data  Lc  F24_ASCII.o [3]
acFont24_ASCII_0036     0x0808d734    0x30  Data  Lc  F24_ASCII.o [3]
acFont24_ASCII_0037     0x0808d764    0x30  Data  Lc  F24_ASCII.o [3]
acFont24_ASCII_0038     0x0808d794    0x30  Data  Lc  F24_ASCII.o [3]
acFont24_ASCII_0039     0x0808d7c4    0x30  Data  Lc  F24_ASCII.o [3]
acFont24_ASCII_003A     0x0808d7f4    0x18  Data  Lc  F24_ASCII.o [3]
acFont24_ASCII_003B     0x0808d80c    0x18  Data  Lc  F24_ASCII.o [3]
acFont24_ASCII_003C     0x0808d824    0x30  Data  Lc  F24_ASCII.o [3]
acFont24_ASCII_003D     0x0808d854    0x30  Data  Lc  F24_ASCII.o [3]
acFont24_ASCII_003E     0x0808d884    0x30  Data  Lc  F24_ASCII.o [3]
acFont24_ASCII_003F     0x0808d8b4    0x30  Data  Lc  F24_ASCII.o [3]
acFont24_ASCII_0040     0x0808d8e4    0x48  Data  Lc  F24_ASCII.o [3]
acFont24_ASCII_0041     0x0808d92c    0x30  Data  Lc  F24_ASCII.o [3]
acFont24_ASCII_0042     0x0808d95c    0x30  Data  Lc  F24_ASCII.o [3]
acFont24_ASCII_0043     0x0808d98c    0x30  Data  Lc  F24_ASCII.o [3]
acFont24_ASCII_0044     0x0808d9bc    0x30  Data  Lc  F24_ASCII.o [3]
acFont24_ASCII_0045     0x0808d9ec    0x30  Data  Lc  F24_ASCII.o [3]
acFont24_ASCII_0046     0x0808da1c    0x30  Data  Lc  F24_ASCII.o [3]
acFont24_ASCII_0047     0x0808da4c    0x30  Data  Lc  F24_ASCII.o [3]
acFont24_ASCII_0048     0x0808da7c    0x30  Data  Lc  F24_ASCII.o [3]
acFont24_ASCII_0049     0x0808daac    0x18  Data  Lc  F24_ASCII.o [3]
acFont24_ASCII_004A     0x0808dac4    0x30  Data  Lc  F24_ASCII.o [3]
acFont24_ASCII_004B     0x0808daf4    0x30  Data  Lc  F24_ASCII.o [3]
acFont24_ASCII_004C     0x0808db24    0x30  Data  Lc  F24_ASCII.o [3]
acFont24_ASCII_004D     0x0808db54    0x48  Data  Lc  F24_ASCII.o [3]
acFont24_ASCII_004E     0x0808db9c    0x30  Data  Lc  F24_ASCII.o [3]
acFont24_ASCII_004F     0x0808dbcc    0x30  Data  Lc  F24_ASCII.o [3]
acFont24_ASCII_0050     0x0808dbfc    0x30  Data  Lc  F24_ASCII.o [3]
acFont24_ASCII_0051     0x0808dc2c    0x30  Data  Lc  F24_ASCII.o [3]
acFont24_ASCII_0052     0x0808dc5c    0x30  Data  Lc  F24_ASCII.o [3]
acFont24_ASCII_0053     0x0808dc8c    0x30  Data  Lc  F24_ASCII.o [3]
acFont24_ASCII_0054     0x0808dcbc    0x30  Data  Lc  F24_ASCII.o [3]
acFont24_ASCII_0055     0x0808dcec    0x30  Data  Lc  F24_ASCII.o [3]
acFont24_ASCII_0056     0x0808dd1c    0x30  Data  Lc  F24_ASCII.o [3]
acFont24_ASCII_0057     0x0808dd4c    0x48  Data  Lc  F24_ASCII.o [3]
acFont24_ASCII_0058     0x0808dd94    0x30  Data  Lc  F24_ASCII.o [3]
acFont24_ASCII_0059     0x0808ddc4    0x30  Data  Lc  F24_ASCII.o [3]
acFont24_ASCII_005A     0x0808ddf4    0x30  Data  Lc  F24_ASCII.o [3]
acFont24_ASCII_005B     0x0808de24    0x18  Data  Lc  F24_ASCII.o [3]
acFont24_ASCII_005C     0x0808de3c    0x18  Data  Lc  F24_ASCII.o [3]
acFont24_ASCII_005D     0x0808de54    0x18  Data  Lc  F24_ASCII.o [3]
acFont24_ASCII_005E     0x0808de6c    0x18  Data  Lc  F24_ASCII.o [3]
acFont24_ASCII_005F     0x0808de84    0x30  Data  Lc  F24_ASCII.o [3]
acFont24_ASCII_0060     0x0808deb4    0x18  Data  Lc  F24_ASCII.o [3]
acFont24_ASCII_0061     0x0808decc    0x30  Data  Lc  F24_ASCII.o [3]
acFont24_ASCII_0062     0x0808defc    0x30  Data  Lc  F24_ASCII.o [3]
acFont24_ASCII_0063     0x0808df2c    0x30  Data  Lc  F24_ASCII.o [3]
acFont24_ASCII_0064     0x0808df5c    0x30  Data  Lc  F24_ASCII.o [3]
acFont24_ASCII_0065     0x0808df8c    0x30  Data  Lc  F24_ASCII.o [3]
acFont24_ASCII_0066     0x0808dfbc    0x18  Data  Lc  F24_ASCII.o [3]
acFont24_ASCII_0067     0x0808dfd4    0x30  Data  Lc  F24_ASCII.o [3]
acFont24_ASCII_0068     0x0808e004    0x30  Data  Lc  F24_ASCII.o [3]
acFont24_ASCII_0069     0x0808e034    0x18  Data  Lc  F24_ASCII.o [3]
acFont24_ASCII_006A     0x0808e04c    0x18  Data  Lc  F24_ASCII.o [3]
acFont24_ASCII_006B     0x0808e064    0x30  Data  Lc  F24_ASCII.o [3]
acFont24_ASCII_006C     0x0808e094    0x18  Data  Lc  F24_ASCII.o [3]
acFont24_ASCII_006D     0x0808e0ac    0x30  Data  Lc  F24_ASCII.o [3]
acFont24_ASCII_006E     0x0808e0dc    0x30  Data  Lc  F24_ASCII.o [3]
acFont24_ASCII_006F     0x0808e10c    0x30  Data  Lc  F24_ASCII.o [3]
acFont24_ASCII_0070     0x0808e13c    0x30  Data  Lc  F24_ASCII.o [3]
acFont24_ASCII_0071     0x0808e16c    0x30  Data  Lc  F24_ASCII.o [3]
acFont24_ASCII_0072     0x0808e19c    0x18  Data  Lc  F24_ASCII.o [3]
acFont24_ASCII_0073     0x0808e1b4    0x30  Data  Lc  F24_ASCII.o [3]
acFont24_ASCII_0074     0x0808e1e4    0x18  Data  Lc  F24_ASCII.o [3]
acFont24_ASCII_0075     0x0808e1fc    0x30  Data  Lc  F24_ASCII.o [3]
acFont24_ASCII_0076     0x0808e22c    0x30  Data  Lc  F24_ASCII.o [3]
acFont24_ASCII_0077     0x0808e25c    0x30  Data  Lc  F24_ASCII.o [3]
acFont24_ASCII_0078     0x0808e28c    0x30  Data  Lc  F24_ASCII.o [3]
acFont24_ASCII_0079     0x0808e2bc    0x30  Data  Lc  F24_ASCII.o [3]
acFont24_ASCII_007A     0x0808e2ec    0x30  Data  Lc  F24_ASCII.o [3]
acFont24_ASCII_007B     0x0808e31c    0x18  Data  Lc  F24_ASCII.o [3]
acFont24_ASCII_007C     0x0808e334    0x18  Data  Lc  F24_ASCII.o [3]
acFont24_ASCII_007D     0x0808e34c    0x18  Data  Lc  F24_ASCII.o [3]
acFont24_ASCII_007E     0x0808e364    0x30  Data  Lc  F24_ASCII.o [3]
acFont32B_ASCII_0020    0x0806c078    0x20  Data  Lc  F32B_ASCII.o [3]
acFont32B_ASCII_0021    0x0806c098    0x20  Data  Lc  F32B_ASCII.o [3]
acFont32B_ASCII_0022    0x0806c0b8    0x40  Data  Lc  F32B_ASCII.o [3]
acFont32B_ASCII_0023    0x0806c0f8    0x40  Data  Lc  F32B_ASCII.o [3]
acFont32B_ASCII_0024    0x0806c138    0x40  Data  Lc  F32B_ASCII.o [3]
acFont32B_ASCII_0025    0x0806c178    0x60  Data  Lc  F32B_ASCII.o [3]
acFont32B_ASCII_0026    0x0806c1d8    0x60  Data  Lc  F32B_ASCII.o [3]
acFont32B_ASCII_0027    0x0806c238    0x20  Data  Lc  F32B_ASCII.o [3]
acFont32B_ASCII_0028    0x0806c258    0x40  Data  Lc  F32B_ASCII.o [3]
acFont32B_ASCII_0029    0x0806c298    0x40  Data  Lc  F32B_ASCII.o [3]
acFont32B_ASCII_002A    0x0806c2d8    0x40  Data  Lc  F32B_ASCII.o [3]
acFont32B_ASCII_002B    0x0806c318    0x40  Data  Lc  F32B_ASCII.o [3]
acFont32B_ASCII_002C    0x0806c358    0x20  Data  Lc  F32B_ASCII.o [3]
acFont32B_ASCII_002D    0x0806c378    0x40  Data  Lc  F32B_ASCII.o [3]
acFont32B_ASCII_002E    0x0806c3b8    0x20  Data  Lc  F32B_ASCII.o [3]
acFont32B_ASCII_002F    0x0806c3d8    0x20  Data  Lc  F32B_ASCII.o [3]
acFont32B_ASCII_0030    0x0806c3f8    0x40  Data  Lc  F32B_ASCII.o [3]
acFont32B_ASCII_0031    0x0806c438    0x40  Data  Lc  F32B_ASCII.o [3]
acFont32B_ASCII_0032    0x0806c478    0x40  Data  Lc  F32B_ASCII.o [3]
acFont32B_ASCII_0033    0x0806c4b8    0x40  Data  Lc  F32B_ASCII.o [3]
acFont32B_ASCII_0034    0x0806c4f8    0x40  Data  Lc  F32B_ASCII.o [3]
acFont32B_ASCII_0035    0x0806c538    0x40  Data  Lc  F32B_ASCII.o [3]
acFont32B_ASCII_0036    0x0806c578    0x40  Data  Lc  F32B_ASCII.o [3]
acFont32B_ASCII_0037    0x0806c5b8    0x40  Data  Lc  F32B_ASCII.o [3]
acFont32B_ASCII_0038    0x0806c5f8    0x40  Data  Lc  F32B_ASCII.o [3]
acFont32B_ASCII_0039    0x0806c638    0x40  Data  Lc  F32B_ASCII.o [3]
acFont32B_ASCII_003A    0x0806c678    0x40  Data  Lc  F32B_ASCII.o [3]
acFont32B_ASCII_003B    0x0806c6b8    0x40  Data  Lc  F32B_ASCII.o [3]
acFont32B_ASCII_003C    0x0806c6f8    0x40  Data  Lc  F32B_ASCII.o [3]
acFont32B_ASCII_003D    0x0806c738    0x40  Data  Lc  F32B_ASCII.o [3]
acFont32B_ASCII_003E    0x0806c778    0x40  Data  Lc  F32B_ASCII.o [3]
acFont32B_ASCII_003F    0x0806c7b8    0x60  Data  Lc  F32B_ASCII.o [3]
acFont32B_ASCII_0040    0x0806c818    0x80  Data  Lc  F32B_ASCII.o [3]
acFont32B_ASCII_0041    0x0806c898    0x60  Data  Lc  F32B_ASCII.o [3]
acFont32B_ASCII_0042    0x0806c8f8    0x60  Data  Lc  F32B_ASCII.o [3]
acFont32B_ASCII_0043    0x0806c958    0x60  Data  Lc  F32B_ASCII.o [3]
acFont32B_ASCII_0044    0x0806c9b8    0x60  Data  Lc  F32B_ASCII.o [3]
acFont32B_ASCII_0045    0x0806ca18    0x60  Data  Lc  F32B_ASCII.o [3]
acFont32B_ASCII_0046    0x0806ca78    0x60  Data  Lc  F32B_ASCII.o [3]
acFont32B_ASCII_0047    0x0806cad8    0x60  Data  Lc  F32B_ASCII.o [3]
acFont32B_ASCII_0048    0x0806cb38    0x60  Data  Lc  F32B_ASCII.o [3]
acFont32B_ASCII_0049    0x0806cb98    0x20  Data  Lc  F32B_ASCII.o [3]
acFont32B_ASCII_004A    0x0806cbb8    0x40  Data  Lc  F32B_ASCII.o [3]
acFont32B_ASCII_004B    0x0806cbf8    0x60  Data  Lc  F32B_ASCII.o [3]
acFont32B_ASCII_004C    0x0806cc58    0x60  Data  Lc  F32B_ASCII.o [3]
acFont32B_ASCII_004D    0x0806ccb8    0x60  Data  Lc  F32B_ASCII.o [3]
acFont32B_ASCII_004E    0x0806cd18    0x60  Data  Lc  F32B_ASCII.o [3]
acFont32B_ASCII_004F    0x0806cd78    0x60  Data  Lc  F32B_ASCII.o [3]
acFont32B_ASCII_0050    0x0806cdd8    0x60  Data  Lc  F32B_ASCII.o [3]
acFont32B_ASCII_0051    0x0806ce38    0x60  Data  Lc  F32B_ASCII.o [3]
acFont32B_ASCII_0052    0x0806ce98    0x60  Data  Lc  F32B_ASCII.o [3]
acFont32B_ASCII_0053    0x0806cef8    0x60  Data  Lc  F32B_ASCII.o [3]
acFont32B_ASCII_0054    0x0806cf58    0x60  Data  Lc  F32B_ASCII.o [3]
acFont32B_ASCII_0055    0x0806cfb8    0x60  Data  Lc  F32B_ASCII.o [3]
acFont32B_ASCII_0056    0x0806d018    0x60  Data  Lc  F32B_ASCII.o [3]
acFont32B_ASCII_0057    0x0806d078    0x80  Data  Lc  F32B_ASCII.o [3]
acFont32B_ASCII_0058    0x0806d0f8    0x60  Data  Lc  F32B_ASCII.o [3]
acFont32B_ASCII_0059    0x0806d158    0x60  Data  Lc  F32B_ASCII.o [3]
acFont32B_ASCII_005A    0x0806d1b8    0x60  Data  Lc  F32B_ASCII.o [3]
acFont32B_ASCII_005B    0x0806d218    0x40  Data  Lc  F32B_ASCII.o [3]
acFont32B_ASCII_005C    0x0806d258    0x20  Data  Lc  F32B_ASCII.o [3]
acFont32B_ASCII_005D    0x0806d278    0x40  Data  Lc  F32B_ASCII.o [3]
acFont32B_ASCII_005E    0x0806d2b8    0x40  Data  Lc  F32B_ASCII.o [3]
acFont32B_ASCII_005F    0x0806d2f8    0x40  Data  Lc  F32B_ASCII.o [3]
acFont32B_ASCII_0060    0x0806d338    0x40  Data  Lc  F32B_ASCII.o [3]
acFont32B_ASCII_0061    0x0806d378    0x40  Data  Lc  F32B_ASCII.o [3]
acFont32B_ASCII_0062    0x0806d3b8    0x60  Data  Lc  F32B_ASCII.o [3]
acFont32B_ASCII_0063    0x0806d418    0x40  Data  Lc  F32B_ASCII.o [3]
acFont32B_ASCII_0064    0x0806d458    0x60  Data  Lc  F32B_ASCII.o [3]
acFont32B_ASCII_0065    0x0806d4b8    0x40  Data  Lc  F32B_ASCII.o [3]
acFont32B_ASCII_0066    0x0806d4f8    0x40  Data  Lc  F32B_ASCII.o [3]
acFont32B_ASCII_0067    0x0806d538    0x60  Data  Lc  F32B_ASCII.o [3]
acFont32B_ASCII_0068    0x0806d598    0x60  Data  Lc  F32B_ASCII.o [3]
acFont32B_ASCII_0069    0x0806d5f8    0x20  Data  Lc  F32B_ASCII.o [3]
acFont32B_ASCII_006A    0x0806d618    0x20  Data  Lc  F32B_ASCII.o [3]
acFont32B_ASCII_006B    0x0806d638    0x40  Data  Lc  F32B_ASCII.o [3]
acFont32B_ASCII_006C    0x0806d678    0x20  Data  Lc  F32B_ASCII.o [3]
acFont32B_ASCII_006D    0x0806d698    0x80  Data  Lc  F32B_ASCII.o [3]
acFont32B_ASCII_006E    0x0806d718    0x60  Data  Lc  F32B_ASCII.o [3]
acFont32B_ASCII_006F    0x0806d778    0x60  Data  Lc  F32B_ASCII.o [3]
acFont32B_ASCII_0070    0x0806d7d8    0x60  Data  Lc  F32B_ASCII.o [3]
acFont32B_ASCII_0071    0x0806d838    0x60  Data  Lc  F32B_ASCII.o [3]
acFont32B_ASCII_0072    0x0806d898    0x40  Data  Lc  F32B_ASCII.o [3]
acFont32B_ASCII_0073    0x0806d8d8    0x40  Data  Lc  F32B_ASCII.o [3]
acFont32B_ASCII_0074    0x0806d918    0x40  Data  Lc  F32B_ASCII.o [3]
acFont32B_ASCII_0075    0x0806d958    0x60  Data  Lc  F32B_ASCII.o [3]
acFont32B_ASCII_0076    0x0806d9b8    0x40  Data  Lc  F32B_ASCII.o [3]
acFont32B_ASCII_0077    0x0806d9f8    0x60  Data  Lc  F32B_ASCII.o [3]
acFont32B_ASCII_0078    0x0806da58    0x40  Data  Lc  F32B_ASCII.o [3]
acFont32B_ASCII_0079    0x0806da98    0x40  Data  Lc  F32B_ASCII.o [3]
acFont32B_ASCII_007A    0x0806dad8    0x40  Data  Lc  F32B_ASCII.o [3]
acFont32B_ASCII_007B    0x0806db18    0x40  Data  Lc  F32B_ASCII.o [3]
acFont32B_ASCII_007C    0x0806db58    0x20  Data  Lc  F32B_ASCII.o [3]
acFont32B_ASCII_007D    0x0806db78    0x40  Data  Lc  F32B_ASCII.o [3]
acFont32B_ASCII_007E    0x0806dbb8    0x40  Data  Lc  F32B_ASCII.o [3]
acFont32_ASCII_0020     0x0806df20    0x20  Data  Lc  F32_ASCII.o [3]
acFont32_ASCII_0021     0x0806df40    0x20  Data  Lc  F32_ASCII.o [3]
acFont32_ASCII_0022     0x0806df60    0x40  Data  Lc  F32_ASCII.o [3]
acFont32_ASCII_0023     0x0806dfa0    0x40  Data  Lc  F32_ASCII.o [3]
acFont32_ASCII_0024     0x0806dfe0    0x40  Data  Lc  F32_ASCII.o [3]
acFont32_ASCII_0025     0x0806e020    0x60  Data  Lc  F32_ASCII.o [3]
acFont32_ASCII_0026     0x0806e080    0x60  Data  Lc  F32_ASCII.o [3]
acFont32_ASCII_0027     0x0806e0e0    0x20  Data  Lc  F32_ASCII.o [3]
acFont32_ASCII_0028     0x0806e100    0x40  Data  Lc  F32_ASCII.o [3]
acFont32_ASCII_0029     0x0806e140    0x40  Data  Lc  F32_ASCII.o [3]
acFont32_ASCII_002A     0x0806e180    0x40  Data  Lc  F32_ASCII.o [3]
acFont32_ASCII_002B     0x0806e1c0    0x40  Data  Lc  F32_ASCII.o [3]
acFont32_ASCII_002C     0x0806e200    0x20  Data  Lc  F32_ASCII.o [3]
acFont32_ASCII_002D     0x0806e220    0x40  Data  Lc  F32_ASCII.o [3]
acFont32_ASCII_002E     0x0806e260    0x20  Data  Lc  F32_ASCII.o [3]
acFont32_ASCII_002F     0x0806e280    0x20  Data  Lc  F32_ASCII.o [3]
acFont32_ASCII_0030     0x0806e2a0    0x40  Data  Lc  F32_ASCII.o [3]
acFont32_ASCII_0031     0x0806e2e0    0x40  Data  Lc  F32_ASCII.o [3]
acFont32_ASCII_0032     0x0806e320    0x40  Data  Lc  F32_ASCII.o [3]
acFont32_ASCII_0033     0x0806e360    0x40  Data  Lc  F32_ASCII.o [3]
acFont32_ASCII_0034     0x0806e3a0    0x40  Data  Lc  F32_ASCII.o [3]
acFont32_ASCII_0035     0x0806e3e0    0x40  Data  Lc  F32_ASCII.o [3]
acFont32_ASCII_0036     0x0806e420    0x40  Data  Lc  F32_ASCII.o [3]
acFont32_ASCII_0037     0x0806e460    0x40  Data  Lc  F32_ASCII.o [3]
acFont32_ASCII_0038     0x0806e4a0    0x40  Data  Lc  F32_ASCII.o [3]
acFont32_ASCII_0039     0x0806e4e0    0x40  Data  Lc  F32_ASCII.o [3]
acFont32_ASCII_003A     0x0806e520    0x20  Data  Lc  F32_ASCII.o [3]
acFont32_ASCII_003B     0x0806e540    0x20  Data  Lc  F32_ASCII.o [3]
acFont32_ASCII_003C     0x0806e560    0x40  Data  Lc  F32_ASCII.o [3]
acFont32_ASCII_003D     0x0806e5a0    0x40  Data  Lc  F32_ASCII.o [3]
acFont32_ASCII_003E     0x0806e5e0    0x40  Data  Lc  F32_ASCII.o [3]
acFont32_ASCII_003F     0x0806e620    0x40  Data  Lc  F32_ASCII.o [3]
acFont32_ASCII_0040     0x0806e660    0x80  Data  Lc  F32_ASCII.o [3]
acFont32_ASCII_0041     0x0806e6e0    0x60  Data  Lc  F32_ASCII.o [3]
acFont32_ASCII_0042     0x0806e740    0x60  Data  Lc  F32_ASCII.o [3]
acFont32_ASCII_0043     0x0806e7a0    0x60  Data  Lc  F32_ASCII.o [3]
acFont32_ASCII_0044     0x0806e800    0x60  Data  Lc  F32_ASCII.o [3]
acFont32_ASCII_0045     0x0806e860    0x60  Data  Lc  F32_ASCII.o [3]
acFont32_ASCII_0046     0x0806e8c0    0x60  Data  Lc  F32_ASCII.o [3]
acFont32_ASCII_0047     0x0806e920    0x60  Data  Lc  F32_ASCII.o [3]
acFont32_ASCII_0048     0x0806e980    0x60  Data  Lc  F32_ASCII.o [3]
acFont32_ASCII_0049     0x0806e9e0    0x20  Data  Lc  F32_ASCII.o [3]
acFont32_ASCII_004A     0x0806ea00    0x40  Data  Lc  F32_ASCII.o [3]
acFont32_ASCII_004B     0x0806ea40    0x60  Data  Lc  F32_ASCII.o [3]
acFont32_ASCII_004C     0x0806eaa0    0x40  Data  Lc  F32_ASCII.o [3]
acFont32_ASCII_004D     0x0806eae0    0x60  Data  Lc  F32_ASCII.o [3]
acFont32_ASCII_004E     0x0806eb40    0x60  Data  Lc  F32_ASCII.o [3]
acFont32_ASCII_004F     0x0806eba0    0x60  Data  Lc  F32_ASCII.o [3]
acFont32_ASCII_0050     0x0806ec00    0x60  Data  Lc  F32_ASCII.o [3]
acFont32_ASCII_0051     0x0806ec60    0x60  Data  Lc  F32_ASCII.o [3]
acFont32_ASCII_0052     0x0806ecc0    0x60  Data  Lc  F32_ASCII.o [3]
acFont32_ASCII_0053     0x0806ed20    0x60  Data  Lc  F32_ASCII.o [3]
acFont32_ASCII_0054     0x0806ed80    0x40  Data  Lc  F32_ASCII.o [3]
acFont32_ASCII_0055     0x0806edc0    0x60  Data  Lc  F32_ASCII.o [3]
acFont32_ASCII_0056     0x0806ee20    0x60  Data  Lc  F32_ASCII.o [3]
acFont32_ASCII_0057     0x0806ee80    0x80  Data  Lc  F32_ASCII.o [3]
acFont32_ASCII_0058     0x0806ef00    0x60  Data  Lc  F32_ASCII.o [3]
acFont32_ASCII_0059     0x0806ef60    0x60  Data  Lc  F32_ASCII.o [3]
acFont32_ASCII_005A     0x0806efc0    0x60  Data  Lc  F32_ASCII.o [3]
acFont32_ASCII_005B     0x0806f020    0x20  Data  Lc  F32_ASCII.o [3]
acFont32_ASCII_005C     0x0806f040    0x20  Data  Lc  F32_ASCII.o [3]
acFont32_ASCII_005D     0x0806f060    0x20  Data  Lc  F32_ASCII.o [3]
acFont32_ASCII_005E     0x0806f080    0x40  Data  Lc  F32_ASCII.o [3]
acFont32_ASCII_005F     0x0806f0c0    0x40  Data  Lc  F32_ASCII.o [3]
acFont32_ASCII_0060     0x0806f100    0x40  Data  Lc  F32_ASCII.o [3]
acFont32_ASCII_0061     0x0806f140    0x40  Data  Lc  F32_ASCII.o [3]
acFont32_ASCII_0062     0x0806f180    0x40  Data  Lc  F32_ASCII.o [3]
acFont32_ASCII_0063     0x0806f1c0    0x40  Data  Lc  F32_ASCII.o [3]
acFont32_ASCII_0064     0x0806f200    0x40  Data  Lc  F32_ASCII.o [3]
acFont32_ASCII_0065     0x0806f240    0x40  Data  Lc  F32_ASCII.o [3]
acFont32_ASCII_0066     0x0806f280    0x20  Data  Lc  F32_ASCII.o [3]
acFont32_ASCII_0067     0x0806f2a0    0x40  Data  Lc  F32_ASCII.o [3]
acFont32_ASCII_0068     0x0806f2e0    0x40  Data  Lc  F32_ASCII.o [3]
acFont32_ASCII_0069     0x0806f320    0x20  Data  Lc  F32_ASCII.o [3]
acFont32_ASCII_006A     0x0806f340    0x20  Data  Lc  F32_ASCII.o [3]
acFont32_ASCII_006B     0x0806f360    0x40  Data  Lc  F32_ASCII.o [3]
acFont32_ASCII_006C     0x0806f3a0    0x20  Data  Lc  F32_ASCII.o [3]
acFont32_ASCII_006D     0x0806f3c0    0x60  Data  Lc  F32_ASCII.o [3]
acFont32_ASCII_006E     0x0806f420    0x40  Data  Lc  F32_ASCII.o [3]
acFont32_ASCII_006F     0x0806f460    0x40  Data  Lc  F32_ASCII.o [3]
acFont32_ASCII_0070     0x0806f4a0    0x40  Data  Lc  F32_ASCII.o [3]
acFont32_ASCII_0071     0x0806f4e0    0x40  Data  Lc  F32_ASCII.o [3]
acFont32_ASCII_0072     0x0806f520    0x40  Data  Lc  F32_ASCII.o [3]
acFont32_ASCII_0073     0x0806f560    0x40  Data  Lc  F32_ASCII.o [3]
acFont32_ASCII_0074     0x0806f5a0    0x20  Data  Lc  F32_ASCII.o [3]
acFont32_ASCII_0075     0x0806f5c0    0x40  Data  Lc  F32_ASCII.o [3]
acFont32_ASCII_0076     0x0806f600    0x40  Data  Lc  F32_ASCII.o [3]
acFont32_ASCII_0077     0x0806f640    0x60  Data  Lc  F32_ASCII.o [3]
acFont32_ASCII_0078     0x0806f6a0    0x40  Data  Lc  F32_ASCII.o [3]
acFont32_ASCII_0079     0x0806f6e0    0x40  Data  Lc  F32_ASCII.o [3]
acFont32_ASCII_007A     0x0806f720    0x40  Data  Lc  F32_ASCII.o [3]
acFont32_ASCII_007B     0x0806f760    0x40  Data  Lc  F32_ASCII.o [3]
acFont32_ASCII_007C     0x0806f7a0    0x20  Data  Lc  F32_ASCII.o [3]
acFont32_ASCII_007D     0x0806f7c0    0x40  Data  Lc  F32_ASCII.o [3]
acFont32_ASCII_007E     0x0806f800    0x40  Data  Lc  F32_ASCII.o [3]
acGUI_Font20B_ASCII_0020
                        0x0808e6bc    0x14  Data  Lc  F20B_ASCII.o [3]
acGUI_Font20B_ASCII_0021
                        0x0808e6d0    0x14  Data  Lc  F20B_ASCII.o [3]
acGUI_Font20B_ASCII_0022
                        0x0808e6e4    0x28  Data  Lc  F20B_ASCII.o [3]
acGUI_Font20B_ASCII_0023
                        0x0808e70c    0x28  Data  Lc  F20B_ASCII.o [3]
acGUI_Font20B_ASCII_0024
                        0x0808e734    0x28  Data  Lc  F20B_ASCII.o [3]
acGUI_Font20B_ASCII_0025
                        0x0808e75c    0x3c  Data  Lc  F20B_ASCII.o [3]
acGUI_Font20B_ASCII_0026
                        0x0808e798    0x28  Data  Lc  F20B_ASCII.o [3]
acGUI_Font20B_ASCII_0027
                        0x0808e7c0    0x14  Data  Lc  F20B_ASCII.o [3]
acGUI_Font20B_ASCII_0028
                        0x0808e7d4    0x14  Data  Lc  F20B_ASCII.o [3]
acGUI_Font20B_ASCII_0029
                        0x0808e7e8    0x14  Data  Lc  F20B_ASCII.o [3]
acGUI_Font20B_ASCII_002A
                        0x0808e7fc    0x14  Data  Lc  F20B_ASCII.o [3]
acGUI_Font20B_ASCII_002B
                        0x0808e810    0x28  Data  Lc  F20B_ASCII.o [3]
acGUI_Font20B_ASCII_002C
                        0x0808e838    0x14  Data  Lc  F20B_ASCII.o [3]
acGUI_Font20B_ASCII_002D
                        0x0808e84c    0x14  Data  Lc  F20B_ASCII.o [3]
acGUI_Font20B_ASCII_002E
                        0x0808e860    0x14  Data  Lc  F20B_ASCII.o [3]
acGUI_Font20B_ASCII_002F
                        0x0808e874    0x14  Data  Lc  F20B_ASCII.o [3]
acGUI_Font20B_ASCII_0030
                        0x0808e888    0x28  Data  Lc  F20B_ASCII.o [3]
acGUI_Font20B_ASCII_0031
                        0x0808e8b0    0x28  Data  Lc  F20B_ASCII.o [3]
acGUI_Font20B_ASCII_0032
                        0x0808e8d8    0x28  Data  Lc  F20B_ASCII.o [3]
acGUI_Font20B_ASCII_0033
                        0x0808e900    0x28  Data  Lc  F20B_ASCII.o [3]
acGUI_Font20B_ASCII_0034
                        0x0808e928    0x28  Data  Lc  F20B_ASCII.o [3]
acGUI_Font20B_ASCII_0035
                        0x0808e950    0x28  Data  Lc  F20B_ASCII.o [3]
acGUI_Font20B_ASCII_0036
                        0x0808e978    0x28  Data  Lc  F20B_ASCII.o [3]
acGUI_Font20B_ASCII_0037
                        0x0808e9a0    0x28  Data  Lc  F20B_ASCII.o [3]
acGUI_Font20B_ASCII_0038
                        0x0808e9c8    0x28  Data  Lc  F20B_ASCII.o [3]
acGUI_Font20B_ASCII_0039
                        0x0808e9f0    0x28  Data  Lc  F20B_ASCII.o [3]
acGUI_Font20B_ASCII_003A
                        0x0808ea18    0x14  Data  Lc  F20B_ASCII.o [3]
acGUI_Font20B_ASCII_003B
                        0x0808ea2c    0x14  Data  Lc  F20B_ASCII.o [3]
acGUI_Font20B_ASCII_003C
                        0x0808ea40    0x28  Data  Lc  F20B_ASCII.o [3]
acGUI_Font20B_ASCII_003D
                        0x0808ea68    0x28  Data  Lc  F20B_ASCII.o [3]
acGUI_Font20B_ASCII_003E
                        0x0808ea90    0x28  Data  Lc  F20B_ASCII.o [3]
acGUI_Font20B_ASCII_003F
                        0x0808eab8    0x28  Data  Lc  F20B_ASCII.o [3]
acGUI_Font20B_ASCII_0040
                        0x0808eae0    0x3c  Data  Lc  F20B_ASCII.o [3]
acGUI_Font20B_ASCII_0041
                        0x0808eb1c    0x28  Data  Lc  F20B_ASCII.o [3]
acGUI_Font20B_ASCII_0042
                        0x0808eb44    0x28  Data  Lc  F20B_ASCII.o [3]
acGUI_Font20B_ASCII_0043
                        0x0808eb6c    0x28  Data  Lc  F20B_ASCII.o [3]
acGUI_Font20B_ASCII_0044
                        0x0808eb94    0x28  Data  Lc  F20B_ASCII.o [3]
acGUI_Font20B_ASCII_0045
                        0x0808ebbc    0x28  Data  Lc  F20B_ASCII.o [3]
acGUI_Font20B_ASCII_0046
                        0x0808ebe4    0x28  Data  Lc  F20B_ASCII.o [3]
acGUI_Font20B_ASCII_0047
                        0x0808ec0c    0x28  Data  Lc  F20B_ASCII.o [3]
acGUI_Font20B_ASCII_0048
                        0x0808ec34    0x28  Data  Lc  F20B_ASCII.o [3]
acGUI_Font20B_ASCII_0049
                        0x0808ec5c    0x14  Data  Lc  F20B_ASCII.o [3]
acGUI_Font20B_ASCII_004A
                        0x0808ec70    0x28  Data  Lc  F20B_ASCII.o [3]
acGUI_Font20B_ASCII_004B
                        0x0808ec98    0x28  Data  Lc  F20B_ASCII.o [3]
acGUI_Font20B_ASCII_004C
                        0x0808ecc0    0x28  Data  Lc  F20B_ASCII.o [3]
acGUI_Font20B_ASCII_004D
                        0x0808ece8    0x28  Data  Lc  F20B_ASCII.o [3]
acGUI_Font20B_ASCII_004E
                        0x0808ed10    0x28  Data  Lc  F20B_ASCII.o [3]
acGUI_Font20B_ASCII_004F
                        0x0808ed38    0x28  Data  Lc  F20B_ASCII.o [3]
acGUI_Font20B_ASCII_0050
                        0x0808ed60    0x28  Data  Lc  F20B_ASCII.o [3]
acGUI_Font20B_ASCII_0051
                        0x0808ed88    0x28  Data  Lc  F20B_ASCII.o [3]
acGUI_Font20B_ASCII_0052
                        0x0808edb0    0x28  Data  Lc  F20B_ASCII.o [3]
acGUI_Font20B_ASCII_0053
                        0x0808edd8    0x28  Data  Lc  F20B_ASCII.o [3]
acGUI_Font20B_ASCII_0054
                        0x0808ee00    0x28  Data  Lc  F20B_ASCII.o [3]
acGUI_Font20B_ASCII_0055
                        0x0808ee28    0x28  Data  Lc  F20B_ASCII.o [3]
acGUI_Font20B_ASCII_0056
                        0x0808ee50    0x28  Data  Lc  F20B_ASCII.o [3]
acGUI_Font20B_ASCII_0057
                        0x0808ee78    0x3c  Data  Lc  F20B_ASCII.o [3]
acGUI_Font20B_ASCII_0058
                        0x0808eeb4    0x28  Data  Lc  F20B_ASCII.o [3]
acGUI_Font20B_ASCII_0059
                        0x0808eedc    0x28  Data  Lc  F20B_ASCII.o [3]
acGUI_Font20B_ASCII_005A
                        0x0808ef04    0x28  Data  Lc  F20B_ASCII.o [3]
acGUI_Font20B_ASCII_005B
                        0x0808ef2c    0x14  Data  Lc  F20B_ASCII.o [3]
acGUI_Font20B_ASCII_005C
                        0x0808ef40    0x14  Data  Lc  F20B_ASCII.o [3]
acGUI_Font20B_ASCII_005D
                        0x0808ef54    0x14  Data  Lc  F20B_ASCII.o [3]
acGUI_Font20B_ASCII_005E
                        0x0808ef68    0x28  Data  Lc  F20B_ASCII.o [3]
acGUI_Font20B_ASCII_005F
                        0x0808ef90    0x28  Data  Lc  F20B_ASCII.o [3]
acGUI_Font20B_ASCII_0060
                        0x0808efb8    0x14  Data  Lc  F20B_ASCII.o [3]
acGUI_Font20B_ASCII_0061
                        0x0808efcc    0x28  Data  Lc  F20B_ASCII.o [3]
acGUI_Font20B_ASCII_0062
                        0x0808eff4    0x28  Data  Lc  F20B_ASCII.o [3]
acGUI_Font20B_ASCII_0063
                        0x0808f01c    0x28  Data  Lc  F20B_ASCII.o [3]
acGUI_Font20B_ASCII_0064
                        0x0808f044    0x28  Data  Lc  F20B_ASCII.o [3]
acGUI_Font20B_ASCII_0065
                        0x0808f06c    0x28  Data  Lc  F20B_ASCII.o [3]
acGUI_Font20B_ASCII_0066
                        0x0808f094    0x14  Data  Lc  F20B_ASCII.o [3]
acGUI_Font20B_ASCII_0067
                        0x0808f0a8    0x28  Data  Lc  F20B_ASCII.o [3]
acGUI_Font20B_ASCII_0068
                        0x0808f0d0    0x28  Data  Lc  F20B_ASCII.o [3]
acGUI_Font20B_ASCII_0069
                        0x0808f0f8    0x14  Data  Lc  F20B_ASCII.o [3]
acGUI_Font20B_ASCII_006A
                        0x0808f10c    0x14  Data  Lc  F20B_ASCII.o [3]
acGUI_Font20B_ASCII_006B
                        0x0808f120    0x28  Data  Lc  F20B_ASCII.o [3]
acGUI_Font20B_ASCII_006C
                        0x0808f148    0x14  Data  Lc  F20B_ASCII.o [3]
acGUI_Font20B_ASCII_006D
                        0x0808f15c    0x3c  Data  Lc  F20B_ASCII.o [3]
acGUI_Font20B_ASCII_006E
                        0x0808f198    0x28  Data  Lc  F20B_ASCII.o [3]
acGUI_Font20B_ASCII_006F
                        0x0808f1c0    0x28  Data  Lc  F20B_ASCII.o [3]
acGUI_Font20B_ASCII_0070
                        0x0808f1e8    0x28  Data  Lc  F20B_ASCII.o [3]
acGUI_Font20B_ASCII_0071
                        0x0808f210    0x28  Data  Lc  F20B_ASCII.o [3]
acGUI_Font20B_ASCII_0072
                        0x0808f238    0x14  Data  Lc  F20B_ASCII.o [3]
acGUI_Font20B_ASCII_0073
                        0x0808f24c    0x28  Data  Lc  F20B_ASCII.o [3]
acGUI_Font20B_ASCII_0074
                        0x0808f274    0x14  Data  Lc  F20B_ASCII.o [3]
acGUI_Font20B_ASCII_0075
                        0x0808f288    0x28  Data  Lc  F20B_ASCII.o [3]
acGUI_Font20B_ASCII_0076
                        0x0808f2b0    0x28  Data  Lc  F20B_ASCII.o [3]
acGUI_Font20B_ASCII_0077
                        0x0808f2d8    0x28  Data  Lc  F20B_ASCII.o [3]
acGUI_Font20B_ASCII_0078
                        0x0808f300    0x28  Data  Lc  F20B_ASCII.o [3]
acGUI_Font20B_ASCII_0079
                        0x0808f328    0x28  Data  Lc  F20B_ASCII.o [3]
acGUI_Font20B_ASCII_007A
                        0x0808f350    0x28  Data  Lc  F20B_ASCII.o [3]
acGUI_Font20B_ASCII_007B
                        0x0808f378    0x14  Data  Lc  F20B_ASCII.o [3]
acGUI_Font20B_ASCII_007C
                        0x0808f38c    0x14  Data  Lc  F20B_ASCII.o [3]
acGUI_Font20B_ASCII_007D
                        0x0808f3a0    0x14  Data  Lc  F20B_ASCII.o [3]
acGUI_Font20B_ASCII_007E
                        0x0808f3b4    0x28  Data  Lc  F20B_ASCII.o [3]
acGUI_Font20_ASCII_0020
                        0x0808f704    0x14  Data  Lc  F20_ASCII.o [3]
acGUI_Font20_ASCII_0021
                        0x0808f718    0x14  Data  Lc  F20_ASCII.o [3]
acGUI_Font20_ASCII_0022
                        0x0808f72c    0x14  Data  Lc  F20_ASCII.o [3]
acGUI_Font20_ASCII_0023
                        0x0808f740    0x28  Data  Lc  F20_ASCII.o [3]
acGUI_Font20_ASCII_0024
                        0x0808f768    0x28  Data  Lc  F20_ASCII.o [3]
acGUI_Font20_ASCII_0025
                        0x0808f790    0x28  Data  Lc  F20_ASCII.o [3]
acGUI_Font20_ASCII_0026
                        0x0808f7b8    0x28  Data  Lc  F20_ASCII.o [3]
acGUI_Font20_ASCII_0027
                        0x0808f7e0    0x14  Data  Lc  F20_ASCII.o [3]
acGUI_Font20_ASCII_0028
                        0x0808f7f4    0x14  Data  Lc  F20_ASCII.o [3]
acGUI_Font20_ASCII_0029
                        0x0808f808    0x14  Data  Lc  F20_ASCII.o [3]
acGUI_Font20_ASCII_002A
                        0x0808f81c    0x14  Data  Lc  F20_ASCII.o [3]
acGUI_Font20_ASCII_002B
                        0x0808f830    0x28  Data  Lc  F20_ASCII.o [3]
acGUI_Font20_ASCII_002C
                        0x0808f858    0x14  Data  Lc  F20_ASCII.o [3]
acGUI_Font20_ASCII_002D
                        0x0808f86c    0x14  Data  Lc  F20_ASCII.o [3]
acGUI_Font20_ASCII_002E
                        0x0808f880    0x14  Data  Lc  F20_ASCII.o [3]
acGUI_Font20_ASCII_002F
                        0x0808f894    0x14  Data  Lc  F20_ASCII.o [3]
acGUI_Font20_ASCII_0030
                        0x0808f8a8    0x28  Data  Lc  F20_ASCII.o [3]
acGUI_Font20_ASCII_0031
                        0x0808f8d0    0x28  Data  Lc  F20_ASCII.o [3]
acGUI_Font20_ASCII_0032
                        0x0808f8f8    0x28  Data  Lc  F20_ASCII.o [3]
acGUI_Font20_ASCII_0033
                        0x0808f920    0x28  Data  Lc  F20_ASCII.o [3]
acGUI_Font20_ASCII_0034
                        0x0808f948    0x28  Data  Lc  F20_ASCII.o [3]
acGUI_Font20_ASCII_0035
                        0x0808f970    0x28  Data  Lc  F20_ASCII.o [3]
acGUI_Font20_ASCII_0036
                        0x0808f998    0x28  Data  Lc  F20_ASCII.o [3]
acGUI_Font20_ASCII_0037
                        0x0808f9c0    0x28  Data  Lc  F20_ASCII.o [3]
acGUI_Font20_ASCII_0038
                        0x0808f9e8    0x28  Data  Lc  F20_ASCII.o [3]
acGUI_Font20_ASCII_0039
                        0x0808fa10    0x28  Data  Lc  F20_ASCII.o [3]
acGUI_Font20_ASCII_003A
                        0x0808fa38    0x14  Data  Lc  F20_ASCII.o [3]
acGUI_Font20_ASCII_003B
                        0x0808fa4c    0x14  Data  Lc  F20_ASCII.o [3]
acGUI_Font20_ASCII_003C
                        0x0808fa60    0x28  Data  Lc  F20_ASCII.o [3]
acGUI_Font20_ASCII_003D
                        0x0808fa88    0x28  Data  Lc  F20_ASCII.o [3]
acGUI_Font20_ASCII_003E
                        0x0808fab0    0x28  Data  Lc  F20_ASCII.o [3]
acGUI_Font20_ASCII_003F
                        0x0808fad8    0x28  Data  Lc  F20_ASCII.o [3]
acGUI_Font20_ASCII_0040
                        0x0808fb00    0x3c  Data  Lc  F20_ASCII.o [3]
acGUI_Font20_ASCII_0041
                        0x0808fb3c    0x28  Data  Lc  F20_ASCII.o [3]
acGUI_Font20_ASCII_0042
                        0x0808fb64    0x28  Data  Lc  F20_ASCII.o [3]
acGUI_Font20_ASCII_0043
                        0x0808fb8c    0x28  Data  Lc  F20_ASCII.o [3]
acGUI_Font20_ASCII_0044
                        0x0808fbb4    0x28  Data  Lc  F20_ASCII.o [3]
acGUI_Font20_ASCII_0045
                        0x0808fbdc    0x28  Data  Lc  F20_ASCII.o [3]
acGUI_Font20_ASCII_0046
                        0x0808fc04    0x28  Data  Lc  F20_ASCII.o [3]
acGUI_Font20_ASCII_0047
                        0x0808fc2c    0x28  Data  Lc  F20_ASCII.o [3]
acGUI_Font20_ASCII_0048
                        0x0808fc54    0x28  Data  Lc  F20_ASCII.o [3]
acGUI_Font20_ASCII_0049
                        0x0808fc7c    0x14  Data  Lc  F20_ASCII.o [3]
acGUI_Font20_ASCII_004A
                        0x0808fc90    0x28  Data  Lc  F20_ASCII.o [3]
acGUI_Font20_ASCII_004B
                        0x0808fcb8    0x28  Data  Lc  F20_ASCII.o [3]
acGUI_Font20_ASCII_004C
                        0x0808fce0    0x28  Data  Lc  F20_ASCII.o [3]
acGUI_Font20_ASCII_004D
                        0x0808fd08    0x28  Data  Lc  F20_ASCII.o [3]
acGUI_Font20_ASCII_004E
                        0x0808fd30    0x28  Data  Lc  F20_ASCII.o [3]
acGUI_Font20_ASCII_004F
                        0x0808fd58    0x28  Data  Lc  F20_ASCII.o [3]
acGUI_Font20_ASCII_0050
                        0x0808fd80    0x28  Data  Lc  F20_ASCII.o [3]
acGUI_Font20_ASCII_0051
                        0x0808fda8    0x28  Data  Lc  F20_ASCII.o [3]
acGUI_Font20_ASCII_0052
                        0x0808fdd0    0x28  Data  Lc  F20_ASCII.o [3]
acGUI_Font20_ASCII_0053
                        0x0808fdf8    0x28  Data  Lc  F20_ASCII.o [3]
acGUI_Font20_ASCII_0054
                        0x0808fe20    0x28  Data  Lc  F20_ASCII.o [3]
acGUI_Font20_ASCII_0055
                        0x0808fe48    0x28  Data  Lc  F20_ASCII.o [3]
acGUI_Font20_ASCII_0056
                        0x0808fe70    0x28  Data  Lc  F20_ASCII.o [3]
acGUI_Font20_ASCII_0057
                        0x0808fe98    0x3c  Data  Lc  F20_ASCII.o [3]
acGUI_Font20_ASCII_0058
                        0x0808fed4    0x28  Data  Lc  F20_ASCII.o [3]
acGUI_Font20_ASCII_0059
                        0x0808fefc    0x28  Data  Lc  F20_ASCII.o [3]
acGUI_Font20_ASCII_005A
                        0x0808ff24    0x28  Data  Lc  F20_ASCII.o [3]
acGUI_Font20_ASCII_005B
                        0x0808ff4c    0x14  Data  Lc  F20_ASCII.o [3]
acGUI_Font20_ASCII_005C
                        0x0808ff60    0x14  Data  Lc  F20_ASCII.o [3]
acGUI_Font20_ASCII_005D
                        0x0808ff74    0x14  Data  Lc  F20_ASCII.o [3]
acGUI_Font20_ASCII_005E
                        0x0808ff88    0x14  Data  Lc  F20_ASCII.o [3]
acGUI_Font20_ASCII_005F
                        0x0808ff9c    0x28  Data  Lc  F20_ASCII.o [3]
acGUI_Font20_ASCII_0060
                        0x0808ffc4    0x14  Data  Lc  F20_ASCII.o [3]
acGUI_Font20_ASCII_0061
                        0x0808ffd8    0x28  Data  Lc  F20_ASCII.o [3]
acGUI_Font20_ASCII_0062
                        0x08090000    0x28  Data  Lc  F20_ASCII.o [3]
acGUI_Font20_ASCII_0063
                        0x08090028    0x28  Data  Lc  F20_ASCII.o [3]
acGUI_Font20_ASCII_0064
                        0x08090050    0x28  Data  Lc  F20_ASCII.o [3]
acGUI_Font20_ASCII_0065
                        0x08090078    0x28  Data  Lc  F20_ASCII.o [3]
acGUI_Font20_ASCII_0066
                        0x080900a0    0x14  Data  Lc  F20_ASCII.o [3]
acGUI_Font20_ASCII_0067
                        0x080900b4    0x28  Data  Lc  F20_ASCII.o [3]
acGUI_Font20_ASCII_0068
                        0x080900dc    0x28  Data  Lc  F20_ASCII.o [3]
acGUI_Font20_ASCII_0069
                        0x08090104    0x14  Data  Lc  F20_ASCII.o [3]
acGUI_Font20_ASCII_006A
                        0x08090118    0x14  Data  Lc  F20_ASCII.o [3]
acGUI_Font20_ASCII_006B
                        0x0809012c    0x28  Data  Lc  F20_ASCII.o [3]
acGUI_Font20_ASCII_006C
                        0x08090154    0x14  Data  Lc  F20_ASCII.o [3]
acGUI_Font20_ASCII_006D
                        0x08090168    0x28  Data  Lc  F20_ASCII.o [3]
acGUI_Font20_ASCII_006E
                        0x08090190    0x28  Data  Lc  F20_ASCII.o [3]
acGUI_Font20_ASCII_006F
                        0x080901b8    0x28  Data  Lc  F20_ASCII.o [3]
acGUI_Font20_ASCII_0070
                        0x080901e0    0x28  Data  Lc  F20_ASCII.o [3]
acGUI_Font20_ASCII_0071
                        0x08090208    0x28  Data  Lc  F20_ASCII.o [3]
acGUI_Font20_ASCII_0072
                        0x08090230    0x14  Data  Lc  F20_ASCII.o [3]
acGUI_Font20_ASCII_0073
                        0x08090244    0x28  Data  Lc  F20_ASCII.o [3]
acGUI_Font20_ASCII_0074
                        0x0809026c    0x14  Data  Lc  F20_ASCII.o [3]
acGUI_Font20_ASCII_0075
                        0x08090280    0x28  Data  Lc  F20_ASCII.o [3]
acGUI_Font20_ASCII_0076
                        0x080902a8    0x28  Data  Lc  F20_ASCII.o [3]
acGUI_Font20_ASCII_0077
                        0x080902d0    0x28  Data  Lc  F20_ASCII.o [3]
acGUI_Font20_ASCII_0078
                        0x080902f8    0x14  Data  Lc  F20_ASCII.o [3]
acGUI_Font20_ASCII_0079
                        0x0809030c    0x28  Data  Lc  F20_ASCII.o [3]
acGUI_Font20_ASCII_007A
                        0x08090334    0x14  Data  Lc  F20_ASCII.o [3]
acGUI_Font20_ASCII_007B
                        0x08090348    0x14  Data  Lc  F20_ASCII.o [3]
acGUI_Font20_ASCII_007C
                        0x0809035c    0x14  Data  Lc  F20_ASCII.o [3]
acGUI_Font20_ASCII_007D
                        0x08090370    0x14  Data  Lc  F20_ASCII.o [3]
acGUI_Font20_ASCII_007E
                        0x08090384    0x28  Data  Lc  F20_ASCII.o [3]
acGUI_FontLSFont20b__0020
                        0x0803906c    0x10  Data  Gb  LS-Font20b_.o [1]
acGUI_FontLSFont20b__0021
                        0x0803907c    0x10  Data  Gb  LS-Font20b_.o [1]
acGUI_FontLSFont20b__0022
                        0x0803908c     0x4  Data  Gb  LS-Font20b_.o [1]
acGUI_FontLSFont20b__0023
                        0x08039090    0x20  Data  Gb  LS-Font20b_.o [1]
acGUI_FontLSFont20b__0024
                        0x080390b0    0x24  Data  Gb  LS-Font20b_.o [1]
acGUI_FontLSFont20b__0025
                        0x080390d4    0x1c  Data  Gb  LS-Font20b_.o [1]
acGUI_FontLSFont20b__0026
                        0x080390f0    0x20  Data  Gb  LS-Font20b_.o [1]
acGUI_FontLSFont20b__0027
                        0x08039110     0x4  Data  Gb  LS-Font20b_.o [1]
acGUI_FontLSFont20b__0028
                        0x08039114    0x14  Data  Gb  LS-Font20b_.o [1]
acGUI_FontLSFont20b__0029
                        0x08039128    0x14  Data  Gb  LS-Font20b_.o [1]
acGUI_FontLSFont20b__002A
                        0x0803913c     0x8  Data  Gb  LS-Font20b_.o [1]
acGUI_FontLSFont20b__002B
                        0x08039144    0x14  Data  Gb  LS-Font20b_.o [1]
acGUI_FontLSFont20b__002C
                        0x08039158     0x4  Data  Gb  LS-Font20b_.o [1]
acGUI_FontLSFont20b__002D
                        0x0803915c     0x2  Data  Gb  LS-Font20b_.o [1]
acGUI_FontLSFont20b__002E
                        0x0803915e     0x2  Data  Gb  LS-Font20b_.o [1]
acGUI_FontLSFont20b__002F
                        0x08039160    0x24  Data  Gb  LS-Font20b_.o [1]
acGUI_FontLSFont20b__0030
                        0x08039184    0x20  Data  Gb  LS-Font20b_.o [1]
acGUI_FontLSFont20b__0031
                        0x080391a4    0x10  Data  Gb  LS-Font20b_.o [1]
acGUI_FontLSFont20b__0032
                        0x080391b4    0x20  Data  Gb  LS-Font20b_.o [1]
acGUI_FontLSFont20b__0033
                        0x080391d4    0x20  Data  Gb  LS-Font20b_.o [1]
acGUI_FontLSFont20b__0034
                        0x080391f4    0x20  Data  Gb  LS-Font20b_.o [1]
acGUI_FontLSFont20b__0035
                        0x08039214    0x20  Data  Gb  LS-Font20b_.o [1]
acGUI_FontLSFont20b__0036
                        0x08039234    0x20  Data  Gb  LS-Font20b_.o [1]
acGUI_FontLSFont20b__0037
                        0x08039254    0x20  Data  Gb  LS-Font20b_.o [1]
acGUI_FontLSFont20b__0038
                        0x08039274    0x20  Data  Gb  LS-Font20b_.o [1]
acGUI_FontLSFont20b__0039
                        0x08039294    0x20  Data  Gb  LS-Font20b_.o [1]
acGUI_FontLSFont20b__003A
                        0x080392b4     0xc  Data  Gb  LS-Font20b_.o [1]
acGUI_FontLSFont20b__003B
                        0x080392c0     0xc  Data  Gb  LS-Font20b_.o [1]
acGUI_FontLSFont20b__003C
                        0x080392cc    0x20  Data  Gb  LS-Font20b_.o [1]
acGUI_FontLSFont20b__003D
                        0x080392ec     0xc  Data  Gb  LS-Font20b_.o [1]
acGUI_FontLSFont20b__003E
                        0x080392f8    0x20  Data  Gb  LS-Font20b_.o [1]
acGUI_FontLSFont20b__003F
                        0x08039318    0x20  Data  Gb  LS-Font20b_.o [1]
acGUI_FontLSFont20b__0040
                        0x08039338    0x20  Data  Gb  LS-Font20b_.o [1]
acGUI_FontLSFont20b__0041
                        0x08039358    0x20  Data  Gb  LS-Font20b_.o [1]
acGUI_FontLSFont20b__0042
                        0x08039378    0x20  Data  Gb  LS-Font20b_.o [1]
acGUI_FontLSFont20b__0043
                        0x08039398    0x20  Data  Gb  LS-Font20b_.o [1]
acGUI_FontLSFont20b__0044
                        0x080393b8    0x20  Data  Gb  LS-Font20b_.o [1]
acGUI_FontLSFont20b__0045
                        0x080393d8    0x20  Data  Gb  LS-Font20b_.o [1]
acGUI_FontLSFont20b__0046
                        0x080393f8    0x20  Data  Gb  LS-Font20b_.o [1]
acGUI_FontLSFont20b__0047
                        0x08039418    0x20  Data  Gb  LS-Font20b_.o [1]
acGUI_FontLSFont20b__0048
                        0x08039438    0x20  Data  Gb  LS-Font20b_.o [1]
acGUI_FontLSFont20b__0049
                        0x08039458    0x10  Data  Gb  LS-Font20b_.o [1]
acGUI_FontLSFont20b__004A
                        0x08039468    0x10  Data  Gb  LS-Font20b_.o [1]
acGUI_FontLSFont20b__004B
                        0x08039478    0x20  Data  Gb  LS-Font20b_.o [1]
acGUI_FontLSFont20b__004C
                        0x08039498    0x20  Data  Gb  LS-Font20b_.o [1]
acGUI_FontLSFont20b__004D
                        0x080394b8    0x20  Data  Gb  LS-Font20b_.o [1]
acGUI_FontLSFont20b__004E
                        0x080394d8    0x20  Data  Gb  LS-Font20b_.o [1]
acGUI_FontLSFont20b__004F
                        0x080394f8    0x20  Data  Gb  LS-Font20b_.o [1]
acGUI_FontLSFont20b__0050
                        0x08039518    0x20  Data  Gb  LS-Font20b_.o [1]
acGUI_FontLSFont20b__0051
                        0x08039538    0x20  Data  Gb  LS-Font20b_.o [1]
acGUI_FontLSFont20b__0052
                        0x08039558    0x20  Data  Gb  LS-Font20b_.o [1]
acGUI_FontLSFont20b__0053
                        0x08039578    0x20  Data  Gb  LS-Font20b_.o [1]
acGUI_FontLSFont20b__0054
                        0x08039598    0x20  Data  Gb  LS-Font20b_.o [1]
acGUI_FontLSFont20b__0055
                        0x080395b8    0x20  Data  Gb  LS-Font20b_.o [1]
acGUI_FontLSFont20b__0056
                        0x080395d8    0x20  Data  Gb  LS-Font20b_.o [1]
acGUI_FontLSFont20b__0057
                        0x080395f8    0x20  Data  Gb  LS-Font20b_.o [1]
acGUI_FontLSFont20b__0058
                        0x08039618    0x20  Data  Gb  LS-Font20b_.o [1]
acGUI_FontLSFont20b__0059
                        0x08039638    0x20  Data  Gb  LS-Font20b_.o [1]
acGUI_FontLSFont20b__005A
                        0x08039658    0x1c  Data  Gb  LS-Font20b_.o [1]
acGUI_FontLSFont20b__005B
                        0x08039674    0x14  Data  Gb  LS-Font20b_.o [1]
acGUI_FontLSFont20b__005C
                        0x08039688    0x24  Data  Gb  LS-Font20b_.o [1]
acGUI_FontLSFont20b__005D
                        0x080396ac    0x14  Data  Gb  LS-Font20b_.o [1]
acGUI_FontLSFont20b__005E
                        0x080396c0     0xc  Data  Gb  LS-Font20b_.o [1]
acGUI_FontLSFont20b__005F
                        0x080396cc     0x2  Data  Gb  LS-Font20b_.o [1]
acGUI_FontLSFont20b__0060
                        0x080396d0     0x4  Data  Gb  LS-Font20b_.o [1]
acGUI_FontLSFont20b__0061
                        0x080396d4    0x18  Data  Gb  LS-Font20b_.o [1]
acGUI_FontLSFont20b__0062
                        0x080396ec    0x20  Data  Gb  LS-Font20b_.o [1]
acGUI_FontLSFont20b__0063
                        0x0803970c    0x18  Data  Gb  LS-Font20b_.o [1]
acGUI_FontLSFont20b__0064
                        0x08039724    0x20  Data  Gb  LS-Font20b_.o [1]
acGUI_FontLSFont20b__0065
                        0x08039744    0x18  Data  Gb  LS-Font20b_.o [1]
acGUI_FontLSFont20b__0066
                        0x0803975c    0x10  Data  Gb  LS-Font20b_.o [1]
acGUI_FontLSFont20b__0067
                        0x0803976c    0x1c  Data  Gb  LS-Font20b_.o [1]
acGUI_FontLSFont20b__0068
                        0x08039788    0x20  Data  Gb  LS-Font20b_.o [1]
acGUI_FontLSFont20b__0069
                        0x080397a8    0x10  Data  Gb  LS-Font20b_.o [1]
acGUI_FontLSFont20b__006A
                        0x080397b8    0x14  Data  Gb  LS-Font20b_.o [1]
acGUI_FontLSFont20b__006B
                        0x080397cc    0x20  Data  Gb  LS-Font20b_.o [1]
acGUI_FontLSFont20b__006C
                        0x080397ec    0x10  Data  Gb  LS-Font20b_.o [1]
acGUI_FontLSFont20b__006D
                        0x080397fc    0x18  Data  Gb  LS-Font20b_.o [1]
acGUI_FontLSFont20b__006E
                        0x08039814    0x18  Data  Gb  LS-Font20b_.o [1]
acGUI_FontLSFont20b__006F
                        0x0803982c    0x18  Data  Gb  LS-Font20b_.o [1]
acGUI_FontLSFont20b__0070
                        0x08039844    0x1c  Data  Gb  LS-Font20b_.o [1]
acGUI_FontLSFont20b__0071
                        0x08039860    0x1c  Data  Gb  LS-Font20b_.o [1]
acGUI_FontLSFont20b__0072
                        0x0803987c     0xc  Data  Gb  LS-Font20b_.o [1]
acGUI_FontLSFont20b__0073
                        0x08039888    0x18  Data  Gb  LS-Font20b_.o [1]
acGUI_FontLSFont20b__0074
                        0x080398a0    0x10  Data  Gb  LS-Font20b_.o [1]
acGUI_FontLSFont20b__0075
                        0x080398b0    0x18  Data  Gb  LS-Font20b_.o [1]
acGUI_FontLSFont20b__0076
                        0x080398c8    0x18  Data  Gb  LS-Font20b_.o [1]
acGUI_FontLSFont20b__0077
                        0x080398e0    0x18  Data  Gb  LS-Font20b_.o [1]
acGUI_FontLSFont20b__0078
                        0x080398f8    0x18  Data  Gb  LS-Font20b_.o [1]
acGUI_FontLSFont20b__0079
                        0x08039910    0x1c  Data  Gb  LS-Font20b_.o [1]
acGUI_FontLSFont20b__007A
                        0x0803992c    0x14  Data  Gb  LS-Font20b_.o [1]
acGUI_FontLSFont20b__007B
                        0x08039940    0x14  Data  Gb  LS-Font20b_.o [1]
acGUI_FontLSFont20b__007C
                        0x08039954    0x14  Data  Gb  LS-Font20b_.o [1]
acGUI_FontLSFont20b__007D
                        0x08039968    0x14  Data  Gb  LS-Font20b_.o [1]
acGUI_FontLSFont20b__007E
                        0x0803997c     0x4  Data  Gb  LS-Font20b_.o [1]
acGUI_FontLSFont20b__007F
                        0x08039980    0x10  Data  Gb  LS-Font20b_.o [1]
acGUI_FontLSFont20b__00B0
                        0x08039990     0x8  Data  Gb  LS-Font20b_.o [1]
acGUI_FontLSFont20b__0394
                        0x08039998    0x1c  Data  Gb  LS-Font20b_.o [1]
acGUI_FontLSFont20b__2103
                        0x080399b4    0x20  Data  Gb  LS-Font20b_.o [1]
acGUI_FontLSFont20b__2105
                        0x080399d4    0x1c  Data  Gb  LS-Font20b_.o [1]
acGUI_FontLSFont20b__2109
                        0x080399f0    0x20  Data  Gb  LS-Font20b_.o [1]
acGUI_FontLSFont20b__2126
                        0x08039a10    0x1c  Data  Gb  LS-Font20b_.o [1]
acGUI_FontLSFont20b__2160
                        0x08039a2c    0x10  Data  Gb  LS-Font20b_.o [1]
acGUI_FontLSFont20b__2161
                        0x08039a3c    0x10  Data  Gb  LS-Font20b_.o [1]
acGUI_FontLSFont20b__2162
                        0x08039a4c    0x20  Data  Gb  LS-Font20b_.o [1]
acGUI_FontLSFont20b__2163
                        0x08039a6c    0x20  Data  Gb  LS-Font20b_.o [1]
acGUI_FontLSFont20b__2164
                        0x08039a8c    0x20  Data  Gb  LS-Font20b_.o [1]
acGUI_FontLSFont20b__2165
                        0x08039aac    0x20  Data  Gb  LS-Font20b_.o [1]
acGUI_FontLSFont20b__2166
                        0x08039acc    0x20  Data  Gb  LS-Font20b_.o [1]
acGUI_FontLSFont20b__2167
                        0x08039aec    0x20  Data  Gb  LS-Font20b_.o [1]
acGUI_FontLSFont20b__2168
                        0x08039b0c    0x20  Data  Gb  LS-Font20b_.o [1]
acGUI_FontLSFont20b__2169
                        0x08039b2c    0x20  Data  Gb  LS-Font20b_.o [1]
acGUI_FontLSFont20b__2170
                        0x08039b4c    0x10  Data  Gb  LS-Font20b_.o [1]
acGUI_FontLSFont20b__2171
                        0x08039b5c    0x10  Data  Gb  LS-Font20b_.o [1]
acGUI_FontLSFont20b__2172
                        0x08039b6c    0x20  Data  Gb  LS-Font20b_.o [1]
acGUI_FontLSFont20b__2173
                        0x08039b8c    0x20  Data  Gb  LS-Font20b_.o [1]
acGUI_FontLSFont20b__2174
                        0x08039bac     0xc  Data  Gb  LS-Font20b_.o [1]
acGUI_FontLSFont20b__2175
                        0x08039bb8    0x20  Data  Gb  LS-Font20b_.o [1]
acGUI_FontLSFont20b__2176
                        0x08039bd8    0x20  Data  Gb  LS-Font20b_.o [1]
acGUI_FontLSFont20b__2177
                        0x08039bf8    0x20  Data  Gb  LS-Font20b_.o [1]
acGUI_FontLSFont20b__2178
                        0x08039c18    0x20  Data  Gb  LS-Font20b_.o [1]
acGUI_FontLSFont20b__2179
                        0x08039c38    0x18  Data  Gb  LS-Font20b_.o [1]
acGUI_FontLSFont20b__217A
                        0x08039c50    0x20  Data  Gb  LS-Font20b_.o [1]
acGUI_FontLSFont20b__217B
                        0x08039c70    0x20  Data  Gb  LS-Font20b_.o [1]
acGUI_FontLSFont20b__4E00
                        0x08039c90     0x4  Data  Gb  LS-Font20b_.o [1]
acGUI_FontLSFont20b__4E09
                        0x08039c94    0x34  Data  Gb  LS-Font20b_.o [1]
acGUI_FontLSFont20b__4E0A
                        0x08039cc8    0x34  Data  Gb  LS-Font20b_.o [1]
acGUI_FontLSFont20b__4E0B
                        0x08039cfc    0x38  Data  Gb  LS-Font20b_.o [1]
acGUI_FontLSFont20b__4E0D
                        0x08039d34    0x38  Data  Gb  LS-Font20b_.o [1]
acGUI_FontLSFont20b__4E1F
                        0x08039d6c    0x34  Data  Gb  LS-Font20b_.o [1]
acGUI_FontLSFont20b__4E22
                        0x08039da0    0x34  Data  Gb  LS-Font20b_.o [1]
acGUI_FontLSFont20b__4E2D
                        0x08039dd4    0x28  Data  Gb  LS-Font20b_.o [1]
acGUI_FontLSFont20b__4E3B
                        0x08039dfc    0x38  Data  Gb  LS-Font20b_.o [1]
acGUI_FontLSFont20b__4E4F
                        0x08039e34    0x38  Data  Gb  LS-Font20b_.o [1]
acGUI_FontLSFont20b__4E8B
                        0x08039e6c    0x3c  Data  Gb  LS-Font20b_.o [1]
acGUI_FontLSFont20b__4E8E
                        0x08039ea8    0x38  Data  Gb  LS-Font20b_.o [1]
acGUI_FontLSFont20b__4EA4
                        0x08039ee0    0x3c  Data  Gb  LS-Font20b_.o [1]
acGUI_FontLSFont20b__4EA7
                        0x08039f1c    0x38  Data  Gb  LS-Font20b_.o [1]
acGUI_FontLSFont20b__4EAE
                        0x08039f54    0x3c  Data  Gb  LS-Font20b_.o [1]
acGUI_FontLSFont20b__4EBA
                        0x08039f90    0x38  Data  Gb  LS-Font20b_.o [1]
acGUI_FontLSFont20b__4ED6
                        0x08039fc8    0x3c  Data  Gb  LS-Font20b_.o [1]
acGUI_FontLSFont20b__4EE3
                        0x0803a004    0x38  Data  Gb  LS-Font20b_.o [1]
acGUI_FontLSFont20b__4EEA
                        0x0803a03c    0x3c  Data  Gb  LS-Font20b_.o [1]
acGUI_FontLSFont20b__4EF6
                        0x0803a078    0x38  Data  Gb  LS-Font20b_.o [1]
acGUI_FontLSFont20b__4EFB
                        0x0803a0b0    0x3c  Data  Gb  LS-Font20b_.o [1]
acGUI_FontLSFont20b__4F20
                        0x0803a0ec    0x38  Data  Gb  LS-Font20b_.o [1]
acGUI_FontLSFont20b__4F4D
                        0x0803a124    0x3c  Data  Gb  LS-Font20b_.o [1]
acGUI_FontLSFont20b__4F4E
                        0x0803a160    0x38  Data  Gb  LS-Font20b_.o [1]
acGUI_FontLSFont20b__4F59
                        0x0803a198    0x3c  Data  Gb  LS-Font20b_.o [1]
acGUI_FontLSFont20b__4F5C
                        0x0803a1d4    0x38  Data  Gb  LS-Font20b_.o [1]
acGUI_FontLSFont20b__4F60
                        0x0803a20c    0x3c  Data  Gb  LS-Font20b_.o [1]
acGUI_FontLSFont20b__4F7F
                        0x0803a248    0x3c  Data  Gb  LS-Font20b_.o [1]
acGUI_FontLSFont20b__4F9B
                        0x0803a284    0x38  Data  Gb  LS-Font20b_.o [1]
acGUI_FontLSFont20b__4FA7
                        0x0803a2bc    0x38  Data  Gb  LS-Font20b_.o [1]
acGUI_FontLSFont20b__4FC4
                        0x0803a2f4    0x38  Data  Gb  LS-Font20b_.o [1]
acGUI_FontLSFont20b__4FDD
                        0x0803a32c    0x3c  Data  Gb  LS-Font20b_.o [1]
acGUI_FontLSFont20b__4FE1
                        0x0803a368    0x3c  Data  Gb  LS-Font20b_.o [1]
acGUI_FontLSFont20b__5012
                        0x0803a3a4    0x3c  Data  Gb  LS-Font20b_.o [1]
acGUI_FontLSFont20b__503C
                        0x0803a3e0    0x38  Data  Gb  LS-Font20b_.o [1]
acGUI_FontLSFont20b__50A8
                        0x0803a418    0x3c  Data  Gb  LS-Font20b_.o [1]
acGUI_FontLSFont20b__50CF
                        0x0803a454    0x3c  Data  Gb  LS-Font20b_.o [1]
acGUI_FontLSFont20b__5145
                        0x0803a490    0x3c  Data  Gb  LS-Font20b_.o [1]
acGUI_FontLSFont20b__5165
                        0x0803a4cc    0x38  Data  Gb  LS-Font20b_.o [1]
acGUI_FontLSFont20b__5168
                        0x0803a504    0x38  Data  Gb  LS-Font20b_.o [1]
acGUI_FontLSFont20b__516C
                        0x0803a53c    0x3c  Data  Gb  LS-Font20b_.o [1]
acGUI_FontLSFont20b__5171
                        0x0803a578    0x3c  Data  Gb  LS-Font20b_.o [1]
acGUI_FontLSFont20b__5173
                        0x0803a5b4    0x34  Data  Gb  LS-Font20b_.o [1]
acGUI_FontLSFont20b__5176
                        0x0803a5e8    0x38  Data  Gb  LS-Font20b_.o [1]
acGUI_FontLSFont20b__5185
                        0x0803a620    0x3c  Data  Gb  LS-Font20b_.o [1]
acGUI_FontLSFont20b__5199
                        0x0803a65c    0x38  Data  Gb  LS-Font20b_.o [1]
acGUI_FontLSFont20b__51B2
                        0x0803a694    0x38  Data  Gb  LS-Font20b_.o [1]
acGUI_FontLSFont20b__51B7
                        0x0803a6cc    0x38  Data  Gb  LS-Font20b_.o [1]
acGUI_FontLSFont20b__51C6
                        0x0803a704    0x3c  Data  Gb  LS-Font20b_.o [1]
acGUI_FontLSFont20b__51CF
                        0x0803a740    0x38  Data  Gb  LS-Font20b_.o [1]
acGUI_FontLSFont20b__51FA
                        0x0803a778    0x38  Data  Gb  LS-Font20b_.o [1]
acGUI_FontLSFont20b__5206
                        0x0803a7b0    0x38  Data  Gb  LS-Font20b_.o [1]
acGUI_FontLSFont20b__5217
                        0x0803a7e8    0x38  Data  Gb  LS-Font20b_.o [1]
acGUI_FontLSFont20b__521D
                        0x0803a820    0x3c  Data  Gb  LS-Font20b_.o [1]
acGUI_FontLSFont20b__5220
                        0x0803a85c    0x3c  Data  Gb  LS-Font20b_.o [1]
acGUI_FontLSFont20b__5230
                        0x0803a898    0x3c  Data  Gb  LS-Font20b_.o [1]
acGUI_FontLSFont20b__5236
                        0x0803a8d4    0x3c  Data  Gb  LS-Font20b_.o [1]
acGUI_FontLSFont20b__524D
                        0x0803a910    0x3c  Data  Gb  LS-Font20b_.o [1]
acGUI_FontLSFont20b__5269
                        0x0803a94c    0x38  Data  Gb  LS-Font20b_.o [1]
acGUI_FontLSFont20b__5273
                        0x0803a984    0x38  Data  Gb  LS-Font20b_.o [1]
acGUI_FontLSFont20b__529F
                        0x0803a9bc    0x38  Data  Gb  LS-Font20b_.o [1]
acGUI_FontLSFont20b__52A0
                        0x0803a9f4    0x38  Data  Gb  LS-Font20b_.o [1]
acGUI_FontLSFont20b__52A8
                        0x0803aa2c    0x38  Data  Gb  LS-Font20b_.o [1]
acGUI_FontLSFont20b__52B1
                        0x0803aa64    0x38  Data  Gb  LS-Font20b_.o [1]
acGUI_FontLSFont20b__5316
                        0x0803aa9c    0x38  Data  Gb  LS-Font20b_.o [1]
acGUI_FontLSFont20b__5339
                        0x0803aad4    0x38  Data  Gb  LS-Font20b_.o [1]
acGUI_FontLSFont20b__533A
                        0x0803ab0c    0x38  Data  Gb  LS-Font20b_.o [1]
acGUI_FontLSFont20b__5355
                        0x0803ab44    0x38  Data  Gb  LS-Font20b_.o [1]
acGUI_FontLSFont20b__5382
                        0x0803ab7c    0x38  Data  Gb  LS-Font20b_.o [1]
acGUI_FontLSFont20b__5386
                        0x0803abb4    0x38  Data  Gb  LS-Font20b_.o [1]
acGUI_FontLSFont20b__538B
                        0x0803abec    0x34  Data  Gb  LS-Font20b_.o [1]
acGUI_FontLSFont20b__539F
                        0x0803ac20    0x38  Data  Gb  LS-Font20b_.o [1]
acGUI_FontLSFont20b__53BB
                        0x0803ac58    0x3c  Data  Gb  LS-Font20b_.o [1]
acGUI_FontLSFont20b__53C2
                        0x0803ac94    0x3c  Data  Gb  LS-Font20b_.o [1]
acGUI_FontLSFont20b__53CD
                        0x0803acd0    0x38  Data  Gb  LS-Font20b_.o [1]
acGUI_FontLSFont20b__53D1
                        0x0803ad08    0x38  Data  Gb  LS-Font20b_.o [1]
acGUI_FontLSFont20b__53D6
                        0x0803ad40    0x38  Data  Gb  LS-Font20b_.o [1]
acGUI_FontLSFont20b__53D8
                        0x0803ad78    0x38  Data  Gb  LS-Font20b_.o [1]
acGUI_FontLSFont20b__53E3
                        0x0803adb0    0x24  Data  Gb  LS-Font20b_.o [1]
acGUI_FontLSFont20b__53F2
                        0x0803add4    0x38  Data  Gb  LS-Font20b_.o [1]
acGUI_FontLSFont20b__53F7
                        0x0803ae0c    0x38  Data  Gb  LS-Font20b_.o [1]
acGUI_FontLSFont20b__53F8
                        0x0803ae44    0x38  Data  Gb  LS-Font20b_.o [1]
acGUI_FontLSFont20b__5408
                        0x0803ae7c    0x38  Data  Gb  LS-Font20b_.o [1]
acGUI_FontLSFont20b__540C
                        0x0803aeb4    0x38  Data  Gb  LS-Font20b_.o [1]
acGUI_FontLSFont20b__540D
                        0x0803aeec    0x3c  Data  Gb  LS-Font20b_.o [1]
acGUI_FontLSFont20b__540E
                        0x0803af28    0x3c  Data  Gb  LS-Font20b_.o [1]
acGUI_FontLSFont20b__5411
                        0x0803af64    0x38  Data  Gb  LS-Font20b_.o [1]
acGUI_FontLSFont20b__5417
                        0x0803af9c    0x38  Data  Gb  LS-Font20b_.o [1]
acGUI_FontLSFont20b__5426
                        0x0803afd4    0x38  Data  Gb  LS-Font20b_.o [1]
acGUI_FontLSFont20b__542F
                        0x0803b00c    0x38  Data  Gb  LS-Font20b_.o [1]
acGUI_FontLSFont20b__544A
                        0x0803b044    0x38  Data  Gb  LS-Font20b_.o [1]
acGUI_FontLSFont20b__5468
                        0x0803b07c    0x38  Data  Gb  LS-Font20b_.o [1]
acGUI_FontLSFont20b__547D
                        0x0803b0b4    0x38  Data  Gb  LS-Font20b_.o [1]
acGUI_FontLSFont20b__548C
                        0x0803b0ec    0x38  Data  Gb  LS-Font20b_.o [1]
acGUI_FontLSFont20b__54C1
                        0x0803b124    0x34  Data  Gb  LS-Font20b_.o [1]
acGUI_FontLSFont20b__5546
                        0x0803b158    0x3c  Data  Gb  LS-Font20b_.o [1]
acGUI_FontLSFont20b__5668
                        0x0803b194    0x38  Data  Gb  LS-Font20b_.o [1]
acGUI_FontLSFont20b__56DE
                        0x0803b1cc    0x38  Data  Gb  LS-Font20b_.o [1]
acGUI_FontLSFont20b__56E0
                        0x0803b204    0x38  Data  Gb  LS-Font20b_.o [1]
acGUI_FontLSFont20b__56F4
                        0x0803b23c    0x38  Data  Gb  LS-Font20b_.o [1]
acGUI_FontLSFont20b__56FD
                        0x0803b274    0x38  Data  Gb  LS-Font20b_.o [1]
acGUI_FontLSFont20b__56FE
                        0x0803b2ac    0x38  Data  Gb  LS-Font20b_.o [1]
acGUI_FontLSFont20b__5728
                        0x0803b2e4    0x3c  Data  Gb  LS-Font20b_.o [1]
acGUI_FontLSFont20b__5730
                        0x0803b320    0x38  Data  Gb  LS-Font20b_.o [1]
acGUI_FontLSFont20b__5740
                        0x0803b358    0x38  Data  Gb  LS-Font20b_.o [1]
acGUI_FontLSFont20b__578B
                        0x0803b390    0x38  Data  Gb  LS-Font20b_.o [1]
acGUI_FontLSFont20b__57DF
                        0x0803b3c8    0x38  Data  Gb  LS-Font20b_.o [1]
acGUI_FontLSFont20b__57F9
                        0x0803b400    0x3c  Data  Gb  LS-Font20b_.o [1]
acGUI_FontLSFont20b__57FA
                        0x0803b43c    0x38  Data  Gb  LS-Font20b_.o [1]
acGUI_FontLSFont20b__5883
                        0x0803b474    0x3c  Data  Gb  LS-Font20b_.o [1]
acGUI_FontLSFont20b__5904
                        0x0803b4b0    0x3c  Data  Gb  LS-Font20b_.o [1]
acGUI_FontLSFont20b__5907
                        0x0803b4ec    0x3c  Data  Gb  LS-Font20b_.o [1]
acGUI_FontLSFont20b__590D
                        0x0803b528    0x3c  Data  Gb  LS-Font20b_.o [1]
acGUI_FontLSFont20b__5916
                        0x0803b564    0x3c  Data  Gb  LS-Font20b_.o [1]
acGUI_FontLSFont20b__5927
                        0x0803b5a0    0x3c  Data  Gb  LS-Font20b_.o [1]
acGUI_FontLSFont20b__592E
                        0x0803b5dc    0x3c  Data  Gb  LS-Font20b_.o [1]
acGUI_FontLSFont20b__5931
                        0x0803b618    0x3c  Data  Gb  LS-Font20b_.o [1]
acGUI_FontLSFont20b__5934
                        0x0803b654    0x3c  Data  Gb  LS-Font20b_.o [1]
acGUI_FontLSFont20b__597D
                        0x0803b690    0x3c  Data  Gb  LS-Font20b_.o [1]
acGUI_FontLSFont20b__59CB
                        0x0803b6cc    0x3c  Data  Gb  LS-Font20b_.o [1]
acGUI_FontLSFont20b__5B50
                        0x0803b708    0x3c  Data  Gb  LS-Font20b_.o [1]
acGUI_FontLSFont20b__5B57
                        0x0803b744    0x3c  Data  Gb  LS-Font20b_.o [1]
acGUI_FontLSFont20b__5B58
                        0x0803b780    0x3c  Data  Gb  LS-Font20b_.o [1]
acGUI_FontLSFont20b__5B85
                        0x0803b7bc    0x3c  Data  Gb  LS-Font20b_.o [1]
acGUI_FontLSFont20b__5B89
                        0x0803b7f8    0x3c  Data  Gb  LS-Font20b_.o [1]
acGUI_FontLSFont20b__5B8C
                        0x0803b834    0x3c  Data  Gb  LS-Font20b_.o [1]
acGUI_FontLSFont20b__5B9A
                        0x0803b870    0x3c  Data  Gb  LS-Font20b_.o [1]
acGUI_FontLSFont20b__5B9E
                        0x0803b8ac    0x3c  Data  Gb  LS-Font20b_.o [1]
acGUI_FontLSFont20b__5BC4
                        0x0803b8e8    0x3c  Data  Gb  LS-Font20b_.o [1]
acGUI_FontLSFont20b__5BC6
                        0x0803b924    0x3c  Data  Gb  LS-Font20b_.o [1]
acGUI_FontLSFont20b__5BFF
                        0x0803b960    0x3c  Data  Gb  LS-Font20b_.o [1]
acGUI_FontLSFont20b__5C04
                        0x0803b99c    0x3c  Data  Gb  LS-Font20b_.o [1]
acGUI_FontLSFont20b__5C0F
                        0x0803b9d8    0x3c  Data  Gb  LS-Font20b_.o [1]
acGUI_FontLSFont20b__5C40
                        0x0803ba14    0x3c  Data  Gb  LS-Font20b_.o [1]
acGUI_FontLSFont20b__5C4F
                        0x0803ba50    0x3c  Data  Gb  LS-Font20b_.o [1]
acGUI_FontLSFont20b__5DE5
                        0x0803ba8c    0x38  Data  Gb  LS-Font20b_.o [1]
acGUI_FontLSFont20b__5E27
                        0x0803bac4    0x3c  Data  Gb  LS-Font20b_.o [1]
acGUI_FontLSFont20b__5E38
                        0x0803bb00    0x3c  Data  Gb  LS-Font20b_.o [1]
acGUI_FontLSFont20b__5E45
                        0x0803bb3c    0x3c  Data  Gb  LS-Font20b_.o [1]
acGUI_FontLSFont20b__5E55
                        0x0803bb78    0x3c  Data  Gb  LS-Font20b_.o [1]
acGUI_FontLSFont20b__5E73
                        0x0803bbb4    0x3c  Data  Gb  LS-Font20b_.o [1]
acGUI_FontLSFont20b__5E74
                        0x0803bbf0    0x3c  Data  Gb  LS-Font20b_.o [1]
acGUI_FontLSFont20b__5E76
                        0x0803bc2c    0x3c  Data  Gb  LS-Font20b_.o [1]
acGUI_FontLSFont20b__5E8F
                        0x0803bc68    0x3c  Data  Gb  LS-Font20b_.o [1]
acGUI_FontLSFont20b__5E94
                        0x0803bca4    0x3c  Data  Gb  LS-Font20b_.o [1]
acGUI_FontLSFont20b__5EA6
                        0x0803bce0    0x3c  Data  Gb  LS-Font20b_.o [1]
acGUI_FontLSFont20b__5EF6
                        0x0803bd1c    0x3c  Data  Gb  LS-Font20b_.o [1]
acGUI_FontLSFont20b__5F00
                        0x0803bd58    0x3c  Data  Gb  LS-Font20b_.o [1]
acGUI_FontLSFont20b__5F02
                        0x0803bd94    0x3c  Data  Gb  LS-Font20b_.o [1]
acGUI_FontLSFont20b__5F0F
                        0x0803bdd0    0x3c  Data  Gb  LS-Font20b_.o [1]
acGUI_FontLSFont20b__5F55
                        0x0803be0c    0x3c  Data  Gb  LS-Font20b_.o [1]
acGUI_FontLSFont20b__5F62
                        0x0803be48    0x3c  Data  Gb  LS-Font20b_.o [1]
acGUI_FontLSFont20b__5F85
                        0x0803be84    0x3c  Data  Gb  LS-Font20b_.o [1]
acGUI_FontLSFont20b__6001
                        0x0803bec0    0x3c  Data  Gb  LS-Font20b_.o [1]
acGUI_FontLSFont20b__6027
                        0x0803befc    0x3c  Data  Gb  LS-Font20b_.o [1]
acGUI_FontLSFont20b__606F
                        0x0803bf38    0x3c  Data  Gb  LS-Font20b_.o [1]
acGUI_FontLSFont20b__60F3
                        0x0803bf74    0x3c  Data  Gb  LS-Font20b_.o [1]
acGUI_FontLSFont20b__610F
                        0x0803bfb0    0x3c  Data  Gb  LS-Font20b_.o [1]
acGUI_FontLSFont20b__6210
                        0x0803bfec    0x3c  Data  Gb  LS-Font20b_.o [1]
acGUI_FontLSFont20b__6211
                        0x0803c028    0x3c  Data  Gb  LS-Font20b_.o [1]
acGUI_FontLSFont20b__6216
                        0x0803c064    0x3c  Data  Gb  LS-Font20b_.o [1]
acGUI_FontLSFont20b__6237
                        0x0803c0a0    0x3c  Data  Gb  LS-Font20b_.o [1]
acGUI_FontLSFont20b__6240
                        0x0803c0dc    0x3c  Data  Gb  LS-Font20b_.o [1]
acGUI_FontLSFont20b__624B
                        0x0803c118    0x3c  Data  Gb  LS-Font20b_.o [1]
acGUI_FontLSFont20b__6253
                        0x0803c154    0x3c  Data  Gb  LS-Font20b_.o [1]
acGUI_FontLSFont20b__6263
                        0x0803c190    0x3c  Data  Gb  LS-Font20b_.o [1]
acGUI_FontLSFont20b__62A4
                        0x0803c1cc    0x3c  Data  Gb  LS-Font20b_.o [1]
acGUI_FontLSFont20b__62A5
                        0x0803c208    0x3c  Data  Gb  LS-Font20b_.o [1]
acGUI_FontLSFont20b__62BD
                        0x0803c244    0x3c  Data  Gb  LS-Font20b_.o [1]
acGUI_FontLSFont20b__62DF
                        0x0803c280    0x3c  Data  Gb  LS-Font20b_.o [1]
acGUI_FontLSFont20b__62E9
                        0x0803c2bc    0x3c  Data  Gb  LS-Font20b_.o [1]
acGUI_FontLSFont20b__6301
                        0x0803c2f8    0x3c  Data  Gb  LS-Font20b_.o [1]
acGUI_FontLSFont20b__6309
                        0x0803c334    0x3c  Data  Gb  LS-Font20b_.o [1]
acGUI_FontLSFont20b__632F
                        0x0803c370    0x3c  Data  Gb  LS-Font20b_.o [1]
acGUI_FontLSFont20b__635F
                        0x0803c3ac    0x3c  Data  Gb  LS-Font20b_.o [1]
acGUI_FontLSFont20b__6362
                        0x0803c3e8    0x3c  Data  Gb  LS-Font20b_.o [1]
acGUI_FontLSFont20b__636E
                        0x0803c424    0x3c  Data  Gb  LS-Font20b_.o [1]
acGUI_FontLSFont20b__6389
                        0x0803c460    0x3c  Data  Gb  LS-Font20b_.o [1]
acGUI_FontLSFont20b__63A5
                        0x0803c49c    0x3c  Data  Gb  LS-Font20b_.o [1]
acGUI_FontLSFont20b__63A7
                        0x0803c4d8    0x3c  Data  Gb  LS-Font20b_.o [1]
acGUI_FontLSFont20b__63A8
                        0x0803c514    0x3c  Data  Gb  LS-Font20b_.o [1]
acGUI_FontLSFont20b__63CF
                        0x0803c550    0x3c  Data  Gb  LS-Font20b_.o [1]
acGUI_FontLSFont20b__63D2
                        0x0803c58c    0x3c  Data  Gb  LS-Font20b_.o [1]
acGUI_FontLSFont20b__64CD
                        0x0803c5c8    0x3c  Data  Gb  LS-Font20b_.o [1]
acGUI_FontLSFont20b__6536
                        0x0803c604    0x3c  Data  Gb  LS-Font20b_.o [1]
acGUI_FontLSFont20b__6539
                        0x0803c640    0x3c  Data  Gb  LS-Font20b_.o [1]
acGUI_FontLSFont20b__6545
                        0x0803c67c    0x3c  Data  Gb  LS-Font20b_.o [1]
acGUI_FontLSFont20b__6570
                        0x0803c6b8    0x3c  Data  Gb  LS-Font20b_.o [1]
acGUI_FontLSFont20b__6587
                        0x0803c6f4    0x3c  Data  Gb  LS-Font20b_.o [1]
acGUI_FontLSFont20b__65AD
                        0x0803c730    0x3c  Data  Gb  LS-Font20b_.o [1]
acGUI_FontLSFont20b__65AF
                        0x0803c76c    0x3c  Data  Gb  LS-Font20b_.o [1]
acGUI_FontLSFont20b__65B0
                        0x0803c7a8    0x3c  Data  Gb  LS-Font20b_.o [1]
acGUI_FontLSFont20b__65B9
                        0x0803c7e4    0x3c  Data  Gb  LS-Font20b_.o [1]
acGUI_FontLSFont20b__65C5
                        0x0803c820    0x3c  Data  Gb  LS-Font20b_.o [1]
acGUI_FontLSFont20b__65CB
                        0x0803c85c    0x3c  Data  Gb  LS-Font20b_.o [1]
acGUI_FontLSFont20b__65E0
                        0x0803c898    0x38  Data  Gb  LS-Font20b_.o [1]
acGUI_FontLSFont20b__65E5
                        0x0803c8d0    0x28  Data  Gb  LS-Font20b_.o [1]
acGUI_FontLSFont20b__65E7
                        0x0803c8f8    0x3c  Data  Gb  LS-Font20b_.o [1]
acGUI_FontLSFont20b__65F6
                        0x0803c934    0x3c  Data  Gb  LS-Font20b_.o [1]
acGUI_FontLSFont20b__660E
                        0x0803c970    0x3c  Data  Gb  LS-Font20b_.o [1]
acGUI_FontLSFont20b__6620
                        0x0803c9ac    0x3c  Data  Gb  LS-Font20b_.o [1]
acGUI_FontLSFont20b__662F
                        0x0803c9e8    0x3c  Data  Gb  LS-Font20b_.o [1]
acGUI_FontLSFont20b__663E
                        0x0803ca24    0x3c  Data  Gb  LS-Font20b_.o [1]
acGUI_FontLSFont20b__6670
                        0x0803ca60    0x3c  Data  Gb  LS-Font20b_.o [1]
acGUI_FontLSFont20b__66F4
                        0x0803ca9c    0x3c  Data  Gb  LS-Font20b_.o [1]
acGUI_FontLSFont20b__6700
                        0x0803cad8    0x3c  Data  Gb  LS-Font20b_.o [1]
acGUI_FontLSFont20b__6708
                        0x0803cb14    0x3c  Data  Gb  LS-Font20b_.o [1]
acGUI_FontLSFont20b__6709
                        0x0803cb50    0x3c  Data  Gb  LS-Font20b_.o [1]
acGUI_FontLSFont20b__671F
                        0x0803cb8c    0x3c  Data  Gb  LS-Font20b_.o [1]
acGUI_FontLSFont20b__672A
                        0x0803cbc8    0x3c  Data  Gb  LS-Font20b_.o [1]
acGUI_FontLSFont20b__672C
                        0x0803cc04    0x3c  Data  Gb  LS-Font20b_.o [1]
acGUI_FontLSFont20b__673A
                        0x0803cc40    0x3c  Data  Gb  LS-Font20b_.o [1]
acGUI_FontLSFont20b__677F
                        0x0803cc7c    0x3c  Data  Gb  LS-Font20b_.o [1]
acGUI_FontLSFont20b__6781
                        0x0803ccb8    0x3c  Data  Gb  LS-Font20b_.o [1]
acGUI_FontLSFont20b__679C
                        0x0803ccf4    0x3c  Data  Gb  LS-Font20b_.o [1]
acGUI_FontLSFont20b__67B6
                        0x0803cd30    0x3c  Data  Gb  LS-Font20b_.o [1]
acGUI_FontLSFont20b__67E5
                        0x0803cd6c    0x3c  Data  Gb  LS-Font20b_.o [1]
acGUI_FontLSFont20b__6821
                        0x0803cda8    0x3c  Data  Gb  LS-Font20b_.o [1]
acGUI_FontLSFont20b__6846
                        0x0803cde4    0x3c  Data  Gb  LS-Font20b_.o [1]
acGUI_FontLSFont20b__68B0
                        0x0803ce20    0x3c  Data  Gb  LS-Font20b_.o [1]
acGUI_FontLSFont20b__68C0
                        0x0803ce5c    0x3c  Data  Gb  LS-Font20b_.o [1]
acGUI_FontLSFont20b__695A
                        0x0803ce98    0x3c  Data  Gb  LS-Font20b_.o [1]
acGUI_FontLSFont20b__6982
                        0x0803ced4    0x3c  Data  Gb  LS-Font20b_.o [1]
acGUI_FontLSFont20b__6A21
                        0x0803cf10    0x3c  Data  Gb  LS-Font20b_.o [1]
acGUI_FontLSFont20b__6B20
                        0x0803cf4c    0x3c  Data  Gb  LS-Font20b_.o [1]
acGUI_FontLSFont20b__6B21
                        0x0803cf88    0x3c  Data  Gb  LS-Font20b_.o [1]
acGUI_FontLSFont20b__6B63
                        0x0803cfc4    0x38  Data  Gb  LS-Font20b_.o [1]
acGUI_FontLSFont20b__6B65
                        0x0803cffc    0x3c  Data  Gb  LS-Font20b_.o [1]
acGUI_FontLSFont20b__6BB5
                        0x0803d038    0x38  Data  Gb  LS-Font20b_.o [1]
acGUI_FontLSFont20b__6C14
                        0x0803d070    0x3c  Data  Gb  LS-Font20b_.o [1]
acGUI_FontLSFont20b__6C42
                        0x0803d0ac    0x3c  Data  Gb  LS-Font20b_.o [1]
acGUI_FontLSFont20b__6C49
                        0x0803d0e8    0x3c  Data  Gb  LS-Font20b_.o [1]
acGUI_FontLSFont20b__6C60
                        0x0803d124    0x3c  Data  Gb  LS-Font20b_.o [1]
acGUI_FontLSFont20b__6C9F
                        0x0803d160    0x3c  Data  Gb  LS-Font20b_.o [1]
acGUI_FontLSFont20b__6CA1
                        0x0803d19c    0x3c  Data  Gb  LS-Font20b_.o [1]
acGUI_FontLSFont20b__6CD5
                        0x0803d1d8    0x3c  Data  Gb  LS-Font20b_.o [1]
acGUI_FontLSFont20b__6CE2
                        0x0803d214    0x3c  Data  Gb  LS-Font20b_.o [1]
acGUI_FontLSFont20b__6D41
                        0x0803d250    0x3c  Data  Gb  LS-Font20b_.o [1]
acGUI_FontLSFont20b__6D4B
                        0x0803d28c    0x3c  Data  Gb  LS-Font20b_.o [1]
acGUI_FontLSFont20b__6D88
                        0x0803d2c8    0x3c  Data  Gb  LS-Font20b_.o [1]
acGUI_FontLSFont20b__6E05
                        0x0803d304    0x3c  Data  Gb  LS-Font20b_.o [1]
acGUI_FontLSFont20b__6E29
                        0x0803d340    0x3c  Data  Gb  LS-Font20b_.o [1]
acGUI_FontLSFont20b__6E90
                        0x0803d37c    0x3c  Data  Gb  LS-Font20b_.o [1]
acGUI_FontLSFont20b__6EDA
                        0x0803d3b8    0x3c  Data  Gb  LS-Font20b_.o [1]
acGUI_FontLSFont20b__6FC0
                        0x0803d3f4    0x3c  Data  Gb  LS-Font20b_.o [1]
acGUI_FontLSFont20b__70B9
                        0x0803d430    0x3c  Data  Gb  LS-Font20b_.o [1]
acGUI_FontLSFont20b__70ED
                        0x0803d46c    0x3c  Data  Gb  LS-Font20b_.o [1]
acGUI_FontLSFont20b__7248
                        0x0803d4a8    0x3c  Data  Gb  LS-Font20b_.o [1]
acGUI_FontLSFont20b__7279
                        0x0803d4e4    0x3c  Data  Gb  LS-Font20b_.o [1]
acGUI_FontLSFont20b__72B6
                        0x0803d520    0x3c  Data  Gb  LS-Font20b_.o [1]
acGUI_FontLSFont20b__7387
                        0x0803d55c    0x3c  Data  Gb  LS-Font20b_.o [1]
acGUI_FontLSFont20b__73AF
                        0x0803d598    0x3c  Data  Gb  LS-Font20b_.o [1]
acGUI_FontLSFont20b__73B0
                        0x0803d5d4    0x3c  Data  Gb  LS-Font20b_.o [1]
acGUI_FontLSFont20b__7406
                        0x0803d610    0x3c  Data  Gb  LS-Font20b_.o [1]
acGUI_FontLSFont20b__74E6
                        0x0803d64c    0x3c  Data  Gb  LS-Font20b_.o [1]
acGUI_FontLSFont20b__751F
                        0x0803d688    0x3c  Data  Gb  LS-Font20b_.o [1]
acGUI_FontLSFont20b__7528
                        0x0803d6c4    0x3c  Data  Gb  LS-Font20b_.o [1]
acGUI_FontLSFont20b__7535
                        0x0803d700    0x3c  Data  Gb  LS-Font20b_.o [1]
acGUI_FontLSFont20b__767B
                        0x0803d73c    0x3c  Data  Gb  LS-Font20b_.o [1]
acGUI_FontLSFont20b__7684
                        0x0803d778    0x3c  Data  Gb  LS-Font20b_.o [1]
acGUI_FontLSFont20b__76EE
                        0x0803d7b4    0x24  Data  Gb  LS-Font20b_.o [1]
acGUI_FontLSFont20b__76F8
                        0x0803d7d8    0x3c  Data  Gb  LS-Font20b_.o [1]
acGUI_FontLSFont20b__77AC
                        0x0803d814    0x3c  Data  Gb  LS-Font20b_.o [1]
acGUI_FontLSFont20b__77E2
                        0x0803d850    0x3c  Data  Gb  LS-Font20b_.o [1]
acGUI_FontLSFont20b__77ED
                        0x0803d88c    0x3c  Data  Gb  LS-Font20b_.o [1]
acGUI_FontLSFont20b__7801
                        0x0803d8c8    0x3c  Data  Gb  LS-Font20b_.o [1]
acGUI_FontLSFont20b__7834
                        0x0803d904    0x3c  Data  Gb  LS-Font20b_.o [1]
acGUI_FontLSFont20b__786C
                        0x0803d940    0x3c  Data  Gb  LS-Font20b_.o [1]
acGUI_FontLSFont20b__786E
                        0x0803d97c    0x3c  Data  Gb  LS-Font20b_.o [1]
acGUI_FontLSFont20b__78C1
                        0x0803d9b8    0x3c  Data  Gb  LS-Font20b_.o [1]
acGUI_FontLSFont20b__78E8
                        0x0803d9f4    0x3c  Data  Gb  LS-Font20b_.o [1]
acGUI_FontLSFont20b__793A
                        0x0803da30    0x3c  Data  Gb  LS-Font20b_.o [1]
acGUI_FontLSFont20b__79D2
                        0x0803da6c    0x3c  Data  Gb  LS-Font20b_.o [1]
acGUI_FontLSFont20b__79F0
                        0x0803daa8    0x3c  Data  Gb  LS-Font20b_.o [1]
acGUI_FontLSFont20b__7A0B
                        0x0803dae4    0x3c  Data  Gb  LS-Font20b_.o [1]
acGUI_FontLSFont20b__7A81
                        0x0803db20    0x3c  Data  Gb  LS-Font20b_.o [1]
acGUI_FontLSFont20b__7B49
                        0x0803db5c    0x3c  Data  Gb  LS-Font20b_.o [1]
acGUI_FontLSFont20b__7C7B
                        0x0803db98    0x3c  Data  Gb  LS-Font20b_.o [1]
acGUI_FontLSFont20b__7CFB
                        0x0803dbd4    0x38  Data  Gb  LS-Font20b_.o [1]
acGUI_FontLSFont20b__7D20
                        0x0803dc0c    0x3c  Data  Gb  LS-Font20b_.o [1]
acGUI_FontLSFont20b__7EBF
                        0x0803dc48    0x3c  Data  Gb  LS-Font20b_.o [1]
acGUI_FontLSFont20b__7EC4
                        0x0803dc84    0x3c  Data  Gb  LS-Font20b_.o [1]
acGUI_FontLSFont20b__7ECA
                        0x0803dcc0    0x3c  Data  Gb  LS-Font20b_.o [1]
acGUI_FontLSFont20b__7ED3
                        0x0803dcfc    0x3c  Data  Gb  LS-Font20b_.o [1]
acGUI_FontLSFont20b__7EDB
                        0x0803dd38    0x3c  Data  Gb  LS-Font20b_.o [1]
acGUI_FontLSFont20b__7EDC
                        0x0803dd74    0x3c  Data  Gb  LS-Font20b_.o [1]
acGUI_FontLSFont20b__7EDF
                        0x0803ddb0    0x3c  Data  Gb  LS-Font20b_.o [1]
acGUI_FontLSFont20b__7EE7
                        0x0803ddec    0x3c  Data  Gb  LS-Font20b_.o [1]
acGUI_FontLSFont20b__7EED
                        0x0803de28    0x3c  Data  Gb  LS-Font20b_.o [1]
acGUI_FontLSFont20b__7F13
                        0x0803de64    0x3c  Data  Gb  LS-Font20b_.o [1]
acGUI_FontLSFont20b__7F3A
                        0x0803dea0    0x3c  Data  Gb  LS-Font20b_.o [1]
acGUI_FontLSFont20b__7F51
                        0x0803dedc    0x3c  Data  Gb  LS-Font20b_.o [1]
acGUI_FontLSFont20b__7F57
                        0x0803df18    0x38  Data  Gb  LS-Font20b_.o [1]
acGUI_FontLSFont20b__7F6E
                        0x0803df50    0x3c  Data  Gb  LS-Font20b_.o [1]
acGUI_FontLSFont20b__7FFB
                        0x0803df8c    0x3c  Data  Gb  LS-Font20b_.o [1]
acGUI_FontLSFont20b__8003
                        0x0803dfc8    0x3c  Data  Gb  LS-Font20b_.o [1]
acGUI_FontLSFont20b__8054
                        0x0803e004    0x3c  Data  Gb  LS-Font20b_.o [1]
acGUI_FontLSFont20b__806A
                        0x0803e040    0x3c  Data  Gb  LS-Font20b_.o [1]
acGUI_FontLSFont20b__80FD
                        0x0803e07c    0x3c  Data  Gb  LS-Font20b_.o [1]
acGUI_FontLSFont20b__8109
                        0x0803e0b8    0x3c  Data  Gb  LS-Font20b_.o [1]
acGUI_FontLSFont20b__8131
                        0x0803e0f4    0x3c  Data  Gb  LS-Font20b_.o [1]
acGUI_FontLSFont20b__81EA
                        0x0803e130    0x28  Data  Gb  LS-Font20b_.o [1]
acGUI_FontLSFont20b__81F4
                        0x0803e158    0x3c  Data  Gb  LS-Font20b_.o [1]
acGUI_FontLSFont20b__82E5
                        0x0803e194    0x3c  Data  Gb  LS-Font20b_.o [1]
acGUI_FontLSFont20b__82F1
                        0x0803e1d0    0x3c  Data  Gb  LS-Font20b_.o [1]
acGUI_FontLSFont20b__8303
                        0x0803e20c    0x3c  Data  Gb  LS-Font20b_.o [1]
acGUI_FontLSFont20b__8377
                        0x0803e248    0x3c  Data  Gb  LS-Font20b_.o [1]
acGUI_FontLSFont20b__83DC
                        0x0803e284    0x3c  Data  Gb  LS-Font20b_.o [1]
acGUI_FontLSFont20b__8425
                        0x0803e2c0    0x3c  Data  Gb  LS-Font20b_.o [1]
acGUI_FontLSFont20b__884C
                        0x0803e2fc    0x3c  Data  Gb  LS-Font20b_.o [1]
acGUI_FontLSFont20b__8861
                        0x0803e338    0x3c  Data  Gb  LS-Font20b_.o [1]
acGUI_FontLSFont20b__8870
                        0x0803e374    0x3c  Data  Gb  LS-Font20b_.o [1]
acGUI_FontLSFont20b__88C5
                        0x0803e3b0    0x3c  Data  Gb  LS-Font20b_.o [1]
acGUI_FontLSFont20b__8981
                        0x0803e3ec    0x3c  Data  Gb  LS-Font20b_.o [1]
acGUI_FontLSFont20b__89C8
                        0x0803e428    0x3c  Data  Gb  LS-Font20b_.o [1]
acGUI_FontLSFont20b__89D2
                        0x0803e464    0x3c  Data  Gb  LS-Font20b_.o [1]
acGUI_FontLSFont20b__89E6
                        0x0803e4a0    0x3c  Data  Gb  LS-Font20b_.o [1]
acGUI_FontLSFont20b__8A00
                        0x0803e4dc    0x3c  Data  Gb  LS-Font20b_.o [1]
acGUI_FontLSFont20b__8B66
                        0x0803e518    0x3c  Data  Gb  LS-Font20b_.o [1]
acGUI_FontLSFont20b__8BA1
                        0x0803e554    0x3c  Data  Gb  LS-Font20b_.o [1]
acGUI_FontLSFont20b__8BA4
                        0x0803e590    0x3c  Data  Gb  LS-Font20b_.o [1]
acGUI_FontLSFont20b__8BAF
                        0x0803e5cc    0x3c  Data  Gb  LS-Font20b_.o [1]
acGUI_FontLSFont20b__8BB2
                        0x0803e608    0x3c  Data  Gb  LS-Font20b_.o [1]
acGUI_FontLSFont20b__8BBE
                        0x0803e644    0x3c  Data  Gb  LS-Font20b_.o [1]
acGUI_FontLSFont20b__8BCA
                        0x0803e680    0x3c  Data  Gb  LS-Font20b_.o [1]
acGUI_FontLSFont20b__8BD5
                        0x0803e6bc    0x3c  Data  Gb  LS-Font20b_.o [1]
acGUI_FontLSFont20b__8BE2
                        0x0803e6f8    0x3c  Data  Gb  LS-Font20b_.o [1]
acGUI_FontLSFont20b__8BED
                        0x0803e734    0x3c  Data  Gb  LS-Font20b_.o [1]
acGUI_FontLSFont20b__8BEF
                        0x0803e770    0x3c  Data  Gb  LS-Font20b_.o [1]
acGUI_FontLSFont20b__8BF7
                        0x0803e7ac    0x3c  Data  Gb  LS-Font20b_.o [1]
acGUI_FontLSFont20b__8BFB
                        0x0803e7e8    0x3c  Data  Gb  LS-Font20b_.o [1]
acGUI_FontLSFont20b__8C10
                        0x0803e824    0x3c  Data  Gb  LS-Font20b_.o [1]
acGUI_FontLSFont20b__8D1F
                        0x0803e860    0x3c  Data  Gb  LS-Font20b_.o [1]
acGUI_FontLSFont20b__8D25
                        0x0803e89c    0x3c  Data  Gb  LS-Font20b_.o [1]
acGUI_FontLSFont20b__8D28
                        0x0803e8d8    0x3c  Data  Gb  LS-Font20b_.o [1]
acGUI_FontLSFont20b__8D85
                        0x0803e914    0x3c  Data  Gb  LS-Font20b_.o [1]
acGUI_FontLSFont20b__8D8A
                        0x0803e950    0x3c  Data  Gb  LS-Font20b_.o [1]
acGUI_FontLSFont20b__8DEF
                        0x0803e98c    0x3c  Data  Gb  LS-Font20b_.o [1]
acGUI_FontLSFont20b__8DF3
                        0x0803e9c8    0x3c  Data  Gb  LS-Font20b_.o [1]
acGUI_FontLSFont20b__8F6C
                        0x0803ea04    0x3c  Data  Gb  LS-Font20b_.o [1]
acGUI_FontLSFont20b__8F6F
                        0x0803ea40    0x3c  Data  Gb  LS-Font20b_.o [1]
acGUI_FontLSFont20b__8F7D
                        0x0803ea7c    0x3c  Data  Gb  LS-Font20b_.o [1]
acGUI_FontLSFont20b__8F93
                        0x0803eab8    0x3c  Data  Gb  LS-Font20b_.o [1]
acGUI_FontLSFont20b__8FC7
                        0x0803eaf4    0x3c  Data  Gb  LS-Font20b_.o [1]
acGUI_FontLSFont20b__8FD0
                        0x0803eb30    0x3c  Data  Gb  LS-Font20b_.o [1]
acGUI_FontLSFont20b__8FD4
                        0x0803eb6c    0x3c  Data  Gb  LS-Font20b_.o [1]
acGUI_FontLSFont20b__8FDB
                        0x0803eba8    0x3c  Data  Gb  LS-Font20b_.o [1]
acGUI_FontLSFont20b__8FDC
                        0x0803ebe4    0x3c  Data  Gb  LS-Font20b_.o [1]
acGUI_FontLSFont20b__8FDE
                        0x0803ec20    0x3c  Data  Gb  LS-Font20b_.o [1]
acGUI_FontLSFont20b__8FF0
                        0x0803ec5c    0x3c  Data  Gb  LS-Font20b_.o [1]
acGUI_FontLSFont20b__9000
                        0x0803ec98    0x3c  Data  Gb  LS-Font20b_.o [1]
acGUI_FontLSFont20b__9001
                        0x0803ecd4    0x3c  Data  Gb  LS-Font20b_.o [1]
acGUI_FontLSFont20b__9009
                        0x0803ed10    0x3c  Data  Gb  LS-Font20b_.o [1]
acGUI_FontLSFont20b__901A
                        0x0803ed4c    0x3c  Data  Gb  LS-Font20b_.o [1]
acGUI_FontLSFont20b__901F
                        0x0803ed88    0x3c  Data  Gb  LS-Font20b_.o [1]
acGUI_FontLSFont20b__9020
                        0x0803edc4    0x3c  Data  Gb  LS-Font20b_.o [1]
acGUI_FontLSFont20b__90AE
                        0x0803ee00    0x3c  Data  Gb  LS-Font20b_.o [1]
acGUI_FontLSFont20b__90E8
                        0x0803ee3c    0x3c  Data  Gb  LS-Font20b_.o [1]
acGUI_FontLSFont20b__914D
                        0x0803ee78    0x3c  Data  Gb  LS-Font20b_.o [1]
acGUI_FontLSFont20b__91CD
                        0x0803eeb4    0x3c  Data  Gb  LS-Font20b_.o [1]
acGUI_FontLSFont20b__91CF
                        0x0803eef0    0x3c  Data  Gb  LS-Font20b_.o [1]
acGUI_FontLSFont20b__949F
                        0x0803ef2c    0x3c  Data  Gb  LS-Font20b_.o [1]
acGUI_FontLSFont20b__94AE
                        0x0803ef68    0x3c  Data  Gb  LS-Font20b_.o [1]
acGUI_FontLSFont20b__9501
                        0x0803efa4    0x3c  Data  Gb  LS-Font20b_.o [1]
acGUI_FontLSFont20b__951A
                        0x0803efe0    0x3c  Data  Gb  LS-Font20b_.o [1]
acGUI_FontLSFont20b__952E
                        0x0803f01c    0x3c  Data  Gb  LS-Font20b_.o [1]
acGUI_FontLSFont20b__957F
                        0x0803f058    0x3c  Data  Gb  LS-Font20b_.o [1]
acGUI_FontLSFont20b__95ED
                        0x0803f094    0x3c  Data  Gb  LS-Font20b_.o [1]
acGUI_FontLSFont20b__95F4
                        0x0803f0d0    0x3c  Data  Gb  LS-Font20b_.o [1]
acGUI_FontLSFont20b__95F8
                        0x0803f10c    0x3c  Data  Gb  LS-Font20b_.o [1]
acGUI_FontLSFont20b__9605
                        0x0803f148    0x3c  Data  Gb  LS-Font20b_.o [1]
acGUI_FontLSFont20b__9636
                        0x0803f184    0x3c  Data  Gb  LS-Font20b_.o [1]
acGUI_FontLSFont20b__9644
                        0x0803f1c0    0x3c  Data  Gb  LS-Font20b_.o [1]
acGUI_FontLSFont20b__9650
                        0x0803f1fc    0x3c  Data  Gb  LS-Font20b_.o [1]
acGUI_FontLSFont20b__9664
                        0x0803f238    0x3c  Data  Gb  LS-Font20b_.o [1]
acGUI_FontLSFont20b__969C
                        0x0803f274    0x3c  Data  Gb  LS-Font20b_.o [1]
acGUI_FontLSFont20b__96C6
                        0x0803f2b0    0x3c  Data  Gb  LS-Font20b_.o [1]
acGUI_FontLSFont20b__96F6
                        0x0803f2ec    0x3c  Data  Gb  LS-Font20b_.o [1]
acGUI_FontLSFont20b__9700
                        0x0803f328    0x3c  Data  Gb  LS-Font20b_.o [1]
acGUI_FontLSFont20b__9806
                        0x0803f364    0x3c  Data  Gb  LS-Font20b_.o [1]
acGUI_FontLSFont20b__9879
                        0x0803f3a0    0x3c  Data  Gb  LS-Font20b_.o [1]
acGUI_FontLSFont20b__987A
                        0x0803f3dc    0x3c  Data  Gb  LS-Font20b_.o [1]
acGUI_FontLSFont20b__9884
                        0x0803f418    0x3c  Data  Gb  LS-Font20b_.o [1]
acGUI_FontLSFont20b__9886
                        0x0803f454    0x3c  Data  Gb  LS-Font20b_.o [1]
acGUI_FontLSFont20b__9891
                        0x0803f490    0x3c  Data  Gb  LS-Font20b_.o [1]
acGUI_FontLSFont20b__989D
                        0x0803f4cc    0x3c  Data  Gb  LS-Font20b_.o [1]
acGUI_FontLSFont20b__9AD8
                        0x0803f508    0x3c  Data  Gb  LS-Font20b_.o [1]
acGUI_FontLSFont20b__F901
                        0x0803f544    0x3c  Data  Gb  LS-Font20b_.o [1]
acGUI_FontLSFont20b__F92E
                        0x0803f580    0x38  Data  Gb  LS-Font20b_.o [1]
acGUI_FontLSFont20b__F937
                        0x0803f5b8    0x3c  Data  Gb  LS-Font20b_.o [1]
acGUI_FontLSFont20b__F961
                        0x0803f5f4    0x3c  Data  Gb  LS-Font20b_.o [1]
acGUI_FontLSFont20b__F967
                        0x0803f630    0x38  Data  Gb  LS-Font20b_.o [1]
acGUI_FontLSFont20b__F974
                        0x0803f668    0x3c  Data  Gb  LS-Font20b_.o [1]
acGUI_FontLSFont20b__F977
                        0x0803f6a4    0x3c  Data  Gb  LS-Font20b_.o [1]
acGUI_FontLSFont20b__F97E
                        0x0803f6e0    0x3c  Data  Gb  LS-Font20b_.o [1]
acGUI_FontLSFont20b__F983
                        0x0803f71c    0x3c  Data  Gb  LS-Font20b_.o [1]
acGUI_FontLSFont20b__F98E
                        0x0803f758    0x3c  Data  Gb  LS-Font20b_.o [1]
acGUI_FontLSFont20b__F99C
                        0x0803f794    0x38  Data  Gb  LS-Font20b_.o [1]
acGUI_FontLSFont20b__F9B2
                        0x0803f7cc    0x3c  Data  Gb  LS-Font20b_.o [1]
acGUI_FontLSFont20b__F9CA
                        0x0803f808    0x3c  Data  Gb  LS-Font20b_.o [1]
acGUI_FontLSFont20b__F9DB
                        0x0803f844    0x3c  Data  Gb  LS-Font20b_.o [1]
acGUI_FontLSFont20b__F9E4
                        0x0803f880    0x3c  Data  Gb  LS-Font20b_.o [1]
acGUI_FontLSFont20b__FA01
                        0x0803f8bc    0x3c  Data  Gb  LS-Font20b_.o [1]
acGUI_FontLSFont20b__FA04
                        0x0803f8f8    0x3c  Data  Gb  LS-Font20b_.o [1]
acGUI_FontLSFont20b__FA08
                        0x0803f934    0x3c  Data  Gb  LS-Font20b_.o [1]
acGUI_FontLSFont20b__FA38
                        0x0803f970    0x38  Data  Gb  LS-Font20b_.o [1]
acGUI_FontLSFont20b__FA55
                        0x0803f9a8    0x3c  Data  Gb  LS-Font20b_.o [1]
acGUI_FontLSFont20b__FA72
                        0x0803f9e4    0x38  Data  Gb  LS-Font20b_.o [1]
acGUI_FontLSFont20b__FA74
                        0x0803fa1c    0x3c  Data  Gb  LS-Font20b_.o [1]
acGUI_FontLSFont20b__FA97
                        0x0803fa58    0x3c  Data  Gb  LS-Font20b_.o [1]
acGUI_FontLSFont20b__FAAE
                        0x0803fa94    0x3c  Data  Gb  LS-Font20b_.o [1]
acGUI_FontLSFont20n__0020
                        0x080426a4    0x10  Data  Gb  LS-Font20n_.o [1]
acGUI_FontLSFont20n__0021
                        0x080426b4    0x10  Data  Gb  LS-Font20n_.o [1]
acGUI_FontLSFont20n__0022
                        0x080426c4     0x4  Data  Gb  LS-Font20n_.o [1]
acGUI_FontLSFont20n__0023
                        0x080426c8    0x20  Data  Gb  LS-Font20n_.o [1]
acGUI_FontLSFont20n__0024
                        0x080426e8    0x24  Data  Gb  LS-Font20n_.o [1]
acGUI_FontLSFont20n__0025
                        0x0804270c    0x1c  Data  Gb  LS-Font20n_.o [1]
acGUI_FontLSFont20n__0026
                        0x08042728    0x20  Data  Gb  LS-Font20n_.o [1]
acGUI_FontLSFont20n__0027
                        0x08042748     0x4  Data  Gb  LS-Font20n_.o [1]
acGUI_FontLSFont20n__0028
                        0x0804274c    0x14  Data  Gb  LS-Font20n_.o [1]
acGUI_FontLSFont20n__0029
                        0x08042760    0x14  Data  Gb  LS-Font20n_.o [1]
acGUI_FontLSFont20n__002A
                        0x08042774     0x8  Data  Gb  LS-Font20n_.o [1]
acGUI_FontLSFont20n__002B
                        0x0804277c    0x14  Data  Gb  LS-Font20n_.o [1]
acGUI_FontLSFont20n__002C
                        0x08042790     0x4  Data  Gb  LS-Font20n_.o [1]
acGUI_FontLSFont20n__002D
                        0x08042794     0x2  Data  Gb  LS-Font20n_.o [1]
acGUI_FontLSFont20n__002E
                        0x08042796     0x2  Data  Gb  LS-Font20n_.o [1]
acGUI_FontLSFont20n__002F
                        0x08042798    0x24  Data  Gb  LS-Font20n_.o [1]
acGUI_FontLSFont20n__0030
                        0x080427bc    0x20  Data  Gb  LS-Font20n_.o [1]
acGUI_FontLSFont20n__0031
                        0x080427dc    0x10  Data  Gb  LS-Font20n_.o [1]
acGUI_FontLSFont20n__0032
                        0x080427ec    0x20  Data  Gb  LS-Font20n_.o [1]
acGUI_FontLSFont20n__0033
                        0x0804280c    0x20  Data  Gb  LS-Font20n_.o [1]
acGUI_FontLSFont20n__0034
                        0x0804282c    0x20  Data  Gb  LS-Font20n_.o [1]
acGUI_FontLSFont20n__0035
                        0x0804284c    0x20  Data  Gb  LS-Font20n_.o [1]
acGUI_FontLSFont20n__0036
                        0x0804286c    0x20  Data  Gb  LS-Font20n_.o [1]
acGUI_FontLSFont20n__0037
                        0x0804288c    0x20  Data  Gb  LS-Font20n_.o [1]
acGUI_FontLSFont20n__0038
                        0x080428ac    0x20  Data  Gb  LS-Font20n_.o [1]
acGUI_FontLSFont20n__0039
                        0x080428cc    0x20  Data  Gb  LS-Font20n_.o [1]
acGUI_FontLSFont20n__003A
                        0x080428ec     0xc  Data  Gb  LS-Font20n_.o [1]
acGUI_FontLSFont20n__003B
                        0x080428f8     0xc  Data  Gb  LS-Font20n_.o [1]
acGUI_FontLSFont20n__003C
                        0x08042904    0x10  Data  Gb  LS-Font20n_.o [1]
acGUI_FontLSFont20n__003D
                        0x08042914     0xc  Data  Gb  LS-Font20n_.o [1]
acGUI_FontLSFont20n__003E
                        0x08042920    0x10  Data  Gb  LS-Font20n_.o [1]
acGUI_FontLSFont20n__003F
                        0x08042930    0x20  Data  Gb  LS-Font20n_.o [1]
acGUI_FontLSFont20n__0040
                        0x08042950    0x20  Data  Gb  LS-Font20n_.o [1]
acGUI_FontLSFont20n__0041
                        0x08042970    0x20  Data  Gb  LS-Font20n_.o [1]
acGUI_FontLSFont20n__0042
                        0x08042990    0x20  Data  Gb  LS-Font20n_.o [1]
acGUI_FontLSFont20n__0043
                        0x080429b0    0x20  Data  Gb  LS-Font20n_.o [1]
acGUI_FontLSFont20n__0044
                        0x080429d0    0x20  Data  Gb  LS-Font20n_.o [1]
acGUI_FontLSFont20n__0045
                        0x080429f0    0x20  Data  Gb  LS-Font20n_.o [1]
acGUI_FontLSFont20n__0046
                        0x08042a10    0x20  Data  Gb  LS-Font20n_.o [1]
acGUI_FontLSFont20n__0047
                        0x08042a30    0x20  Data  Gb  LS-Font20n_.o [1]
acGUI_FontLSFont20n__0048
                        0x08042a50    0x20  Data  Gb  LS-Font20n_.o [1]
acGUI_FontLSFont20n__0049
                        0x08042a70    0x10  Data  Gb  LS-Font20n_.o [1]
acGUI_FontLSFont20n__004A
                        0x08042a80    0x10  Data  Gb  LS-Font20n_.o [1]
acGUI_FontLSFont20n__004B
                        0x08042a90    0x20  Data  Gb  LS-Font20n_.o [1]
acGUI_FontLSFont20n__004C
                        0x08042ab0    0x20  Data  Gb  LS-Font20n_.o [1]
acGUI_FontLSFont20n__004D
                        0x08042ad0    0x20  Data  Gb  LS-Font20n_.o [1]
acGUI_FontLSFont20n__004E
                        0x08042af0    0x20  Data  Gb  LS-Font20n_.o [1]
acGUI_FontLSFont20n__004F
                        0x08042b10    0x20  Data  Gb  LS-Font20n_.o [1]
acGUI_FontLSFont20n__0050
                        0x08042b30    0x20  Data  Gb  LS-Font20n_.o [1]
acGUI_FontLSFont20n__0051
                        0x08042b50    0x20  Data  Gb  LS-Font20n_.o [1]
acGUI_FontLSFont20n__0052
                        0x08042b70    0x20  Data  Gb  LS-Font20n_.o [1]
acGUI_FontLSFont20n__0053
                        0x08042b90    0x20  Data  Gb  LS-Font20n_.o [1]
acGUI_FontLSFont20n__0054
                        0x08042bb0    0x20  Data  Gb  LS-Font20n_.o [1]
acGUI_FontLSFont20n__0055
                        0x08042bd0    0x20  Data  Gb  LS-Font20n_.o [1]
acGUI_FontLSFont20n__0056
                        0x08042bf0    0x20  Data  Gb  LS-Font20n_.o [1]
acGUI_FontLSFont20n__0057
                        0x08042c10    0x20  Data  Gb  LS-Font20n_.o [1]
acGUI_FontLSFont20n__0058
                        0x08042c30    0x20  Data  Gb  LS-Font20n_.o [1]
acGUI_FontLSFont20n__0059
                        0x08042c50    0x20  Data  Gb  LS-Font20n_.o [1]
acGUI_FontLSFont20n__005A
                        0x08042c70    0x1c  Data  Gb  LS-Font20n_.o [1]
acGUI_FontLSFont20n__005B
                        0x08042c8c    0x14  Data  Gb  LS-Font20n_.o [1]
acGUI_FontLSFont20n__005C
                        0x08042ca0    0x30  Data  Gb  LS-Font20n_.o [1]
acGUI_FontLSFont20n__005D
                        0x08042cd0    0x14  Data  Gb  LS-Font20n_.o [1]
acGUI_FontLSFont20n__005E
                        0x08042ce4     0xc  Data  Gb  LS-Font20n_.o [1]
acGUI_FontLSFont20n__005F
                        0x08042cf0     0x2  Data  Gb  LS-Font20n_.o [1]
acGUI_FontLSFont20n__0060
                        0x08042cf4     0x4  Data  Gb  LS-Font20n_.o [1]
acGUI_FontLSFont20n__0061
                        0x08042cf8    0x18  Data  Gb  LS-Font20n_.o [1]
acGUI_FontLSFont20n__0062
                        0x08042d10    0x10  Data  Gb  LS-Font20n_.o [1]
acGUI_FontLSFont20n__0063
                        0x08042d20     0xc  Data  Gb  LS-Font20n_.o [1]
acGUI_FontLSFont20n__0064
                        0x08042d2c    0x10  Data  Gb  LS-Font20n_.o [1]
acGUI_FontLSFont20n__0065
                        0x08042d3c    0x18  Data  Gb  LS-Font20n_.o [1]
acGUI_FontLSFont20n__0066
                        0x08042d54    0x10  Data  Gb  LS-Font20n_.o [1]
acGUI_FontLSFont20n__0067
                        0x08042d64    0x10  Data  Gb  LS-Font20n_.o [1]
acGUI_FontLSFont20n__0068
                        0x08042d74    0x10  Data  Gb  LS-Font20n_.o [1]
acGUI_FontLSFont20n__0069
                        0x08042d84    0x10  Data  Gb  LS-Font20n_.o [1]
acGUI_FontLSFont20n__006A
                        0x08042d94    0x14  Data  Gb  LS-Font20n_.o [1]
acGUI_FontLSFont20n__006B
                        0x08042da8    0x10  Data  Gb  LS-Font20n_.o [1]
acGUI_FontLSFont20n__006C
                        0x08042db8    0x10  Data  Gb  LS-Font20n_.o [1]
acGUI_FontLSFont20n__006D
                        0x08042dc8    0x18  Data  Gb  LS-Font20n_.o [1]
acGUI_FontLSFont20n__006E
                        0x08042de0     0xc  Data  Gb  LS-Font20n_.o [1]
acGUI_FontLSFont20n__006F
                        0x08042dec    0x18  Data  Gb  LS-Font20n_.o [1]
acGUI_FontLSFont20n__0070
                        0x08042e04    0x1c  Data  Gb  LS-Font20n_.o [1]
acGUI_FontLSFont20n__0071
                        0x08042e20    0x1c  Data  Gb  LS-Font20n_.o [1]
acGUI_FontLSFont20n__0072
                        0x08042e3c     0xc  Data  Gb  LS-Font20n_.o [1]
acGUI_FontLSFont20n__0073
                        0x08042e48     0xc  Data  Gb  LS-Font20n_.o [1]
acGUI_FontLSFont20n__0074
                        0x08042e54    0x10  Data  Gb  LS-Font20n_.o [1]
acGUI_FontLSFont20n__0075
                        0x08042e64     0xc  Data  Gb  LS-Font20n_.o [1]
acGUI_FontLSFont20n__0076
                        0x08042e70    0x18  Data  Gb  LS-Font20n_.o [1]
acGUI_FontLSFont20n__0077
                        0x08042e88    0x18  Data  Gb  LS-Font20n_.o [1]
acGUI_FontLSFont20n__0078
                        0x08042ea0    0x18  Data  Gb  LS-Font20n_.o [1]
acGUI_FontLSFont20n__0079
                        0x08042eb8    0x1c  Data  Gb  LS-Font20n_.o [1]
acGUI_FontLSFont20n__007A
                        0x08042ed4     0xc  Data  Gb  LS-Font20n_.o [1]
acGUI_FontLSFont20n__007B
                        0x08042ee0    0x14  Data  Gb  LS-Font20n_.o [1]
acGUI_FontLSFont20n__007C
                        0x08042ef4    0x14  Data  Gb  LS-Font20n_.o [1]
acGUI_FontLSFont20n__007D
                        0x08042f08    0x14  Data  Gb  LS-Font20n_.o [1]
acGUI_FontLSFont20n__007E
                        0x08042f1c     0x8  Data  Gb  LS-Font20n_.o [1]
acGUI_FontLSFont20n__007F
                        0x08042f24    0x20  Data  Gb  LS-Font20n_.o [1]
acGUI_FontLSFont20n__00B0
                        0x08042f44     0x8  Data  Gb  LS-Font20n_.o [1]
acGUI_FontLSFont20n__0394
                        0x08042f4c    0x1c  Data  Gb  LS-Font20n_.o [1]
acGUI_FontLSFont20n__2103
                        0x08042f68    0x20  Data  Gb  LS-Font20n_.o [1]
acGUI_FontLSFont20n__2105
                        0x08042f88    0x1c  Data  Gb  LS-Font20n_.o [1]
acGUI_FontLSFont20n__2109
                        0x08042fa4    0x20  Data  Gb  LS-Font20n_.o [1]
acGUI_FontLSFont20n__2126
                        0x08042fc4    0x1c  Data  Gb  LS-Font20n_.o [1]
acGUI_FontLSFont20n__2160
                        0x08042fe0    0x10  Data  Gb  LS-Font20n_.o [1]
acGUI_FontLSFont20n__2161
                        0x08042ff0    0x10  Data  Gb  LS-Font20n_.o [1]
acGUI_FontLSFont20n__2162
                        0x08043000    0x20  Data  Gb  LS-Font20n_.o [1]
acGUI_FontLSFont20n__2163
                        0x08043020    0x20  Data  Gb  LS-Font20n_.o [1]
acGUI_FontLSFont20n__2164
                        0x08043040    0x20  Data  Gb  LS-Font20n_.o [1]
acGUI_FontLSFont20n__2165
                        0x08043060    0x20  Data  Gb  LS-Font20n_.o [1]
acGUI_FontLSFont20n__2166
                        0x08043080    0x20  Data  Gb  LS-Font20n_.o [1]
acGUI_FontLSFont20n__2167
                        0x080430a0    0x20  Data  Gb  LS-Font20n_.o [1]
acGUI_FontLSFont20n__2168
                        0x080430c0    0x20  Data  Gb  LS-Font20n_.o [1]
acGUI_FontLSFont20n__2169
                        0x080430e0    0x20  Data  Gb  LS-Font20n_.o [1]
acGUI_FontLSFont20n__2170
                        0x08043100    0x10  Data  Gb  LS-Font20n_.o [1]
acGUI_FontLSFont20n__2171
                        0x08043110    0x10  Data  Gb  LS-Font20n_.o [1]
acGUI_FontLSFont20n__2172
                        0x08043120    0x20  Data  Gb  LS-Font20n_.o [1]
acGUI_FontLSFont20n__2173
                        0x08043140    0x20  Data  Gb  LS-Font20n_.o [1]
acGUI_FontLSFont20n__2174
                        0x08043160     0xc  Data  Gb  LS-Font20n_.o [1]
acGUI_FontLSFont20n__2175
                        0x0804316c    0x20  Data  Gb  LS-Font20n_.o [1]
acGUI_FontLSFont20n__2176
                        0x0804318c    0x20  Data  Gb  LS-Font20n_.o [1]
acGUI_FontLSFont20n__2177
                        0x080431ac    0x20  Data  Gb  LS-Font20n_.o [1]
acGUI_FontLSFont20n__2178
                        0x080431cc    0x20  Data  Gb  LS-Font20n_.o [1]
acGUI_FontLSFont20n__2179
                        0x080431ec    0x18  Data  Gb  LS-Font20n_.o [1]
acGUI_FontLSFont20n__217A
                        0x08043204    0x20  Data  Gb  LS-Font20n_.o [1]
acGUI_FontLSFont20n__217B
                        0x08043224    0x20  Data  Gb  LS-Font20n_.o [1]
acGUI_FontLSFont20n__4E00
                        0x08043244     0x4  Data  Gb  LS-Font20n_.o [1]
acGUI_FontLSFont20n__4E09
                        0x08043248    0x34  Data  Gb  LS-Font20n_.o [1]
acGUI_FontLSFont20n__4E0A
                        0x0804327c    0x34  Data  Gb  LS-Font20n_.o [1]
acGUI_FontLSFont20n__4E0B
                        0x080432b0    0x38  Data  Gb  LS-Font20n_.o [1]
acGUI_FontLSFont20n__4E0D
                        0x080432e8    0x38  Data  Gb  LS-Font20n_.o [1]
acGUI_FontLSFont20n__4E1F
                        0x08043320    0x34  Data  Gb  LS-Font20n_.o [1]
acGUI_FontLSFont20n__4E22
                        0x08043354    0x34  Data  Gb  LS-Font20n_.o [1]
acGUI_FontLSFont20n__4E2D
                        0x08043388    0x28  Data  Gb  LS-Font20n_.o [1]
acGUI_FontLSFont20n__4E3B
                        0x080433b0    0x38  Data  Gb  LS-Font20n_.o [1]
acGUI_FontLSFont20n__4E4F
                        0x080433e8    0x38  Data  Gb  LS-Font20n_.o [1]
acGUI_FontLSFont20n__4E8B
                        0x08043420    0x38  Data  Gb  LS-Font20n_.o [1]
acGUI_FontLSFont20n__4E8E
                        0x08043458    0x38  Data  Gb  LS-Font20n_.o [1]
acGUI_FontLSFont20n__4EA4
                        0x08043490    0x3c  Data  Gb  LS-Font20n_.o [1]
acGUI_FontLSFont20n__4EA7
                        0x080434cc    0x38  Data  Gb  LS-Font20n_.o [1]
acGUI_FontLSFont20n__4EAE
                        0x08043504    0x3c  Data  Gb  LS-Font20n_.o [1]
acGUI_FontLSFont20n__4EBA
                        0x08043540    0x38  Data  Gb  LS-Font20n_.o [1]
acGUI_FontLSFont20n__4ED6
                        0x08043578    0x3c  Data  Gb  LS-Font20n_.o [1]
acGUI_FontLSFont20n__4EE3
                        0x080435b4    0x38  Data  Gb  LS-Font20n_.o [1]
acGUI_FontLSFont20n__4EEA
                        0x080435ec    0x3c  Data  Gb  LS-Font20n_.o [1]
acGUI_FontLSFont20n__4EF6
                        0x08043628    0x38  Data  Gb  LS-Font20n_.o [1]
acGUI_FontLSFont20n__4EFB
                        0x08043660    0x3c  Data  Gb  LS-Font20n_.o [1]
acGUI_FontLSFont20n__4F20
                        0x0804369c    0x38  Data  Gb  LS-Font20n_.o [1]
acGUI_FontLSFont20n__4F4D
                        0x080436d4    0x3c  Data  Gb  LS-Font20n_.o [1]
acGUI_FontLSFont20n__4F4E
                        0x08043710    0x38  Data  Gb  LS-Font20n_.o [1]
acGUI_FontLSFont20n__4F59
                        0x08043748    0x3c  Data  Gb  LS-Font20n_.o [1]
acGUI_FontLSFont20n__4F5C
                        0x08043784    0x38  Data  Gb  LS-Font20n_.o [1]
acGUI_FontLSFont20n__4F60
                        0x080437bc    0x3c  Data  Gb  LS-Font20n_.o [1]
acGUI_FontLSFont20n__4F7F
                        0x080437f8    0x3c  Data  Gb  LS-Font20n_.o [1]
acGUI_FontLSFont20n__4F9B
                        0x08043834    0x38  Data  Gb  LS-Font20n_.o [1]
acGUI_FontLSFont20n__4FC4
                        0x0804386c    0x38  Data  Gb  LS-Font20n_.o [1]
acGUI_FontLSFont20n__4FDD
                        0x080438a4    0x3c  Data  Gb  LS-Font20n_.o [1]
acGUI_FontLSFont20n__4FE1
                        0x080438e0    0x3c  Data  Gb  LS-Font20n_.o [1]
acGUI_FontLSFont20n__5012
                        0x0804391c    0x3c  Data  Gb  LS-Font20n_.o [1]
acGUI_FontLSFont20n__503C
                        0x08043958    0x38  Data  Gb  LS-Font20n_.o [1]
acGUI_FontLSFont20n__50A8
                        0x08043990    0x3c  Data  Gb  LS-Font20n_.o [1]
acGUI_FontLSFont20n__50CF
                        0x080439cc    0x3c  Data  Gb  LS-Font20n_.o [1]
acGUI_FontLSFont20n__5145
                        0x08043a08    0x3c  Data  Gb  LS-Font20n_.o [1]
acGUI_FontLSFont20n__5165
                        0x08043a44    0x38  Data  Gb  LS-Font20n_.o [1]
acGUI_FontLSFont20n__5168
                        0x08043a7c    0x38  Data  Gb  LS-Font20n_.o [1]
acGUI_FontLSFont20n__516C
                        0x08043ab4    0x3c  Data  Gb  LS-Font20n_.o [1]
acGUI_FontLSFont20n__5171
                        0x08043af0    0x3c  Data  Gb  LS-Font20n_.o [1]
acGUI_FontLSFont20n__5173
                        0x08043b2c    0x3c  Data  Gb  LS-Font20n_.o [1]
acGUI_FontLSFont20n__5176
                        0x08043b68    0x38  Data  Gb  LS-Font20n_.o [1]
acGUI_FontLSFont20n__5185
                        0x08043ba0    0x3c  Data  Gb  LS-Font20n_.o [1]
acGUI_FontLSFont20n__5199
                        0x08043bdc    0x38  Data  Gb  LS-Font20n_.o [1]
acGUI_FontLSFont20n__51B2
                        0x08043c14    0x38  Data  Gb  LS-Font20n_.o [1]
acGUI_FontLSFont20n__51B7
                        0x08043c4c    0x38  Data  Gb  LS-Font20n_.o [1]
acGUI_FontLSFont20n__51C6
                        0x08043c84    0x3c  Data  Gb  LS-Font20n_.o [1]
acGUI_FontLSFont20n__51CF
                        0x08043cc0    0x38  Data  Gb  LS-Font20n_.o [1]
acGUI_FontLSFont20n__51FA
                        0x08043cf8    0x24  Data  Gb  LS-Font20n_.o [1]
acGUI_FontLSFont20n__5206
                        0x08043d1c    0x38  Data  Gb  LS-Font20n_.o [1]
acGUI_FontLSFont20n__5217
                        0x08043d54    0x38  Data  Gb  LS-Font20n_.o [1]
acGUI_FontLSFont20n__521D
                        0x08043d8c    0x3c  Data  Gb  LS-Font20n_.o [1]
acGUI_FontLSFont20n__5220
                        0x08043dc8    0x38  Data  Gb  LS-Font20n_.o [1]
acGUI_FontLSFont20n__5230
                        0x08043e00    0x3c  Data  Gb  LS-Font20n_.o [1]
acGUI_FontLSFont20n__5236
                        0x08043e3c    0x3c  Data  Gb  LS-Font20n_.o [1]
acGUI_FontLSFont20n__524D
                        0x08043e78    0x3c  Data  Gb  LS-Font20n_.o [1]
acGUI_FontLSFont20n__5269
                        0x08043eb4    0x38  Data  Gb  LS-Font20n_.o [1]
acGUI_FontLSFont20n__5273
                        0x08043eec    0x38  Data  Gb  LS-Font20n_.o [1]
acGUI_FontLSFont20n__529F
                        0x08043f24    0x38  Data  Gb  LS-Font20n_.o [1]
acGUI_FontLSFont20n__52A0
                        0x08043f5c    0x38  Data  Gb  LS-Font20n_.o [1]
acGUI_FontLSFont20n__52A8
                        0x08043f94    0x38  Data  Gb  LS-Font20n_.o [1]
acGUI_FontLSFont20n__52B1
                        0x08043fcc    0x38  Data  Gb  LS-Font20n_.o [1]
acGUI_FontLSFont20n__5316
                        0x08044004    0x38  Data  Gb  LS-Font20n_.o [1]
acGUI_FontLSFont20n__5339
                        0x0804403c    0x38  Data  Gb  LS-Font20n_.o [1]
acGUI_FontLSFont20n__533A
                        0x08044074    0x38  Data  Gb  LS-Font20n_.o [1]
acGUI_FontLSFont20n__5355
                        0x080440ac    0x38  Data  Gb  LS-Font20n_.o [1]
acGUI_FontLSFont20n__5382
                        0x080440e4    0x38  Data  Gb  LS-Font20n_.o [1]
acGUI_FontLSFont20n__5386
                        0x0804411c    0x38  Data  Gb  LS-Font20n_.o [1]
acGUI_FontLSFont20n__538B
                        0x08044154    0x34  Data  Gb  LS-Font20n_.o [1]
acGUI_FontLSFont20n__539F
                        0x08044188    0x38  Data  Gb  LS-Font20n_.o [1]
acGUI_FontLSFont20n__53BB
                        0x080441c0    0x3c  Data  Gb  LS-Font20n_.o [1]
acGUI_FontLSFont20n__53C2
                        0x080441fc    0x3c  Data  Gb  LS-Font20n_.o [1]
acGUI_FontLSFont20n__53CD
                        0x08044238    0x38  Data  Gb  LS-Font20n_.o [1]
acGUI_FontLSFont20n__53D1
                        0x08044270    0x38  Data  Gb  LS-Font20n_.o [1]
acGUI_FontLSFont20n__53D6
                        0x080442a8    0x38  Data  Gb  LS-Font20n_.o [1]
acGUI_FontLSFont20n__53D8
                        0x080442e0    0x38  Data  Gb  LS-Font20n_.o [1]
acGUI_FontLSFont20n__53E3
                        0x08044318    0x24  Data  Gb  LS-Font20n_.o [1]
acGUI_FontLSFont20n__53F2
                        0x0804433c    0x38  Data  Gb  LS-Font20n_.o [1]
acGUI_FontLSFont20n__53F7
                        0x08044374    0x38  Data  Gb  LS-Font20n_.o [1]
acGUI_FontLSFont20n__53F8
                        0x080443ac    0x38  Data  Gb  LS-Font20n_.o [1]
acGUI_FontLSFont20n__5408
                        0x080443e4    0x38  Data  Gb  LS-Font20n_.o [1]
acGUI_FontLSFont20n__540C
                        0x0804441c    0x24  Data  Gb  LS-Font20n_.o [1]
acGUI_FontLSFont20n__540D
                        0x08044440    0x3c  Data  Gb  LS-Font20n_.o [1]
acGUI_FontLSFont20n__540E
                        0x0804447c    0x3c  Data  Gb  LS-Font20n_.o [1]
acGUI_FontLSFont20n__5411
                        0x080444b8    0x38  Data  Gb  LS-Font20n_.o [1]
acGUI_FontLSFont20n__5417
                        0x080444f0    0x38  Data  Gb  LS-Font20n_.o [1]
acGUI_FontLSFont20n__5426
                        0x08044528    0x38  Data  Gb  LS-Font20n_.o [1]
acGUI_FontLSFont20n__542F
                        0x08044560    0x24  Data  Gb  LS-Font20n_.o [1]
acGUI_FontLSFont20n__544A
                        0x08044584    0x38  Data  Gb  LS-Font20n_.o [1]
acGUI_FontLSFont20n__5468
                        0x080445bc    0x38  Data  Gb  LS-Font20n_.o [1]
acGUI_FontLSFont20n__547D
                        0x080445f4    0x38  Data  Gb  LS-Font20n_.o [1]
acGUI_FontLSFont20n__548C
                        0x0804462c    0x38  Data  Gb  LS-Font20n_.o [1]
acGUI_FontLSFont20n__54C1
                        0x08044664    0x34  Data  Gb  LS-Font20n_.o [1]
acGUI_FontLSFont20n__5546
                        0x08044698    0x3c  Data  Gb  LS-Font20n_.o [1]
acGUI_FontLSFont20n__5668
                        0x080446d4    0x38  Data  Gb  LS-Font20n_.o [1]
acGUI_FontLSFont20n__56DE
                        0x0804470c    0x38  Data  Gb  LS-Font20n_.o [1]
acGUI_FontLSFont20n__56E0
                        0x08044744    0x38  Data  Gb  LS-Font20n_.o [1]
acGUI_FontLSFont20n__56F4
                        0x0804477c    0x38  Data  Gb  LS-Font20n_.o [1]
acGUI_FontLSFont20n__56FD
                        0x080447b4    0x38  Data  Gb  LS-Font20n_.o [1]
acGUI_FontLSFont20n__56FE
                        0x080447ec    0x38  Data  Gb  LS-Font20n_.o [1]
acGUI_FontLSFont20n__5728
                        0x08044824    0x3c  Data  Gb  LS-Font20n_.o [1]
acGUI_FontLSFont20n__5730
                        0x08044860    0x38  Data  Gb  LS-Font20n_.o [1]
acGUI_FontLSFont20n__5740
                        0x08044898    0x38  Data  Gb  LS-Font20n_.o [1]
acGUI_FontLSFont20n__578B
                        0x080448d0    0x38  Data  Gb  LS-Font20n_.o [1]
acGUI_FontLSFont20n__57DF
                        0x08044908    0x38  Data  Gb  LS-Font20n_.o [1]
acGUI_FontLSFont20n__57F9
                        0x08044940    0x3c  Data  Gb  LS-Font20n_.o [1]
acGUI_FontLSFont20n__57FA
                        0x0804497c    0x38  Data  Gb  LS-Font20n_.o [1]
acGUI_FontLSFont20n__5883
                        0x080449b4    0x3c  Data  Gb  LS-Font20n_.o [1]
acGUI_FontLSFont20n__5904
                        0x080449f0    0x3c  Data  Gb  LS-Font20n_.o [1]
acGUI_FontLSFont20n__5907
                        0x08044a2c    0x3c  Data  Gb  LS-Font20n_.o [1]
acGUI_FontLSFont20n__590D
                        0x08044a68    0x3c  Data  Gb  LS-Font20n_.o [1]
acGUI_FontLSFont20n__5916
                        0x08044aa4    0x3c  Data  Gb  LS-Font20n_.o [1]
acGUI_FontLSFont20n__5927
                        0x08044ae0    0x3c  Data  Gb  LS-Font20n_.o [1]
acGUI_FontLSFont20n__592E
                        0x08044b1c    0x3c  Data  Gb  LS-Font20n_.o [1]
acGUI_FontLSFont20n__5931
                        0x08044b58    0x3c  Data  Gb  LS-Font20n_.o [1]
acGUI_FontLSFont20n__5934
                        0x08044b94    0x3c  Data  Gb  LS-Font20n_.o [1]
acGUI_FontLSFont20n__597D
                        0x08044bd0    0x3c  Data  Gb  LS-Font20n_.o [1]
acGUI_FontLSFont20n__59CB
                        0x08044c0c    0x3c  Data  Gb  LS-Font20n_.o [1]
acGUI_FontLSFont20n__5B50
                        0x08044c48    0x3c  Data  Gb  LS-Font20n_.o [1]
acGUI_FontLSFont20n__5B57
                        0x08044c84    0x3c  Data  Gb  LS-Font20n_.o [1]
acGUI_FontLSFont20n__5B58
                        0x08044cc0    0x3c  Data  Gb  LS-Font20n_.o [1]
acGUI_FontLSFont20n__5B85
                        0x08044cfc    0x3c  Data  Gb  LS-Font20n_.o [1]
acGUI_FontLSFont20n__5B89
                        0x08044d38    0x3c  Data  Gb  LS-Font20n_.o [1]
acGUI_FontLSFont20n__5B8C
                        0x08044d74    0x3c  Data  Gb  LS-Font20n_.o [1]
acGUI_FontLSFont20n__5B9A
                        0x08044db0    0x3c  Data  Gb  LS-Font20n_.o [1]
acGUI_FontLSFont20n__5B9E
                        0x08044dec    0x3c  Data  Gb  LS-Font20n_.o [1]
acGUI_FontLSFont20n__5BC4
                        0x08044e28    0x3c  Data  Gb  LS-Font20n_.o [1]
acGUI_FontLSFont20n__5BC6
                        0x08044e64    0x3c  Data  Gb  LS-Font20n_.o [1]
acGUI_FontLSFont20n__5BFF
                        0x08044ea0    0x3c  Data  Gb  LS-Font20n_.o [1]
acGUI_FontLSFont20n__5C04
                        0x08044edc    0x3c  Data  Gb  LS-Font20n_.o [1]
acGUI_FontLSFont20n__5C0F
                        0x08044f18    0x3c  Data  Gb  LS-Font20n_.o [1]
acGUI_FontLSFont20n__5C40
                        0x08044f54    0x3c  Data  Gb  LS-Font20n_.o [1]
acGUI_FontLSFont20n__5C4F
                        0x08044f90    0x3c  Data  Gb  LS-Font20n_.o [1]
acGUI_FontLSFont20n__5DE5
                        0x08044fcc    0x38  Data  Gb  LS-Font20n_.o [1]
acGUI_FontLSFont20n__5E27
                        0x08045004    0x3c  Data  Gb  LS-Font20n_.o [1]
acGUI_FontLSFont20n__5E38
                        0x08045040    0x3c  Data  Gb  LS-Font20n_.o [1]
acGUI_FontLSFont20n__5E45
                        0x0804507c    0x3c  Data  Gb  LS-Font20n_.o [1]
acGUI_FontLSFont20n__5E55
                        0x080450b8    0x3c  Data  Gb  LS-Font20n_.o [1]
acGUI_FontLSFont20n__5E73
                        0x080450f4    0x3c  Data  Gb  LS-Font20n_.o [1]
acGUI_FontLSFont20n__5E74
                        0x08045130    0x3c  Data  Gb  LS-Font20n_.o [1]
acGUI_FontLSFont20n__5E76
                        0x0804516c    0x3c  Data  Gb  LS-Font20n_.o [1]
acGUI_FontLSFont20n__5E8F
                        0x080451a8    0x3c  Data  Gb  LS-Font20n_.o [1]
acGUI_FontLSFont20n__5E94
                        0x080451e4    0x3c  Data  Gb  LS-Font20n_.o [1]
acGUI_FontLSFont20n__5EA6
                        0x08045220    0x3c  Data  Gb  LS-Font20n_.o [1]
acGUI_FontLSFont20n__5EF6
                        0x0804525c    0x3c  Data  Gb  LS-Font20n_.o [1]
acGUI_FontLSFont20n__5F00
                        0x08045298    0x3c  Data  Gb  LS-Font20n_.o [1]
acGUI_FontLSFont20n__5F02
                        0x080452d4    0x3c  Data  Gb  LS-Font20n_.o [1]
acGUI_FontLSFont20n__5F0F
                        0x08045310    0x3c  Data  Gb  LS-Font20n_.o [1]
acGUI_FontLSFont20n__5F55
                        0x0804534c    0x3c  Data  Gb  LS-Font20n_.o [1]
acGUI_FontLSFont20n__5F62
                        0x08045388    0x3c  Data  Gb  LS-Font20n_.o [1]
acGUI_FontLSFont20n__5F85
                        0x080453c4    0x3c  Data  Gb  LS-Font20n_.o [1]
acGUI_FontLSFont20n__6001
                        0x08045400    0x3c  Data  Gb  LS-Font20n_.o [1]
acGUI_FontLSFont20n__6027
                        0x0804543c    0x3c  Data  Gb  LS-Font20n_.o [1]
acGUI_FontLSFont20n__606F
                        0x08045478    0x3c  Data  Gb  LS-Font20n_.o [1]
acGUI_FontLSFont20n__60F3
                        0x080454b4    0x3c  Data  Gb  LS-Font20n_.o [1]
acGUI_FontLSFont20n__610F
                        0x080454f0    0x3c  Data  Gb  LS-Font20n_.o [1]
acGUI_FontLSFont20n__6210
                        0x0804552c    0x3c  Data  Gb  LS-Font20n_.o [1]
acGUI_FontLSFont20n__6211
                        0x08045568    0x3c  Data  Gb  LS-Font20n_.o [1]
acGUI_FontLSFont20n__6216
                        0x080455a4    0x3c  Data  Gb  LS-Font20n_.o [1]
acGUI_FontLSFont20n__6237
                        0x080455e0    0x3c  Data  Gb  LS-Font20n_.o [1]
acGUI_FontLSFont20n__6240
                        0x0804561c    0x3c  Data  Gb  LS-Font20n_.o [1]
acGUI_FontLSFont20n__624B
                        0x08045658    0x3c  Data  Gb  LS-Font20n_.o [1]
acGUI_FontLSFont20n__6253
                        0x08045694    0x3c  Data  Gb  LS-Font20n_.o [1]
acGUI_FontLSFont20n__6263
                        0x080456d0    0x3c  Data  Gb  LS-Font20n_.o [1]
acGUI_FontLSFont20n__62A4
                        0x0804570c    0x3c  Data  Gb  LS-Font20n_.o [1]
acGUI_FontLSFont20n__62A5
                        0x08045748    0x3c  Data  Gb  LS-Font20n_.o [1]
acGUI_FontLSFont20n__62BD
                        0x08045784    0x3c  Data  Gb  LS-Font20n_.o [1]
acGUI_FontLSFont20n__62DF
                        0x080457c0    0x3c  Data  Gb  LS-Font20n_.o [1]
acGUI_FontLSFont20n__62E9
                        0x080457fc    0x3c  Data  Gb  LS-Font20n_.o [1]
acGUI_FontLSFont20n__6301
                        0x08045838    0x3c  Data  Gb  LS-Font20n_.o [1]
acGUI_FontLSFont20n__6309
                        0x08045874    0x3c  Data  Gb  LS-Font20n_.o [1]
acGUI_FontLSFont20n__632F
                        0x080458b0    0x3c  Data  Gb  LS-Font20n_.o [1]
acGUI_FontLSFont20n__635F
                        0x080458ec    0x3c  Data  Gb  LS-Font20n_.o [1]
acGUI_FontLSFont20n__6362
                        0x08045928    0x3c  Data  Gb  LS-Font20n_.o [1]
acGUI_FontLSFont20n__636E
                        0x08045964    0x3c  Data  Gb  LS-Font20n_.o [1]
acGUI_FontLSFont20n__6389
                        0x080459a0    0x3c  Data  Gb  LS-Font20n_.o [1]
acGUI_FontLSFont20n__63A5
                        0x080459dc    0x3c  Data  Gb  LS-Font20n_.o [1]
acGUI_FontLSFont20n__63A7
                        0x08045a18    0x3c  Data  Gb  LS-Font20n_.o [1]
acGUI_FontLSFont20n__63A8
                        0x08045a54    0x3c  Data  Gb  LS-Font20n_.o [1]
acGUI_FontLSFont20n__63CF
                        0x08045a90    0x3c  Data  Gb  LS-Font20n_.o [1]
acGUI_FontLSFont20n__63D2
                        0x08045acc    0x3c  Data  Gb  LS-Font20n_.o [1]
acGUI_FontLSFont20n__64CD
                        0x08045b08    0x3c  Data  Gb  LS-Font20n_.o [1]
acGUI_FontLSFont20n__6536
                        0x08045b44    0x3c  Data  Gb  LS-Font20n_.o [1]
acGUI_FontLSFont20n__6539
                        0x08045b80    0x3c  Data  Gb  LS-Font20n_.o [1]
acGUI_FontLSFont20n__6545
                        0x08045bbc    0x3c  Data  Gb  LS-Font20n_.o [1]
acGUI_FontLSFont20n__6570
                        0x08045bf8    0x3c  Data  Gb  LS-Font20n_.o [1]
acGUI_FontLSFont20n__6587
                        0x08045c34    0x3c  Data  Gb  LS-Font20n_.o [1]
acGUI_FontLSFont20n__65AD
                        0x08045c70    0x3c  Data  Gb  LS-Font20n_.o [1]
acGUI_FontLSFont20n__65AF
                        0x08045cac    0x3c  Data  Gb  LS-Font20n_.o [1]
acGUI_FontLSFont20n__65B0
                        0x08045ce8    0x3c  Data  Gb  LS-Font20n_.o [1]
acGUI_FontLSFont20n__65B9
                        0x08045d24    0x3c  Data  Gb  LS-Font20n_.o [1]
acGUI_FontLSFont20n__65C5
                        0x08045d60    0x3c  Data  Gb  LS-Font20n_.o [1]
acGUI_FontLSFont20n__65CB
                        0x08045d9c    0x3c  Data  Gb  LS-Font20n_.o [1]
acGUI_FontLSFont20n__65E0
                        0x08045dd8    0x38  Data  Gb  LS-Font20n_.o [1]
acGUI_FontLSFont20n__65E5
                        0x08045e10    0x28  Data  Gb  LS-Font20n_.o [1]
acGUI_FontLSFont20n__65E7
                        0x08045e38    0x28  Data  Gb  LS-Font20n_.o [1]
acGUI_FontLSFont20n__65F6
                        0x08045e60    0x3c  Data  Gb  LS-Font20n_.o [1]
acGUI_FontLSFont20n__660E
                        0x08045e9c    0x3c  Data  Gb  LS-Font20n_.o [1]
acGUI_FontLSFont20n__6620
                        0x08045ed8    0x3c  Data  Gb  LS-Font20n_.o [1]
acGUI_FontLSFont20n__662F
                        0x08045f14    0x3c  Data  Gb  LS-Font20n_.o [1]
acGUI_FontLSFont20n__663E
                        0x08045f50    0x3c  Data  Gb  LS-Font20n_.o [1]
acGUI_FontLSFont20n__6670
                        0x08045f8c    0x3c  Data  Gb  LS-Font20n_.o [1]
acGUI_FontLSFont20n__66F4
                        0x08045fc8    0x3c  Data  Gb  LS-Font20n_.o [1]
acGUI_FontLSFont20n__6700
                        0x08046004    0x3c  Data  Gb  LS-Font20n_.o [1]
acGUI_FontLSFont20n__6708
                        0x08046040    0x3c  Data  Gb  LS-Font20n_.o [1]
acGUI_FontLSFont20n__6709
                        0x0804607c    0x3c  Data  Gb  LS-Font20n_.o [1]
acGUI_FontLSFont20n__671F
                        0x080460b8    0x3c  Data  Gb  LS-Font20n_.o [1]
acGUI_FontLSFont20n__672A
                        0x080460f4    0x3c  Data  Gb  LS-Font20n_.o [1]
acGUI_FontLSFont20n__672C
                        0x08046130    0x3c  Data  Gb  LS-Font20n_.o [1]
acGUI_FontLSFont20n__673A
                        0x0804616c    0x3c  Data  Gb  LS-Font20n_.o [1]
acGUI_FontLSFont20n__677F
                        0x080461a8    0x3c  Data  Gb  LS-Font20n_.o [1]
acGUI_FontLSFont20n__6781
                        0x080461e4    0x3c  Data  Gb  LS-Font20n_.o [1]
acGUI_FontLSFont20n__679C
                        0x08046220    0x3c  Data  Gb  LS-Font20n_.o [1]
acGUI_FontLSFont20n__67B6
                        0x0804625c    0x3c  Data  Gb  LS-Font20n_.o [1]
acGUI_FontLSFont20n__67E5
                        0x08046298    0x3c  Data  Gb  LS-Font20n_.o [1]
acGUI_FontLSFont20n__6821
                        0x080462d4    0x3c  Data  Gb  LS-Font20n_.o [1]
acGUI_FontLSFont20n__6846
                        0x08046310    0x3c  Data  Gb  LS-Font20n_.o [1]
acGUI_FontLSFont20n__68B0
                        0x0804634c    0x3c  Data  Gb  LS-Font20n_.o [1]
acGUI_FontLSFont20n__68C0
                        0x08046388    0x3c  Data  Gb  LS-Font20n_.o [1]
acGUI_FontLSFont20n__695A
                        0x080463c4    0x3c  Data  Gb  LS-Font20n_.o [1]
acGUI_FontLSFont20n__6982
                        0x08046400    0x3c  Data  Gb  LS-Font20n_.o [1]
acGUI_FontLSFont20n__6A21
                        0x0804643c    0x3c  Data  Gb  LS-Font20n_.o [1]
acGUI_FontLSFont20n__6B20
                        0x08046478    0x3c  Data  Gb  LS-Font20n_.o [1]
acGUI_FontLSFont20n__6B21
                        0x080464b4    0x3c  Data  Gb  LS-Font20n_.o [1]
acGUI_FontLSFont20n__6B63
                        0x080464f0    0x38  Data  Gb  LS-Font20n_.o [1]
acGUI_FontLSFont20n__6B65
                        0x08046528    0x3c  Data  Gb  LS-Font20n_.o [1]
acGUI_FontLSFont20n__6BB5
                        0x08046564    0x3c  Data  Gb  LS-Font20n_.o [1]
acGUI_FontLSFont20n__6C14
                        0x080465a0    0x3c  Data  Gb  LS-Font20n_.o [1]
acGUI_FontLSFont20n__6C42
                        0x080465dc    0x3c  Data  Gb  LS-Font20n_.o [1]
acGUI_FontLSFont20n__6C49
                        0x08046618    0x3c  Data  Gb  LS-Font20n_.o [1]
acGUI_FontLSFont20n__6C60
                        0x08046654    0x3c  Data  Gb  LS-Font20n_.o [1]
acGUI_FontLSFont20n__6C9F
                        0x08046690    0x3c  Data  Gb  LS-Font20n_.o [1]
acGUI_FontLSFont20n__6CA1
                        0x080466cc    0x3c  Data  Gb  LS-Font20n_.o [1]
acGUI_FontLSFont20n__6CD5
                        0x08046708    0x3c  Data  Gb  LS-Font20n_.o [1]
acGUI_FontLSFont20n__6CE2
                        0x08046744    0x3c  Data  Gb  LS-Font20n_.o [1]
acGUI_FontLSFont20n__6D41
                        0x08046780    0x3c  Data  Gb  LS-Font20n_.o [1]
acGUI_FontLSFont20n__6D4B
                        0x080467bc    0x3c  Data  Gb  LS-Font20n_.o [1]
acGUI_FontLSFont20n__6D88
                        0x080467f8    0x3c  Data  Gb  LS-Font20n_.o [1]
acGUI_FontLSFont20n__6E05
                        0x08046834    0x3c  Data  Gb  LS-Font20n_.o [1]
acGUI_FontLSFont20n__6E29
                        0x08046870    0x3c  Data  Gb  LS-Font20n_.o [1]
acGUI_FontLSFont20n__6E90
                        0x080468ac    0x3c  Data  Gb  LS-Font20n_.o [1]
acGUI_FontLSFont20n__6EDA
                        0x080468e8    0x3c  Data  Gb  LS-Font20n_.o [1]
acGUI_FontLSFont20n__6FC0
                        0x08046924    0x3c  Data  Gb  LS-Font20n_.o [1]
acGUI_FontLSFont20n__70B9
                        0x08046960    0x3c  Data  Gb  LS-Font20n_.o [1]
acGUI_FontLSFont20n__70ED
                        0x0804699c    0x3c  Data  Gb  LS-Font20n_.o [1]
acGUI_FontLSFont20n__7248
                        0x080469d8    0x3c  Data  Gb  LS-Font20n_.o [1]
acGUI_FontLSFont20n__7279
                        0x08046a14    0x3c  Data  Gb  LS-Font20n_.o [1]
acGUI_FontLSFont20n__72B6
                        0x08046a50    0x3c  Data  Gb  LS-Font20n_.o [1]
acGUI_FontLSFont20n__7387
                        0x08046a8c    0x3c  Data  Gb  LS-Font20n_.o [1]
acGUI_FontLSFont20n__73AF
                        0x08046ac8    0x3c  Data  Gb  LS-Font20n_.o [1]
acGUI_FontLSFont20n__73B0
                        0x08046b04    0x3c  Data  Gb  LS-Font20n_.o [1]
acGUI_FontLSFont20n__7406
                        0x08046b40    0x3c  Data  Gb  LS-Font20n_.o [1]
acGUI_FontLSFont20n__74E6
                        0x08046b7c    0x3c  Data  Gb  LS-Font20n_.o [1]
acGUI_FontLSFont20n__751F
                        0x08046bb8    0x3c  Data  Gb  LS-Font20n_.o [1]
acGUI_FontLSFont20n__7528
                        0x08046bf4    0x3c  Data  Gb  LS-Font20n_.o [1]
acGUI_FontLSFont20n__7535
                        0x08046c30    0x3c  Data  Gb  LS-Font20n_.o [1]
acGUI_FontLSFont20n__767B
                        0x08046c6c    0x3c  Data  Gb  LS-Font20n_.o [1]
acGUI_FontLSFont20n__7684
                        0x08046ca8    0x3c  Data  Gb  LS-Font20n_.o [1]
acGUI_FontLSFont20n__76EE
                        0x08046ce4    0x28  Data  Gb  LS-Font20n_.o [1]
acGUI_FontLSFont20n__76F8
                        0x08046d0c    0x3c  Data  Gb  LS-Font20n_.o [1]
acGUI_FontLSFont20n__77AC
                        0x08046d48    0x3c  Data  Gb  LS-Font20n_.o [1]
acGUI_FontLSFont20n__77E2
                        0x08046d84    0x3c  Data  Gb  LS-Font20n_.o [1]
acGUI_FontLSFont20n__77ED
                        0x08046dc0    0x3c  Data  Gb  LS-Font20n_.o [1]
acGUI_FontLSFont20n__7801
                        0x08046dfc    0x3c  Data  Gb  LS-Font20n_.o [1]
acGUI_FontLSFont20n__7834
                        0x08046e38    0x3c  Data  Gb  LS-Font20n_.o [1]
acGUI_FontLSFont20n__786C
                        0x08046e74    0x3c  Data  Gb  LS-Font20n_.o [1]
acGUI_FontLSFont20n__786E
                        0x08046eb0    0x3c  Data  Gb  LS-Font20n_.o [1]
acGUI_FontLSFont20n__78C1
                        0x08046eec    0x3c  Data  Gb  LS-Font20n_.o [1]
acGUI_FontLSFont20n__78E8
                        0x08046f28    0x3c  Data  Gb  LS-Font20n_.o [1]
acGUI_FontLSFont20n__793A
                        0x08046f64    0x3c  Data  Gb  LS-Font20n_.o [1]
acGUI_FontLSFont20n__79D2
                        0x08046fa0    0x3c  Data  Gb  LS-Font20n_.o [1]
acGUI_FontLSFont20n__79F0
                        0x08046fdc    0x3c  Data  Gb  LS-Font20n_.o [1]
acGUI_FontLSFont20n__7A0B
                        0x08047018    0x3c  Data  Gb  LS-Font20n_.o [1]
acGUI_FontLSFont20n__7A81
                        0x08047054    0x3c  Data  Gb  LS-Font20n_.o [1]
acGUI_FontLSFont20n__7B49
                        0x08047090    0x3c  Data  Gb  LS-Font20n_.o [1]
acGUI_FontLSFont20n__7C7B
                        0x080470cc    0x3c  Data  Gb  LS-Font20n_.o [1]
acGUI_FontLSFont20n__7CFB
                        0x08047108    0x38  Data  Gb  LS-Font20n_.o [1]
acGUI_FontLSFont20n__7D20
                        0x08047140    0x3c  Data  Gb  LS-Font20n_.o [1]
acGUI_FontLSFont20n__7EBF
                        0x0804717c    0x3c  Data  Gb  LS-Font20n_.o [1]
acGUI_FontLSFont20n__7EC4
                        0x080471b8    0x3c  Data  Gb  LS-Font20n_.o [1]
acGUI_FontLSFont20n__7ECA
                        0x080471f4    0x3c  Data  Gb  LS-Font20n_.o [1]
acGUI_FontLSFont20n__7ED3
                        0x08047230    0x3c  Data  Gb  LS-Font20n_.o [1]
acGUI_FontLSFont20n__7EDB
                        0x0804726c    0x3c  Data  Gb  LS-Font20n_.o [1]
acGUI_FontLSFont20n__7EDC
                        0x080472a8    0x3c  Data  Gb  LS-Font20n_.o [1]
acGUI_FontLSFont20n__7EDF
                        0x080472e4    0x3c  Data  Gb  LS-Font20n_.o [1]
acGUI_FontLSFont20n__7EE7
                        0x08047320    0x3c  Data  Gb  LS-Font20n_.o [1]
acGUI_FontLSFont20n__7EED
                        0x0804735c    0x3c  Data  Gb  LS-Font20n_.o [1]
acGUI_FontLSFont20n__7F13
                        0x08047398    0x3c  Data  Gb  LS-Font20n_.o [1]
acGUI_FontLSFont20n__7F3A
                        0x080473d4    0x3c  Data  Gb  LS-Font20n_.o [1]
acGUI_FontLSFont20n__7F51
                        0x08047410    0x3c  Data  Gb  LS-Font20n_.o [1]
acGUI_FontLSFont20n__7F57
                        0x0804744c    0x3c  Data  Gb  LS-Font20n_.o [1]
acGUI_FontLSFont20n__7F6E
                        0x08047488    0x3c  Data  Gb  LS-Font20n_.o [1]
acGUI_FontLSFont20n__7FFB
                        0x080474c4    0x3c  Data  Gb  LS-Font20n_.o [1]
acGUI_FontLSFont20n__8003
                        0x08047500    0x3c  Data  Gb  LS-Font20n_.o [1]
acGUI_FontLSFont20n__8054
                        0x0804753c    0x3c  Data  Gb  LS-Font20n_.o [1]
acGUI_FontLSFont20n__806A
                        0x08047578    0x3c  Data  Gb  LS-Font20n_.o [1]
acGUI_FontLSFont20n__80FD
                        0x080475b4    0x3c  Data  Gb  LS-Font20n_.o [1]
acGUI_FontLSFont20n__8109
                        0x080475f0    0x3c  Data  Gb  LS-Font20n_.o [1]
acGUI_FontLSFont20n__8131
                        0x0804762c    0x3c  Data  Gb  LS-Font20n_.o [1]
acGUI_FontLSFont20n__81EA
                        0x08047668    0x28  Data  Gb  LS-Font20n_.o [1]
acGUI_FontLSFont20n__81F4
                        0x08047690    0x3c  Data  Gb  LS-Font20n_.o [1]
acGUI_FontLSFont20n__82E5
                        0x080476cc    0x3c  Data  Gb  LS-Font20n_.o [1]
acGUI_FontLSFont20n__82F1
                        0x08047708    0x3c  Data  Gb  LS-Font20n_.o [1]
acGUI_FontLSFont20n__8303
                        0x08047744    0x3c  Data  Gb  LS-Font20n_.o [1]
acGUI_FontLSFont20n__8377
                        0x08047780    0x3c  Data  Gb  LS-Font20n_.o [1]
acGUI_FontLSFont20n__83DC
                        0x080477bc    0x3c  Data  Gb  LS-Font20n_.o [1]
acGUI_FontLSFont20n__8425
                        0x080477f8    0x3c  Data  Gb  LS-Font20n_.o [1]
acGUI_FontLSFont20n__884C
                        0x08047834    0x3c  Data  Gb  LS-Font20n_.o [1]
acGUI_FontLSFont20n__8861
                        0x08047870    0x3c  Data  Gb  LS-Font20n_.o [1]
acGUI_FontLSFont20n__8870
                        0x080478ac    0x3c  Data  Gb  LS-Font20n_.o [1]
acGUI_FontLSFont20n__88C5
                        0x080478e8    0x3c  Data  Gb  LS-Font20n_.o [1]
acGUI_FontLSFont20n__8981
                        0x08047924    0x3c  Data  Gb  LS-Font20n_.o [1]
acGUI_FontLSFont20n__89C8
                        0x08047960    0x3c  Data  Gb  LS-Font20n_.o [1]
acGUI_FontLSFont20n__89D2
                        0x0804799c    0x3c  Data  Gb  LS-Font20n_.o [1]
acGUI_FontLSFont20n__89E6
                        0x080479d8    0x3c  Data  Gb  LS-Font20n_.o [1]
acGUI_FontLSFont20n__8A00
                        0x08047a14    0x3c  Data  Gb  LS-Font20n_.o [1]
acGUI_FontLSFont20n__8B66
                        0x08047a50    0x3c  Data  Gb  LS-Font20n_.o [1]
acGUI_FontLSFont20n__8BA1
                        0x08047a8c    0x3c  Data  Gb  LS-Font20n_.o [1]
acGUI_FontLSFont20n__8BA4
                        0x08047ac8    0x3c  Data  Gb  LS-Font20n_.o [1]
acGUI_FontLSFont20n__8BAF
                        0x08047b04    0x3c  Data  Gb  LS-Font20n_.o [1]
acGUI_FontLSFont20n__8BB2
                        0x08047b40    0x3c  Data  Gb  LS-Font20n_.o [1]
acGUI_FontLSFont20n__8BBE
                        0x08047b7c    0x3c  Data  Gb  LS-Font20n_.o [1]
acGUI_FontLSFont20n__8BCA
                        0x08047bb8    0x3c  Data  Gb  LS-Font20n_.o [1]
acGUI_FontLSFont20n__8BD5
                        0x08047bf4    0x3c  Data  Gb  LS-Font20n_.o [1]
acGUI_FontLSFont20n__8BE2
                        0x08047c30    0x3c  Data  Gb  LS-Font20n_.o [1]
acGUI_FontLSFont20n__8BED
                        0x08047c6c    0x3c  Data  Gb  LS-Font20n_.o [1]
acGUI_FontLSFont20n__8BEF
                        0x08047ca8    0x3c  Data  Gb  LS-Font20n_.o [1]
acGUI_FontLSFont20n__8BF7
                        0x08047ce4    0x3c  Data  Gb  LS-Font20n_.o [1]
acGUI_FontLSFont20n__8BFB
                        0x08047d20    0x3c  Data  Gb  LS-Font20n_.o [1]
acGUI_FontLSFont20n__8C10
                        0x08047d5c    0x3c  Data  Gb  LS-Font20n_.o [1]
acGUI_FontLSFont20n__8D1F
                        0x08047d98    0x3c  Data  Gb  LS-Font20n_.o [1]
acGUI_FontLSFont20n__8D25
                        0x08047dd4    0x3c  Data  Gb  LS-Font20n_.o [1]
acGUI_FontLSFont20n__8D28
                        0x08047e10    0x3c  Data  Gb  LS-Font20n_.o [1]
acGUI_FontLSFont20n__8D85
                        0x08047e4c    0x3c  Data  Gb  LS-Font20n_.o [1]
acGUI_FontLSFont20n__8D8A
                        0x08047e88    0x3c  Data  Gb  LS-Font20n_.o [1]
acGUI_FontLSFont20n__8DEF
                        0x08047ec4    0x3c  Data  Gb  LS-Font20n_.o [1]
acGUI_FontLSFont20n__8DF3
                        0x08047f00    0x3c  Data  Gb  LS-Font20n_.o [1]
acGUI_FontLSFont20n__8F6C
                        0x08047f3c    0x3c  Data  Gb  LS-Font20n_.o [1]
acGUI_FontLSFont20n__8F6F
                        0x08047f78    0x3c  Data  Gb  LS-Font20n_.o [1]
acGUI_FontLSFont20n__8F7D
                        0x08047fb4    0x3c  Data  Gb  LS-Font20n_.o [1]
acGUI_FontLSFont20n__8F93
                        0x08047ff0    0x3c  Data  Gb  LS-Font20n_.o [1]
acGUI_FontLSFont20n__8FC7
                        0x0804802c    0x3c  Data  Gb  LS-Font20n_.o [1]
acGUI_FontLSFont20n__8FD0
                        0x08048068    0x3c  Data  Gb  LS-Font20n_.o [1]
acGUI_FontLSFont20n__8FD4
                        0x080480a4    0x3c  Data  Gb  LS-Font20n_.o [1]
acGUI_FontLSFont20n__8FDB
                        0x080480e0    0x3c  Data  Gb  LS-Font20n_.o [1]
acGUI_FontLSFont20n__8FDC
                        0x0804811c    0x3c  Data  Gb  LS-Font20n_.o [1]
acGUI_FontLSFont20n__8FDE
                        0x08048158    0x3c  Data  Gb  LS-Font20n_.o [1]
acGUI_FontLSFont20n__8FF0
                        0x08048194    0x3c  Data  Gb  LS-Font20n_.o [1]
acGUI_FontLSFont20n__9000
                        0x080481d0    0x3c  Data  Gb  LS-Font20n_.o [1]
acGUI_FontLSFont20n__9001
                        0x0804820c    0x3c  Data  Gb  LS-Font20n_.o [1]
acGUI_FontLSFont20n__9009
                        0x08048248    0x3c  Data  Gb  LS-Font20n_.o [1]
acGUI_FontLSFont20n__901A
                        0x08048284    0x3c  Data  Gb  LS-Font20n_.o [1]
acGUI_FontLSFont20n__901F
                        0x080482c0    0x3c  Data  Gb  LS-Font20n_.o [1]
acGUI_FontLSFont20n__9020
                        0x080482fc    0x3c  Data  Gb  LS-Font20n_.o [1]
acGUI_FontLSFont20n__90AE
                        0x08048338    0x3c  Data  Gb  LS-Font20n_.o [1]
acGUI_FontLSFont20n__90E8
                        0x08048374    0x3c  Data  Gb  LS-Font20n_.o [1]
acGUI_FontLSFont20n__914D
                        0x080483b0    0x3c  Data  Gb  LS-Font20n_.o [1]
acGUI_FontLSFont20n__91CD
                        0x080483ec    0x3c  Data  Gb  LS-Font20n_.o [1]
acGUI_FontLSFont20n__91CF
                        0x08048428    0x3c  Data  Gb  LS-Font20n_.o [1]
acGUI_FontLSFont20n__949F
                        0x08048464    0x3c  Data  Gb  LS-Font20n_.o [1]
acGUI_FontLSFont20n__94AE
                        0x080484a0    0x3c  Data  Gb  LS-Font20n_.o [1]
acGUI_FontLSFont20n__9501
                        0x080484dc    0x3c  Data  Gb  LS-Font20n_.o [1]
acGUI_FontLSFont20n__951A
                        0x08048518    0x3c  Data  Gb  LS-Font20n_.o [1]
acGUI_FontLSFont20n__952E
                        0x08048554    0x3c  Data  Gb  LS-Font20n_.o [1]
acGUI_FontLSFont20n__957F
                        0x08048590    0x3c  Data  Gb  LS-Font20n_.o [1]
acGUI_FontLSFont20n__95ED
                        0x080485cc    0x3c  Data  Gb  LS-Font20n_.o [1]
acGUI_FontLSFont20n__95F4
                        0x08048608    0x3c  Data  Gb  LS-Font20n_.o [1]
acGUI_FontLSFont20n__95F8
                        0x08048644    0x3c  Data  Gb  LS-Font20n_.o [1]
acGUI_FontLSFont20n__9605
                        0x08048680    0x3c  Data  Gb  LS-Font20n_.o [1]
acGUI_FontLSFont20n__9636
                        0x080486bc    0x3c  Data  Gb  LS-Font20n_.o [1]
acGUI_FontLSFont20n__9644
                        0x080486f8    0x3c  Data  Gb  LS-Font20n_.o [1]
acGUI_FontLSFont20n__9650
                        0x08048734    0x3c  Data  Gb  LS-Font20n_.o [1]
acGUI_FontLSFont20n__9664
                        0x08048770    0x3c  Data  Gb  LS-Font20n_.o [1]
acGUI_FontLSFont20n__969C
                        0x080487ac    0x3c  Data  Gb  LS-Font20n_.o [1]
acGUI_FontLSFont20n__96C6
                        0x080487e8    0x3c  Data  Gb  LS-Font20n_.o [1]
acGUI_FontLSFont20n__96F6
                        0x08048824    0x3c  Data  Gb  LS-Font20n_.o [1]
acGUI_FontLSFont20n__9700
                        0x08048860    0x3c  Data  Gb  LS-Font20n_.o [1]
acGUI_FontLSFont20n__9806
                        0x0804889c    0x3c  Data  Gb  LS-Font20n_.o [1]
acGUI_FontLSFont20n__9879
                        0x080488d8    0x3c  Data  Gb  LS-Font20n_.o [1]
acGUI_FontLSFont20n__987A
                        0x08048914    0x3c  Data  Gb  LS-Font20n_.o [1]
acGUI_FontLSFont20n__9884
                        0x08048950    0x3c  Data  Gb  LS-Font20n_.o [1]
acGUI_FontLSFont20n__9886
                        0x0804898c    0x3c  Data  Gb  LS-Font20n_.o [1]
acGUI_FontLSFont20n__9891
                        0x080489c8    0x3c  Data  Gb  LS-Font20n_.o [1]
acGUI_FontLSFont20n__989D
                        0x08048a04    0x3c  Data  Gb  LS-Font20n_.o [1]
acGUI_FontLSFont20n__9AD8
                        0x08048a40    0x3c  Data  Gb  LS-Font20n_.o [1]
acGUI_FontLSFont20n__F901
                        0x08048a7c    0x3c  Data  Gb  LS-Font20n_.o [1]
acGUI_FontLSFont20n__F92E
                        0x08048ab8    0x38  Data  Gb  LS-Font20n_.o [1]
acGUI_FontLSFont20n__F937
                        0x08048af0    0x3c  Data  Gb  LS-Font20n_.o [1]
acGUI_FontLSFont20n__F961
                        0x08048b2c    0x3c  Data  Gb  LS-Font20n_.o [1]
acGUI_FontLSFont20n__F967
                        0x08048b68    0x38  Data  Gb  LS-Font20n_.o [1]
acGUI_FontLSFont20n__F974
                        0x08048ba0    0x3c  Data  Gb  LS-Font20n_.o [1]
acGUI_FontLSFont20n__F977
                        0x08048bdc    0x3c  Data  Gb  LS-Font20n_.o [1]
acGUI_FontLSFont20n__F97E
                        0x08048c18    0x3c  Data  Gb  LS-Font20n_.o [1]
acGUI_FontLSFont20n__F983
                        0x08048c54    0x3c  Data  Gb  LS-Font20n_.o [1]
acGUI_FontLSFont20n__F98E
                        0x08048c90    0x3c  Data  Gb  LS-Font20n_.o [1]
acGUI_FontLSFont20n__F99C
                        0x08048ccc    0x38  Data  Gb  LS-Font20n_.o [1]
acGUI_FontLSFont20n__F9B2
                        0x08048d04    0x3c  Data  Gb  LS-Font20n_.o [1]
acGUI_FontLSFont20n__F9CA
                        0x08048d40    0x3c  Data  Gb  LS-Font20n_.o [1]
acGUI_FontLSFont20n__F9DB
                        0x08048d7c    0x3c  Data  Gb  LS-Font20n_.o [1]
acGUI_FontLSFont20n__F9E4
                        0x08048db8    0x3c  Data  Gb  LS-Font20n_.o [1]
acGUI_FontLSFont20n__FA01
                        0x08048df4    0x3c  Data  Gb  LS-Font20n_.o [1]
acGUI_FontLSFont20n__FA04
                        0x08048e30    0x3c  Data  Gb  LS-Font20n_.o [1]
acGUI_FontLSFont20n__FA08
                        0x08048e6c    0x3c  Data  Gb  LS-Font20n_.o [1]
acGUI_FontLSFont20n__FA38
                        0x08048ea8    0x38  Data  Gb  LS-Font20n_.o [1]
acGUI_FontLSFont20n__FA55
                        0x08048ee0    0x3c  Data  Gb  LS-Font20n_.o [1]
acGUI_FontLSFont20n__FA72
                        0x08048f1c    0x38  Data  Gb  LS-Font20n_.o [1]
acGUI_FontLSFont20n__FA74
                        0x08048f54    0x3c  Data  Gb  LS-Font20n_.o [1]
acGUI_FontLSFont20n__FA97
                        0x08048f90    0x3c  Data  Gb  LS-Font20n_.o [1]
acGUI_FontLSFont20n__FAAE
                        0x08048fcc    0x3c  Data  Gb  LS-Font20n_.o [1]
acGUI_FontLSfont16__0020
                        0x08054740     0xc  Data  Gb  LS-font16_.o [1]
acGUI_FontLSfont16__0021
                        0x0805474c     0xc  Data  Gb  LS-font16_.o [1]
acGUI_FontLSfont16__0022
                        0x08054758     0x8  Data  Gb  LS-font16_.o [1]
acGUI_FontLSfont16__0023
                        0x08054760    0x18  Data  Gb  LS-font16_.o [1]
acGUI_FontLSfont16__0024
                        0x08054778    0x10  Data  Gb  LS-font16_.o [1]
acGUI_FontLSfont16__0025
                        0x08054788    0x18  Data  Gb  LS-font16_.o [1]
acGUI_FontLSfont16__0026
                        0x080547a0    0x18  Data  Gb  LS-font16_.o [1]
acGUI_FontLSfont16__0027
                        0x080547b8     0x8  Data  Gb  LS-font16_.o [1]
acGUI_FontLSfont16__0028
                        0x080547c0    0x10  Data  Gb  LS-font16_.o [1]
acGUI_FontLSfont16__0029
                        0x080547d0    0x10  Data  Gb  LS-font16_.o [1]
acGUI_FontLSfont16__002A
                        0x080547e0     0x8  Data  Gb  LS-font16_.o [1]
acGUI_FontLSfont16__002B
                        0x080547e8    0x14  Data  Gb  LS-font16_.o [1]
acGUI_FontLSfont16__002C
                        0x080547fc     0x8  Data  Gb  LS-font16_.o [1]
acGUI_FontLSfont16__002D
                        0x08054804     0x1  Data  Gb  LS-font16_.o [1]
acGUI_FontLSfont16__002E
                        0x08054806     0x2  Data  Gb  LS-font16_.o [1]
acGUI_FontLSfont16__002F
                        0x08054808    0x10  Data  Gb  LS-font16_.o [1]
acGUI_FontLSfont16__0030
                        0x08054818     0xc  Data  Gb  LS-font16_.o [1]
acGUI_FontLSfont16__0031
                        0x08054824     0xc  Data  Gb  LS-font16_.o [1]
acGUI_FontLSfont16__0032
                        0x08054830     0xc  Data  Gb  LS-font16_.o [1]
acGUI_FontLSfont16__0033
                        0x0805483c     0xc  Data  Gb  LS-font16_.o [1]
acGUI_FontLSfont16__0034
                        0x08054848    0x18  Data  Gb  LS-font16_.o [1]
acGUI_FontLSfont16__0035
                        0x08054860     0xc  Data  Gb  LS-font16_.o [1]
acGUI_FontLSfont16__0036
                        0x0805486c     0xc  Data  Gb  LS-font16_.o [1]
acGUI_FontLSfont16__0037
                        0x08054878     0xc  Data  Gb  LS-font16_.o [1]
acGUI_FontLSfont16__0038
                        0x08054884     0xc  Data  Gb  LS-font16_.o [1]
acGUI_FontLSfont16__0039
                        0x08054890     0xc  Data  Gb  LS-font16_.o [1]
acGUI_FontLSfont16__003A
                        0x0805489c     0xc  Data  Gb  LS-font16_.o [1]
acGUI_FontLSfont16__003B
                        0x080548a8     0xc  Data  Gb  LS-font16_.o [1]
acGUI_FontLSfont16__003C
                        0x080548b4    0x14  Data  Gb  LS-font16_.o [1]
acGUI_FontLSfont16__003D
                        0x080548c8     0x8  Data  Gb  LS-font16_.o [1]
acGUI_FontLSfont16__003E
                        0x080548d0    0x14  Data  Gb  LS-font16_.o [1]
acGUI_FontLSfont16__003F
                        0x080548e4     0xc  Data  Gb  LS-font16_.o [1]
acGUI_FontLSfont16__0040
                        0x080548f0    0x1c  Data  Gb  LS-font16_.o [1]
acGUI_FontLSfont16__0041
                        0x0805490c    0x18  Data  Gb  LS-font16_.o [1]
acGUI_FontLSfont16__0042
                        0x08054924    0x18  Data  Gb  LS-font16_.o [1]
acGUI_FontLSfont16__0043
                        0x0805493c    0x18  Data  Gb  LS-font16_.o [1]
acGUI_FontLSfont16__0044
                        0x08054954    0x18  Data  Gb  LS-font16_.o [1]
acGUI_FontLSfont16__0045
                        0x0805496c     0xc  Data  Gb  LS-font16_.o [1]
acGUI_FontLSfont16__0046
                        0x08054978     0xc  Data  Gb  LS-font16_.o [1]
acGUI_FontLSfont16__0047
                        0x08054984    0x18  Data  Gb  LS-font16_.o [1]
acGUI_FontLSfont16__0048
                        0x0805499c     0xc  Data  Gb  LS-font16_.o [1]
acGUI_FontLSfont16__0049
                        0x080549a8     0xc  Data  Gb  LS-font16_.o [1]
acGUI_FontLSfont16__004A
                        0x080549b4     0xc  Data  Gb  LS-font16_.o [1]
acGUI_FontLSfont16__004B
                        0x080549c0    0x18  Data  Gb  LS-font16_.o [1]
acGUI_FontLSfont16__004C
                        0x080549d8     0xc  Data  Gb  LS-font16_.o [1]
acGUI_FontLSfont16__004D
                        0x080549e4    0x18  Data  Gb  LS-font16_.o [1]
acGUI_FontLSfont16__004E
                        0x080549fc     0xc  Data  Gb  LS-font16_.o [1]
acGUI_FontLSfont16__004F
                        0x08054a08    0x18  Data  Gb  LS-font16_.o [1]
acGUI_FontLSfont16__0050
                        0x08054a20     0xc  Data  Gb  LS-font16_.o [1]
acGUI_FontLSfont16__0051
                        0x08054a2c    0x1c  Data  Gb  LS-font16_.o [1]
acGUI_FontLSfont16__0052
                        0x08054a48     0xc  Data  Gb  LS-font16_.o [1]
acGUI_FontLSfont16__0053
                        0x08054a54     0xc  Data  Gb  LS-font16_.o [1]
acGUI_FontLSfont16__0054
                        0x08054a60    0x18  Data  Gb  LS-font16_.o [1]
acGUI_FontLSfont16__0055
                        0x08054a78    0x18  Data  Gb  LS-font16_.o [1]
acGUI_FontLSfont16__0056
                        0x08054a90    0x18  Data  Gb  LS-font16_.o [1]
acGUI_FontLSfont16__0057
                        0x08054aa8    0x18  Data  Gb  LS-font16_.o [1]
acGUI_FontLSfont16__0058
                        0x08054ac0    0x18  Data  Gb  LS-font16_.o [1]
acGUI_FontLSfont16__0059
                        0x08054ad8    0x18  Data  Gb  LS-font16_.o [1]
acGUI_FontLSfont16__005A
                        0x08054af0    0x18  Data  Gb  LS-font16_.o [1]
acGUI_FontLSfont16__005B
                        0x08054b08    0x10  Data  Gb  LS-font16_.o [1]
acGUI_FontLSfont16__005C
                        0x08054b18     0xc  Data  Gb  LS-font16_.o [1]
acGUI_FontLSfont16__005D
                        0x08054b24    0x10  Data  Gb  LS-font16_.o [1]
acGUI_FontLSfont16__005E
                        0x08054b34     0x4  Data  Gb  LS-font16_.o [1]
acGUI_FontLSfont16__005F
                        0x08054b38     0x1  Data  Gb  LS-font16_.o [1]
acGUI_FontLSfont16__0060
                        0x08054b3a     0x2  Data  Gb  LS-font16_.o [1]
acGUI_FontLSfont16__0061
                        0x08054b3c     0x8  Data  Gb  LS-font16_.o [1]
acGUI_FontLSfont16__0062
                        0x08054b44     0xc  Data  Gb  LS-font16_.o [1]
acGUI_FontLSfont16__0063
                        0x08054b50     0x8  Data  Gb  LS-font16_.o [1]
acGUI_FontLSfont16__0064
                        0x08054b58     0xc  Data  Gb  LS-font16_.o [1]
acGUI_FontLSfont16__0065
                        0x08054b64     0x8  Data  Gb  LS-font16_.o [1]
acGUI_FontLSfont16__0066
                        0x08054b6c     0xc  Data  Gb  LS-font16_.o [1]
acGUI_FontLSfont16__0067
                        0x08054b78     0xc  Data  Gb  LS-font16_.o [1]
acGUI_FontLSfont16__0068
                        0x08054b84     0xc  Data  Gb  LS-font16_.o [1]
acGUI_FontLSfont16__0069
                        0x08054b90     0xc  Data  Gb  LS-font16_.o [1]
acGUI_FontLSfont16__006A
                        0x08054b9c    0x10  Data  Gb  LS-font16_.o [1]
acGUI_FontLSfont16__006B
                        0x08054bac     0xc  Data  Gb  LS-font16_.o [1]
acGUI_FontLSfont16__006C
                        0x08054bb8     0xc  Data  Gb  LS-font16_.o [1]
acGUI_FontLSfont16__006D
                        0x08054bc4    0x10  Data  Gb  LS-font16_.o [1]
acGUI_FontLSfont16__006E
                        0x08054bd4     0x8  Data  Gb  LS-font16_.o [1]
acGUI_FontLSfont16__006F
                        0x08054bdc     0x8  Data  Gb  LS-font16_.o [1]
acGUI_FontLSfont16__0070
                        0x08054be4     0xc  Data  Gb  LS-font16_.o [1]
acGUI_FontLSfont16__0071
                        0x08054bf0     0xc  Data  Gb  LS-font16_.o [1]
acGUI_FontLSfont16__0072
                        0x08054bfc     0x8  Data  Gb  LS-font16_.o [1]
acGUI_FontLSfont16__0073
                        0x08054c04     0x8  Data  Gb  LS-font16_.o [1]
acGUI_FontLSfont16__0074
                        0x08054c0c     0xc  Data  Gb  LS-font16_.o [1]
acGUI_FontLSfont16__0075
                        0x08054c18     0xc  Data  Gb  LS-font16_.o [1]
acGUI_FontLSfont16__0076
                        0x08054c24     0xc  Data  Gb  LS-font16_.o [1]
acGUI_FontLSfont16__0077
                        0x08054c30    0x10  Data  Gb  LS-font16_.o [1]
acGUI_FontLSfont16__0078
                        0x08054c40     0x8  Data  Gb  LS-font16_.o [1]
acGUI_FontLSfont16__0079
                        0x08054c48     0xc  Data  Gb  LS-font16_.o [1]
acGUI_FontLSfont16__007A
                        0x08054c54     0x8  Data  Gb  LS-font16_.o [1]
acGUI_FontLSfont16__007B
                        0x08054c5c    0x10  Data  Gb  LS-font16_.o [1]
acGUI_FontLSfont16__007C
                        0x08054c6c    0x10  Data  Gb  LS-font16_.o [1]
acGUI_FontLSfont16__007D
                        0x08054c7c    0x10  Data  Gb  LS-font16_.o [1]
acGUI_FontLSfont16__007E
                        0x08054c8c     0x4  Data  Gb  LS-font16_.o [1]
acGUI_FontLSfont16__007F
                        0x08054c90    0x10  Data  Gb  LS-font16_.o [1]
acGUI_FontLSfont16__00B0
                        0x08054ca0     0x4  Data  Gb  LS-font16_.o [1]
acGUI_FontLSfont16__0394
                        0x08054ca4    0x18  Data  Gb  LS-font16_.o [1]
acGUI_FontLSfont16__2103
                        0x08054cbc    0x1c  Data  Gb  LS-font16_.o [1]
acGUI_FontLSfont16__2105
                        0x08054cd8    0x18  Data  Gb  LS-font16_.o [1]
acGUI_FontLSfont16__2109
                        0x08054cf0    0x18  Data  Gb  LS-font16_.o [1]
acGUI_FontLSfont16__2160
                        0x08054d08    0x10  Data  Gb  LS-font16_.o [1]
acGUI_FontLSfont16__2161
                        0x08054d18    0x1c  Data  Gb  LS-font16_.o [1]
acGUI_FontLSfont16__2162
                        0x08054d34    0x1c  Data  Gb  LS-font16_.o [1]
acGUI_FontLSfont16__2163
                        0x08054d50    0x1c  Data  Gb  LS-font16_.o [1]
acGUI_FontLSfont16__2164
                        0x08054d6c    0x1c  Data  Gb  LS-font16_.o [1]
acGUI_FontLSfont16__2165
                        0x08054d88    0x1c  Data  Gb  LS-font16_.o [1]
acGUI_FontLSfont16__2166
                        0x08054da4    0x1c  Data  Gb  LS-font16_.o [1]
acGUI_FontLSfont16__2167
                        0x08054dc0    0x1c  Data  Gb  LS-font16_.o [1]
acGUI_FontLSfont16__2168
                        0x08054ddc    0x1c  Data  Gb  LS-font16_.o [1]
acGUI_FontLSfont16__2169
                        0x08054df8    0x1c  Data  Gb  LS-font16_.o [1]
acGUI_FontLSfont16__216A
                        0x08054e14    0x18  Data  Gb  LS-font16_.o [1]
acGUI_FontLSfont16__216B
                        0x08054e2c    0x18  Data  Gb  LS-font16_.o [1]
acGUI_FontLSfont16__2170
                        0x08054e44    0x10  Data  Gb  LS-font16_.o [1]
acGUI_FontLSfont16__2171
                        0x08054e54    0x10  Data  Gb  LS-font16_.o [1]
acGUI_FontLSfont16__2172
                        0x08054e64    0x1c  Data  Gb  LS-font16_.o [1]
acGUI_FontLSfont16__2173
                        0x08054e80    0x1c  Data  Gb  LS-font16_.o [1]
acGUI_FontLSfont16__2174
                        0x08054e9c    0x14  Data  Gb  LS-font16_.o [1]
acGUI_FontLSfont16__2175
                        0x08054eb0    0x1c  Data  Gb  LS-font16_.o [1]
acGUI_FontLSfont16__2176
                        0x08054ecc    0x1c  Data  Gb  LS-font16_.o [1]
acGUI_FontLSfont16__2177
                        0x08054ee8    0x1c  Data  Gb  LS-font16_.o [1]
acGUI_FontLSfont16__2178
                        0x08054f04    0x1c  Data  Gb  LS-font16_.o [1]
acGUI_FontLSfont16__2179
                        0x08054f20    0x14  Data  Gb  LS-font16_.o [1]
acGUI_FontLSfont16__217A
                        0x08054f34    0x18  Data  Gb  LS-font16_.o [1]
acGUI_FontLSfont16__217B
                        0x08054f4c    0x18  Data  Gb  LS-font16_.o [1]
acGUI_FontLSfont16__4E00
                        0x08054f64     0x2  Data  Gb  LS-font16_.o [1]
acGUI_FontLSfont16__4E09
                        0x08054f68    0x1c  Data  Gb  LS-font16_.o [1]
acGUI_FontLSfont16__4E0A
                        0x08054f84    0x1c  Data  Gb  LS-font16_.o [1]
acGUI_FontLSfont16__4E0B
                        0x08054fa0    0x1c  Data  Gb  LS-font16_.o [1]
acGUI_FontLSfont16__4E0D
                        0x08054fbc    0x1c  Data  Gb  LS-font16_.o [1]
acGUI_FontLSfont16__4E1F
                        0x08054fd8    0x1c  Data  Gb  LS-font16_.o [1]
acGUI_FontLSfont16__4E22
                        0x08054ff4    0x1c  Data  Gb  LS-font16_.o [1]
acGUI_FontLSfont16__4E2D
                        0x08055010    0x20  Data  Gb  LS-font16_.o [1]
acGUI_FontLSfont16__4E3B
                        0x08055030    0x1c  Data  Gb  LS-font16_.o [1]
acGUI_FontLSfont16__4E4F
                        0x0805504c    0x20  Data  Gb  LS-font16_.o [1]
acGUI_FontLSfont16__4E8B
                        0x0805506c    0x20  Data  Gb  LS-font16_.o [1]
acGUI_FontLSfont16__4E8E
                        0x0805508c    0x1c  Data  Gb  LS-font16_.o [1]
acGUI_FontLSfont16__4EA4
                        0x080550a8    0x20  Data  Gb  LS-font16_.o [1]
acGUI_FontLSfont16__4EA7
                        0x080550c8    0x20  Data  Gb  LS-font16_.o [1]
acGUI_FontLSfont16__4EAE
                        0x080550e8    0x20  Data  Gb  LS-font16_.o [1]
acGUI_FontLSfont16__4EBA
                        0x08055108    0x20  Data  Gb  LS-font16_.o [1]
acGUI_FontLSfont16__4ED6
                        0x08055128    0x20  Data  Gb  LS-font16_.o [1]
acGUI_FontLSfont16__4EE3
                        0x08055148    0x20  Data  Gb  LS-font16_.o [1]
acGUI_FontLSfont16__4EEA
                        0x08055168    0x20  Data  Gb  LS-font16_.o [1]
acGUI_FontLSfont16__4EF6
                        0x08055188    0x20  Data  Gb  LS-font16_.o [1]
acGUI_FontLSfont16__4EFB
                        0x080551a8    0x20  Data  Gb  LS-font16_.o [1]
acGUI_FontLSfont16__4F20
                        0x080551c8    0x20  Data  Gb  LS-font16_.o [1]
acGUI_FontLSfont16__4F4D
                        0x080551e8    0x20  Data  Gb  LS-font16_.o [1]
acGUI_FontLSfont16__4F4E
                        0x08055208    0x20  Data  Gb  LS-font16_.o [1]
acGUI_FontLSfont16__4F59
                        0x08055228    0x20  Data  Gb  LS-font16_.o [1]
acGUI_FontLSfont16__4F5C
                        0x08055248    0x20  Data  Gb  LS-font16_.o [1]
acGUI_FontLSfont16__4F60
                        0x08055268    0x20  Data  Gb  LS-font16_.o [1]
acGUI_FontLSfont16__4F7F
                        0x08055288    0x20  Data  Gb  LS-font16_.o [1]
acGUI_FontLSfont16__4F9B
                        0x080552a8    0x20  Data  Gb  LS-font16_.o [1]
acGUI_FontLSfont16__4FC4
                        0x080552c8    0x20  Data  Gb  LS-font16_.o [1]
acGUI_FontLSfont16__4FDD
                        0x080552e8    0x20  Data  Gb  LS-font16_.o [1]
acGUI_FontLSfont16__4FE1
                        0x08055308    0x20  Data  Gb  LS-font16_.o [1]
acGUI_FontLSfont16__5012
                        0x08055328    0x20  Data  Gb  LS-font16_.o [1]
acGUI_FontLSfont16__503C
                        0x08055348    0x20  Data  Gb  LS-font16_.o [1]
acGUI_FontLSfont16__50A8
                        0x08055368    0x20  Data  Gb  LS-font16_.o [1]
acGUI_FontLSfont16__50CF
                        0x08055388    0x20  Data  Gb  LS-font16_.o [1]
acGUI_FontLSfont16__5145
                        0x080553a8    0x20  Data  Gb  LS-font16_.o [1]
acGUI_FontLSfont16__5165
                        0x080553c8    0x20  Data  Gb  LS-font16_.o [1]
acGUI_FontLSfont16__5168
                        0x080553e8    0x20  Data  Gb  LS-font16_.o [1]
acGUI_FontLSfont16__516C
                        0x08055408    0x20  Data  Gb  LS-font16_.o [1]
acGUI_FontLSfont16__5171
                        0x08055428    0x20  Data  Gb  LS-font16_.o [1]
acGUI_FontLSfont16__5173
                        0x08055448    0x20  Data  Gb  LS-font16_.o [1]
acGUI_FontLSfont16__5176
                        0x08055468    0x20  Data  Gb  LS-font16_.o [1]
acGUI_FontLSfont16__5185
                        0x08055488    0x20  Data  Gb  LS-font16_.o [1]
acGUI_FontLSfont16__5199
                        0x080554a8    0x1c  Data  Gb  LS-font16_.o [1]
acGUI_FontLSfont16__51B2
                        0x080554c4    0x1c  Data  Gb  LS-font16_.o [1]
acGUI_FontLSfont16__51B7
                        0x080554e0    0x20  Data  Gb  LS-font16_.o [1]
acGUI_FontLSfont16__51C6
                        0x08055500    0x20  Data  Gb  LS-font16_.o [1]
acGUI_FontLSfont16__51CF
                        0x08055520    0x20  Data  Gb  LS-font16_.o [1]
acGUI_FontLSfont16__51FA
                        0x08055540    0x20  Data  Gb  LS-font16_.o [1]
acGUI_FontLSfont16__5206
                        0x08055560    0x20  Data  Gb  LS-font16_.o [1]
acGUI_FontLSfont16__5217
                        0x08055580    0x20  Data  Gb  LS-font16_.o [1]
acGUI_FontLSfont16__521D
                        0x080555a0    0x20  Data  Gb  LS-font16_.o [1]
acGUI_FontLSfont16__5220
                        0x080555c0    0x20  Data  Gb  LS-font16_.o [1]
acGUI_FontLSfont16__5230
                        0x080555e0    0x20  Data  Gb  LS-font16_.o [1]
acGUI_FontLSfont16__5236
                        0x08055600    0x20  Data  Gb  LS-font16_.o [1]
acGUI_FontLSfont16__524D
                        0x08055620    0x20  Data  Gb  LS-font16_.o [1]
acGUI_FontLSfont16__5269
                        0x08055640    0x20  Data  Gb  LS-font16_.o [1]
acGUI_FontLSfont16__5273
                        0x08055660    0x1c  Data  Gb  LS-font16_.o [1]
acGUI_FontLSfont16__529F
                        0x0805567c    0x20  Data  Gb  LS-font16_.o [1]
acGUI_FontLSfont16__52A0
                        0x0805569c    0x20  Data  Gb  LS-font16_.o [1]
acGUI_FontLSfont16__52A8
                        0x080556bc    0x20  Data  Gb  LS-font16_.o [1]
acGUI_FontLSfont16__52B1
                        0x080556dc    0x20  Data  Gb  LS-font16_.o [1]
acGUI_FontLSfont16__5316
                        0x080556fc    0x20  Data  Gb  LS-font16_.o [1]
acGUI_FontLSfont16__5339
                        0x0805571c    0x1c  Data  Gb  LS-font16_.o [1]
acGUI_FontLSfont16__533A
                        0x08055738    0x1c  Data  Gb  LS-font16_.o [1]
acGUI_FontLSfont16__5355
                        0x08055754    0x20  Data  Gb  LS-font16_.o [1]
acGUI_FontLSfont16__5382
                        0x08055774    0x20  Data  Gb  LS-font16_.o [1]
acGUI_FontLSfont16__5386
                        0x08055794    0x1c  Data  Gb  LS-font16_.o [1]
acGUI_FontLSfont16__538B
                        0x080557b0    0x1c  Data  Gb  LS-font16_.o [1]
acGUI_FontLSfont16__539F
                        0x080557cc    0x20  Data  Gb  LS-font16_.o [1]
acGUI_FontLSfont16__53BB
                        0x080557ec    0x20  Data  Gb  LS-font16_.o [1]
acGUI_FontLSfont16__53C2
                        0x0805580c    0x20  Data  Gb  LS-font16_.o [1]
acGUI_FontLSfont16__53CD
                        0x0805582c    0x1c  Data  Gb  LS-font16_.o [1]
acGUI_FontLSfont16__53D1
                        0x08055848    0x20  Data  Gb  LS-font16_.o [1]
acGUI_FontLSfont16__53D6
                        0x08055868    0x1c  Data  Gb  LS-font16_.o [1]
acGUI_FontLSfont16__53D8
                        0x08055884    0x20  Data  Gb  LS-font16_.o [1]
acGUI_FontLSfont16__53E3
                        0x080558a4    0x1c  Data  Gb  LS-font16_.o [1]
acGUI_FontLSfont16__53F2
                        0x080558c0    0x20  Data  Gb  LS-font16_.o [1]
acGUI_FontLSfont16__53F7
                        0x080558e0    0x1c  Data  Gb  LS-font16_.o [1]
acGUI_FontLSfont16__53F8
                        0x080558fc    0x1c  Data  Gb  LS-font16_.o [1]
acGUI_FontLSfont16__5408
                        0x08055918    0x20  Data  Gb  LS-font16_.o [1]
acGUI_FontLSfont16__540C
                        0x08055938    0x20  Data  Gb  LS-font16_.o [1]
acGUI_FontLSfont16__540D
                        0x08055958    0x20  Data  Gb  LS-font16_.o [1]
acGUI_FontLSfont16__540E
                        0x08055978    0x20  Data  Gb  LS-font16_.o [1]
acGUI_FontLSfont16__5411
                        0x08055998    0x20  Data  Gb  LS-font16_.o [1]
acGUI_FontLSfont16__5417
                        0x080559b8    0x1c  Data  Gb  LS-font16_.o [1]
acGUI_FontLSfont16__5426
                        0x080559d4    0x1c  Data  Gb  LS-font16_.o [1]
acGUI_FontLSfont16__542F
                        0x080559f0    0x1c  Data  Gb  LS-font16_.o [1]
acGUI_FontLSfont16__544A
                        0x08055a0c    0x20  Data  Gb  LS-font16_.o [1]
acGUI_FontLSfont16__5468
                        0x08055a2c    0x1c  Data  Gb  LS-font16_.o [1]
acGUI_FontLSfont16__547D
                        0x08055a48    0x20  Data  Gb  LS-font16_.o [1]
acGUI_FontLSfont16__548C
                        0x08055a68    0x20  Data  Gb  LS-font16_.o [1]
acGUI_FontLSfont16__54C1
                        0x08055a88    0x20  Data  Gb  LS-font16_.o [1]
acGUI_FontLSfont16__5546
                        0x08055aa8    0x20  Data  Gb  LS-font16_.o [1]
acGUI_FontLSfont16__5668
                        0x08055ac8    0x1c  Data  Gb  LS-font16_.o [1]
acGUI_FontLSfont16__56DE
                        0x08055ae4    0x1c  Data  Gb  LS-font16_.o [1]
acGUI_FontLSfont16__56E0
                        0x08055b00    0x1c  Data  Gb  LS-font16_.o [1]
acGUI_FontLSfont16__56F4
                        0x08055b1c    0x1c  Data  Gb  LS-font16_.o [1]
acGUI_FontLSfont16__56FD
                        0x08055b38    0x20  Data  Gb  LS-font16_.o [1]
acGUI_FontLSfont16__56FE
                        0x08055b58    0x20  Data  Gb  LS-font16_.o [1]
acGUI_FontLSfont16__5728
                        0x08055b78    0x20  Data  Gb  LS-font16_.o [1]
acGUI_FontLSfont16__5730
                        0x08055b98    0x20  Data  Gb  LS-font16_.o [1]
acGUI_FontLSfont16__5740
                        0x08055bb8    0x1c  Data  Gb  LS-font16_.o [1]
acGUI_FontLSfont16__578B
                        0x08055bd4    0x20  Data  Gb  LS-font16_.o [1]
acGUI_FontLSfont16__57DF
                        0x08055bf4    0x20  Data  Gb  LS-font16_.o [1]
acGUI_FontLSfont16__57F9
                        0x08055c14    0x20  Data  Gb  LS-font16_.o [1]
acGUI_FontLSfont16__57FA
                        0x08055c34    0x20  Data  Gb  LS-font16_.o [1]
acGUI_FontLSfont16__5883
                        0x08055c54    0x20  Data  Gb  LS-font16_.o [1]
acGUI_FontLSfont16__5904
                        0x08055c74    0x20  Data  Gb  LS-font16_.o [1]
acGUI_FontLSfont16__5907
                        0x08055c94    0x20  Data  Gb  LS-font16_.o [1]
acGUI_FontLSfont16__590D
                        0x08055cb4    0x1c  Data  Gb  LS-font16_.o [1]
acGUI_FontLSfont16__5916
                        0x08055cd0    0x20  Data  Gb  LS-font16_.o [1]
acGUI_FontLSfont16__5927
                        0x08055cf0    0x20  Data  Gb  LS-font16_.o [1]
acGUI_FontLSfont16__592E
                        0x08055d10    0x20  Data  Gb  LS-font16_.o [1]
acGUI_FontLSfont16__5931
                        0x08055d30    0x20  Data  Gb  LS-font16_.o [1]
acGUI_FontLSfont16__5934
                        0x08055d50    0x20  Data  Gb  LS-font16_.o [1]
acGUI_FontLSfont16__597D
                        0x08055d70    0x20  Data  Gb  LS-font16_.o [1]
acGUI_FontLSfont16__59CB
                        0x08055d90    0x20  Data  Gb  LS-font16_.o [1]
acGUI_FontLSfont16__5B50
                        0x08055db0    0x1c  Data  Gb  LS-font16_.o [1]
acGUI_FontLSfont16__5B57
                        0x08055dcc    0x20  Data  Gb  LS-font16_.o [1]
acGUI_FontLSfont16__5B58
                        0x08055dec    0x20  Data  Gb  LS-font16_.o [1]
acGUI_FontLSfont16__5B85
                        0x08055e0c    0x20  Data  Gb  LS-font16_.o [1]
acGUI_FontLSfont16__5B89
                        0x08055e2c    0x20  Data  Gb  LS-font16_.o [1]
acGUI_FontLSfont16__5B8C
                        0x08055e4c    0x20  Data  Gb  LS-font16_.o [1]
acGUI_FontLSfont16__5B9A
                        0x08055e6c    0x20  Data  Gb  LS-font16_.o [1]
acGUI_FontLSfont16__5B9E
                        0x08055e8c    0x20  Data  Gb  LS-font16_.o [1]
acGUI_FontLSfont16__5BC4
                        0x08055eac    0x20  Data  Gb  LS-font16_.o [1]
acGUI_FontLSfont16__5BC6
                        0x08055ecc    0x20  Data  Gb  LS-font16_.o [1]
acGUI_FontLSfont16__5BFF
                        0x08055eec    0x20  Data  Gb  LS-font16_.o [1]
acGUI_FontLSfont16__5C04
                        0x08055f0c    0x20  Data  Gb  LS-font16_.o [1]
acGUI_FontLSfont16__5C0F
                        0x08055f2c    0x20  Data  Gb  LS-font16_.o [1]
acGUI_FontLSfont16__5C40
                        0x08055f4c    0x1c  Data  Gb  LS-font16_.o [1]
acGUI_FontLSfont16__5C4F
                        0x08055f68    0x1c  Data  Gb  LS-font16_.o [1]
acGUI_FontLSfont16__5DE5
                        0x08055f84    0x1c  Data  Gb  LS-font16_.o [1]
acGUI_FontLSfont16__5E27
                        0x08055fa0    0x20  Data  Gb  LS-font16_.o [1]
acGUI_FontLSfont16__5E38
                        0x08055fc0    0x20  Data  Gb  LS-font16_.o [1]
acGUI_FontLSfont16__5E45
                        0x08055fe0    0x20  Data  Gb  LS-font16_.o [1]
acGUI_FontLSfont16__5E55
                        0x08056000    0x20  Data  Gb  LS-font16_.o [1]
acGUI_FontLSfont16__5E73
                        0x08056020    0x1c  Data  Gb  LS-font16_.o [1]
acGUI_FontLSfont16__5E74
                        0x0805603c    0x20  Data  Gb  LS-font16_.o [1]
acGUI_FontLSfont16__5E76
                        0x0805605c    0x20  Data  Gb  LS-font16_.o [1]
acGUI_FontLSfont16__5E8F
                        0x0805607c    0x20  Data  Gb  LS-font16_.o [1]
acGUI_FontLSfont16__5E94
                        0x0805609c    0x20  Data  Gb  LS-font16_.o [1]
acGUI_FontLSfont16__5EA6
                        0x080560bc    0x20  Data  Gb  LS-font16_.o [1]
acGUI_FontLSfont16__5EF6
                        0x080560dc    0x1c  Data  Gb  LS-font16_.o [1]
acGUI_FontLSfont16__5F00
                        0x080560f8    0x1c  Data  Gb  LS-font16_.o [1]
acGUI_FontLSfont16__5F02
                        0x08056114    0x1c  Data  Gb  LS-font16_.o [1]
acGUI_FontLSfont16__5F0F
                        0x08056130    0x20  Data  Gb  LS-font16_.o [1]
acGUI_FontLSfont16__5F55
                        0x08056150    0x1c  Data  Gb  LS-font16_.o [1]
acGUI_FontLSfont16__5F62
                        0x0805616c    0x20  Data  Gb  LS-font16_.o [1]
acGUI_FontLSfont16__5F85
                        0x0805618c    0x20  Data  Gb  LS-font16_.o [1]
acGUI_FontLSfont16__6001
                        0x080561ac    0x20  Data  Gb  LS-font16_.o [1]
acGUI_FontLSfont16__6027
                        0x080561cc    0x20  Data  Gb  LS-font16_.o [1]
acGUI_FontLSfont16__606F
                        0x080561ec    0x20  Data  Gb  LS-font16_.o [1]
acGUI_FontLSfont16__60F3
                        0x0805620c    0x20  Data  Gb  LS-font16_.o [1]
acGUI_FontLSfont16__610F
                        0x0805622c    0x20  Data  Gb  LS-font16_.o [1]
acGUI_FontLSfont16__6210
                        0x0805624c    0x20  Data  Gb  LS-font16_.o [1]
acGUI_FontLSfont16__6211
                        0x0805626c    0x20  Data  Gb  LS-font16_.o [1]
acGUI_FontLSfont16__6216
                        0x0805628c    0x20  Data  Gb  LS-font16_.o [1]
acGUI_FontLSfont16__6237
                        0x080562ac    0x20  Data  Gb  LS-font16_.o [1]
acGUI_FontLSfont16__6240
                        0x080562cc    0x20  Data  Gb  LS-font16_.o [1]
acGUI_FontLSfont16__624B
                        0x080562ec    0x20  Data  Gb  LS-font16_.o [1]
acGUI_FontLSfont16__6253
                        0x0805630c    0x20  Data  Gb  LS-font16_.o [1]
acGUI_FontLSfont16__6263
                        0x0805632c    0x20  Data  Gb  LS-font16_.o [1]
acGUI_FontLSfont16__62A4
                        0x0805634c    0x20  Data  Gb  LS-font16_.o [1]
acGUI_FontLSfont16__62A5
                        0x0805636c    0x20  Data  Gb  LS-font16_.o [1]
acGUI_FontLSfont16__62BD
                        0x0805638c    0x20  Data  Gb  LS-font16_.o [1]
acGUI_FontLSfont16__62DF
                        0x080563ac    0x20  Data  Gb  LS-font16_.o [1]
acGUI_FontLSfont16__62E9
                        0x080563cc    0x20  Data  Gb  LS-font16_.o [1]
acGUI_FontLSfont16__6301
                        0x080563ec    0x20  Data  Gb  LS-font16_.o [1]
acGUI_FontLSfont16__6309
                        0x0805640c    0x20  Data  Gb  LS-font16_.o [1]
acGUI_FontLSfont16__632F
                        0x0805642c    0x20  Data  Gb  LS-font16_.o [1]
acGUI_FontLSfont16__635F
                        0x0805644c    0x1c  Data  Gb  LS-font16_.o [1]
acGUI_FontLSfont16__6362
                        0x08056468    0x20  Data  Gb  LS-font16_.o [1]
acGUI_FontLSfont16__636E
                        0x08056488    0x20  Data  Gb  LS-font16_.o [1]
acGUI_FontLSfont16__6389
                        0x080564a8    0x20  Data  Gb  LS-font16_.o [1]
acGUI_FontLSfont16__63A5
                        0x080564c8    0x20  Data  Gb  LS-font16_.o [1]
acGUI_FontLSfont16__63A7
                        0x080564e8    0x20  Data  Gb  LS-font16_.o [1]
acGUI_FontLSfont16__63A8
                        0x08056508    0x20  Data  Gb  LS-font16_.o [1]
acGUI_FontLSfont16__63CF
                        0x08056528    0x20  Data  Gb  LS-font16_.o [1]
acGUI_FontLSfont16__63D2
                        0x08056548    0x20  Data  Gb  LS-font16_.o [1]
acGUI_FontLSfont16__64CD
                        0x08056568    0x20  Data  Gb  LS-font16_.o [1]
acGUI_FontLSfont16__6536
                        0x08056588    0x20  Data  Gb  LS-font16_.o [1]
acGUI_FontLSfont16__6539
                        0x080565a8    0x20  Data  Gb  LS-font16_.o [1]
acGUI_FontLSfont16__6545
                        0x080565c8    0x20  Data  Gb  LS-font16_.o [1]
acGUI_FontLSfont16__6570
                        0x080565e8    0x20  Data  Gb  LS-font16_.o [1]
acGUI_FontLSfont16__6587
                        0x08056608    0x20  Data  Gb  LS-font16_.o [1]
acGUI_FontLSfont16__65AD
                        0x08056628    0x20  Data  Gb  LS-font16_.o [1]
acGUI_FontLSfont16__65AF
                        0x08056648    0x20  Data  Gb  LS-font16_.o [1]
acGUI_FontLSfont16__65B0
                        0x08056668    0x20  Data  Gb  LS-font16_.o [1]
acGUI_FontLSfont16__65B9
                        0x08056688    0x20  Data  Gb  LS-font16_.o [1]
acGUI_FontLSfont16__65C5
                        0x080566a8    0x20  Data  Gb  LS-font16_.o [1]
acGUI_FontLSfont16__65CB
                        0x080566c8    0x20  Data  Gb  LS-font16_.o [1]
acGUI_FontLSfont16__65E0
                        0x080566e8    0x1c  Data  Gb  LS-font16_.o [1]
acGUI_FontLSfont16__65E5
                        0x08056704    0x1c  Data  Gb  LS-font16_.o [1]
acGUI_FontLSfont16__65E7
                        0x08056720    0x1c  Data  Gb  LS-font16_.o [1]
acGUI_FontLSfont16__65F6
                        0x0805673c    0x20  Data  Gb  LS-font16_.o [1]
acGUI_FontLSfont16__660E
                        0x0805675c    0x1c  Data  Gb  LS-font16_.o [1]
acGUI_FontLSfont16__6620
                        0x08056778    0x20  Data  Gb  LS-font16_.o [1]
acGUI_FontLSfont16__662F
                        0x08056798    0x1c  Data  Gb  LS-font16_.o [1]
acGUI_FontLSfont16__663E
                        0x080567b4    0x1c  Data  Gb  LS-font16_.o [1]
acGUI_FontLSfont16__6670
                        0x080567d0    0x20  Data  Gb  LS-font16_.o [1]
acGUI_FontLSfont16__66F4
                        0x080567f0    0x1c  Data  Gb  LS-font16_.o [1]
acGUI_FontLSfont16__6700
                        0x0805680c    0x20  Data  Gb  LS-font16_.o [1]
acGUI_FontLSfont16__6708
                        0x0805682c    0x20  Data  Gb  LS-font16_.o [1]
acGUI_FontLSfont16__6709
                        0x0805684c    0x20  Data  Gb  LS-font16_.o [1]
acGUI_FontLSfont16__671F
                        0x0805686c    0x20  Data  Gb  LS-font16_.o [1]
acGUI_FontLSfont16__672A
                        0x0805688c    0x20  Data  Gb  LS-font16_.o [1]
acGUI_FontLSfont16__672C
                        0x080568ac    0x20  Data  Gb  LS-font16_.o [1]
acGUI_FontLSfont16__673A
                        0x080568cc    0x20  Data  Gb  LS-font16_.o [1]
acGUI_FontLSfont16__677F
                        0x080568ec    0x20  Data  Gb  LS-font16_.o [1]
acGUI_FontLSfont16__6781
                        0x0805690c    0x20  Data  Gb  LS-font16_.o [1]
acGUI_FontLSfont16__679C
                        0x0805692c    0x20  Data  Gb  LS-font16_.o [1]
acGUI_FontLSfont16__67B6
                        0x0805694c    0x20  Data  Gb  LS-font16_.o [1]
acGUI_FontLSfont16__67E5
                        0x0805696c    0x20  Data  Gb  LS-font16_.o [1]
acGUI_FontLSfont16__6821
                        0x0805698c    0x20  Data  Gb  LS-font16_.o [1]
acGUI_FontLSfont16__6846
                        0x080569ac    0x20  Data  Gb  LS-font16_.o [1]
acGUI_FontLSfont16__68B0
                        0x080569cc    0x20  Data  Gb  LS-font16_.o [1]
acGUI_FontLSfont16__68C0
                        0x080569ec    0x20  Data  Gb  LS-font16_.o [1]
acGUI_FontLSfont16__695A
                        0x08056a0c    0x20  Data  Gb  LS-font16_.o [1]
acGUI_FontLSfont16__6982
                        0x08056a2c    0x1c  Data  Gb  LS-font16_.o [1]
acGUI_FontLSfont16__6A21
                        0x08056a48    0x1c  Data  Gb  LS-font16_.o [1]
acGUI_FontLSfont16__6B20
                        0x08056a64    0x20  Data  Gb  LS-font16_.o [1]
acGUI_FontLSfont16__6B21
                        0x08056a84    0x20  Data  Gb  LS-font16_.o [1]
acGUI_FontLSfont16__6B63
                        0x08056aa4    0x1c  Data  Gb  LS-font16_.o [1]
acGUI_FontLSfont16__6B65
                        0x08056ac0    0x20  Data  Gb  LS-font16_.o [1]
acGUI_FontLSfont16__6BB5
                        0x08056ae0    0x20  Data  Gb  LS-font16_.o [1]
acGUI_FontLSfont16__6C14
                        0x08056b00    0x20  Data  Gb  LS-font16_.o [1]
acGUI_FontLSfont16__6C42
                        0x08056b20    0x1c  Data  Gb  LS-font16_.o [1]
acGUI_FontLSfont16__6C49
                        0x08056b3c    0x20  Data  Gb  LS-font16_.o [1]
acGUI_FontLSfont16__6C60
                        0x08056b5c    0x1c  Data  Gb  LS-font16_.o [1]
acGUI_FontLSfont16__6C9F
                        0x08056b78    0x20  Data  Gb  LS-font16_.o [1]
acGUI_FontLSfont16__6CA1
                        0x08056b98    0x1c  Data  Gb  LS-font16_.o [1]
acGUI_FontLSfont16__6CD5
                        0x08056bb4    0x20  Data  Gb  LS-font16_.o [1]
acGUI_FontLSfont16__6CE2
                        0x08056bd4    0x20  Data  Gb  LS-font16_.o [1]
acGUI_FontLSfont16__6D41
                        0x08056bf4    0x1c  Data  Gb  LS-font16_.o [1]
acGUI_FontLSfont16__6D4B
                        0x08056c10    0x1c  Data  Gb  LS-font16_.o [1]
acGUI_FontLSfont16__6D88
                        0x08056c2c    0x1c  Data  Gb  LS-font16_.o [1]
acGUI_FontLSfont16__6E05
                        0x08056c48    0x1c  Data  Gb  LS-font16_.o [1]
acGUI_FontLSfont16__6E29
                        0x08056c64    0x1c  Data  Gb  LS-font16_.o [1]
acGUI_FontLSfont16__6E90
                        0x08056c80    0x1c  Data  Gb  LS-font16_.o [1]
acGUI_FontLSfont16__6EEA
                        0x08056c9c    0x20  Data  Gb  LS-font16_.o [1]
acGUI_FontLSfont16__6FC0
                        0x08056cbc    0x20  Data  Gb  LS-font16_.o [1]
acGUI_FontLSfont16__70B9
                        0x08056cdc    0x20  Data  Gb  LS-font16_.o [1]
acGUI_FontLSfont16__70ED
                        0x08056cfc    0x20  Data  Gb  LS-font16_.o [1]
acGUI_FontLSfont16__7248
                        0x08056d1c    0x1c  Data  Gb  LS-font16_.o [1]
acGUI_FontLSfont16__7279
                        0x08056d38    0x20  Data  Gb  LS-font16_.o [1]
acGUI_FontLSfont16__72B6
                        0x08056d58    0x20  Data  Gb  LS-font16_.o [1]
acGUI_FontLSfont16__7387
                        0x08056d78    0x20  Data  Gb  LS-font16_.o [1]
acGUI_FontLSfont16__73AF
                        0x08056d98    0x1c  Data  Gb  LS-font16_.o [1]
acGUI_FontLSfont16__73B0
                        0x08056db4    0x1c  Data  Gb  LS-font16_.o [1]
acGUI_FontLSfont16__7406
                        0x08056dd0    0x1c  Data  Gb  LS-font16_.o [1]
acGUI_FontLSfont16__74E6
                        0x08056dec    0x1c  Data  Gb  LS-font16_.o [1]
acGUI_FontLSfont16__751F
                        0x08056e08    0x20  Data  Gb  LS-font16_.o [1]
acGUI_FontLSfont16__7528
                        0x08056e28    0x1c  Data  Gb  LS-font16_.o [1]
acGUI_FontLSfont16__7535
                        0x08056e44    0x20  Data  Gb  LS-font16_.o [1]
acGUI_FontLSfont16__767B
                        0x08056e64    0x20  Data  Gb  LS-font16_.o [1]
acGUI_FontLSfont16__7684
                        0x08056e84    0x20  Data  Gb  LS-font16_.o [1]
acGUI_FontLSfont16__76EE
                        0x08056ea4    0x1c  Data  Gb  LS-font16_.o [1]
acGUI_FontLSfont16__76F8
                        0x08056ec0    0x20  Data  Gb  LS-font16_.o [1]
acGUI_FontLSfont16__77AC
                        0x08056ee0    0x20  Data  Gb  LS-font16_.o [1]
acGUI_FontLSfont16__77E2
                        0x08056f00    0x20  Data  Gb  LS-font16_.o [1]
acGUI_FontLSfont16__77ED
                        0x08056f20    0x20  Data  Gb  LS-font16_.o [1]
acGUI_FontLSfont16__7801
                        0x08056f40    0x1c  Data  Gb  LS-font16_.o [1]
acGUI_FontLSfont16__7834
                        0x08056f5c    0x20  Data  Gb  LS-font16_.o [1]
acGUI_FontLSfont16__786C
                        0x08056f7c    0x1c  Data  Gb  LS-font16_.o [1]
acGUI_FontLSfont16__786E
                        0x08056f98    0x20  Data  Gb  LS-font16_.o [1]
acGUI_FontLSfont16__78C1
                        0x08056fb8    0x20  Data  Gb  LS-font16_.o [1]
acGUI_FontLSfont16__78E8
                        0x08056fd8    0x20  Data  Gb  LS-font16_.o [1]
acGUI_FontLSfont16__793A
                        0x08056ff8    0x1c  Data  Gb  LS-font16_.o [1]
acGUI_FontLSfont16__79D2
                        0x08057014    0x20  Data  Gb  LS-font16_.o [1]
acGUI_FontLSfont16__79F0
                        0x08057034    0x20  Data  Gb  LS-font16_.o [1]
acGUI_FontLSfont16__7A0B
                        0x08057054    0x20  Data  Gb  LS-font16_.o [1]
acGUI_FontLSfont16__7A81
                        0x08057074    0x1c  Data  Gb  LS-font16_.o [1]
acGUI_FontLSfont16__7B49
                        0x08057090    0x20  Data  Gb  LS-font16_.o [1]
acGUI_FontLSfont16__7C7B
                        0x080570b0    0x20  Data  Gb  LS-font16_.o [1]
acGUI_FontLSfont16__7CFB
                        0x080570d0    0x1c  Data  Gb  LS-font16_.o [1]
acGUI_FontLSfont16__7D20
                        0x080570ec    0x20  Data  Gb  LS-font16_.o [1]
acGUI_FontLSfont16__7EBF
                        0x0805710c    0x20  Data  Gb  LS-font16_.o [1]
acGUI_FontLSfont16__7EC4
                        0x0805712c    0x20  Data  Gb  LS-font16_.o [1]
acGUI_FontLSfont16__7ECA
                        0x0805714c    0x20  Data  Gb  LS-font16_.o [1]
acGUI_FontLSfont16__7ED3
                        0x0805716c    0x20  Data  Gb  LS-font16_.o [1]
acGUI_FontLSfont16__7EDB
                        0x0805718c    0x20  Data  Gb  LS-font16_.o [1]
acGUI_FontLSfont16__7EDC
                        0x080571ac    0x20  Data  Gb  LS-font16_.o [1]
acGUI_FontLSfont16__7EDF
                        0x080571cc    0x20  Data  Gb  LS-font16_.o [1]
acGUI_FontLSfont16__7EE7
                        0x080571ec    0x20  Data  Gb  LS-font16_.o [1]
acGUI_FontLSfont16__7EED
                        0x0805720c    0x20  Data  Gb  LS-font16_.o [1]
acGUI_FontLSfont16__7F13
                        0x0805722c    0x20  Data  Gb  LS-font16_.o [1]
acGUI_FontLSfont16__7F3A
                        0x0805724c    0x20  Data  Gb  LS-font16_.o [1]
acGUI_FontLSfont16__7F51
                        0x0805726c    0x1c  Data  Gb  LS-font16_.o [1]
acGUI_FontLSfont16__7F57
                        0x08057288    0x1c  Data  Gb  LS-font16_.o [1]
acGUI_FontLSfont16__7F6E
                        0x080572a4    0x20  Data  Gb  LS-font16_.o [1]
acGUI_FontLSfont16__7FFB
                        0x080572c4    0x20  Data  Gb  LS-font16_.o [1]
acGUI_FontLSfont16__8003
                        0x080572e4    0x20  Data  Gb  LS-font16_.o [1]
acGUI_FontLSfont16__8054
                        0x08057304    0x1c  Data  Gb  LS-font16_.o [1]
acGUI_FontLSfont16__806A
                        0x08057320    0x20  Data  Gb  LS-font16_.o [1]
acGUI_FontLSfont16__80FD
                        0x08057340    0x1c  Data  Gb  LS-font16_.o [1]
acGUI_FontLSfont16__8109
                        0x0805735c    0x20  Data  Gb  LS-font16_.o [1]
acGUI_FontLSfont16__8131
                        0x0805737c    0x20  Data  Gb  LS-font16_.o [1]
acGUI_FontLSfont16__81EA
                        0x0805739c    0x20  Data  Gb  LS-font16_.o [1]
acGUI_FontLSfont16__81F4
                        0x080573bc    0x20  Data  Gb  LS-font16_.o [1]
acGUI_FontLSfont16__82E5
                        0x080573dc    0x20  Data  Gb  LS-font16_.o [1]
acGUI_FontLSfont16__82F1
                        0x080573fc    0x20  Data  Gb  LS-font16_.o [1]
acGUI_FontLSfont16__8303
                        0x0805741c    0x20  Data  Gb  LS-font16_.o [1]
acGUI_FontLSfont16__8377
                        0x0805743c    0x20  Data  Gb  LS-font16_.o [1]
acGUI_FontLSfont16__83DC
                        0x0805745c    0x20  Data  Gb  LS-font16_.o [1]
acGUI_FontLSfont16__8425
                        0x0805747c    0x20  Data  Gb  LS-font16_.o [1]
acGUI_FontLSfont16__884C
                        0x0805749c    0x20  Data  Gb  LS-font16_.o [1]
acGUI_FontLSfont16__8861
                        0x080574bc    0x20  Data  Gb  LS-font16_.o [1]
acGUI_FontLSfont16__8870
                        0x080574dc    0x20  Data  Gb  LS-font16_.o [1]
acGUI_FontLSfont16__88C5
                        0x080574fc    0x20  Data  Gb  LS-font16_.o [1]
acGUI_FontLSfont16__8981
                        0x0805751c    0x1c  Data  Gb  LS-font16_.o [1]
acGUI_FontLSfont16__89C8
                        0x08057538    0x20  Data  Gb  LS-font16_.o [1]
acGUI_FontLSfont16__89D2
                        0x08057558    0x20  Data  Gb  LS-font16_.o [1]
acGUI_FontLSfont16__89E6
                        0x08057578    0x20  Data  Gb  LS-font16_.o [1]
acGUI_FontLSfont16__8A00
                        0x08057598    0x20  Data  Gb  LS-font16_.o [1]
acGUI_FontLSfont16__8B66
                        0x080575b8    0x20  Data  Gb  LS-font16_.o [1]
acGUI_FontLSfont16__8BA1
                        0x080575d8    0x20  Data  Gb  LS-font16_.o [1]
acGUI_FontLSfont16__8BA4
                        0x080575f8    0x20  Data  Gb  LS-font16_.o [1]
acGUI_FontLSfont16__8BAF
                        0x08057618    0x1c  Data  Gb  LS-font16_.o [1]
acGUI_FontLSfont16__8BB2
                        0x08057634    0x20  Data  Gb  LS-font16_.o [1]
acGUI_FontLSfont16__8BBE
                        0x08057654    0x1c  Data  Gb  LS-font16_.o [1]
acGUI_FontLSfont16__8BCA
                        0x08057670    0x20  Data  Gb  LS-font16_.o [1]
acGUI_FontLSfont16__8BD5
                        0x08057690    0x20  Data  Gb  LS-font16_.o [1]
acGUI_FontLSfont16__8BE2
                        0x080576b0    0x20  Data  Gb  LS-font16_.o [1]
acGUI_FontLSfont16__8BED
                        0x080576d0    0x1c  Data  Gb  LS-font16_.o [1]
acGUI_FontLSfont16__8BEF
                        0x080576ec    0x1c  Data  Gb  LS-font16_.o [1]
acGUI_FontLSfont16__8BF7
                        0x08057708    0x20  Data  Gb  LS-font16_.o [1]
acGUI_FontLSfont16__8BFB
                        0x08057728    0x20  Data  Gb  LS-font16_.o [1]
acGUI_FontLSfont16__8C10
                        0x08057748    0x20  Data  Gb  LS-font16_.o [1]
acGUI_FontLSfont16__8D1F
                        0x08057768    0x20  Data  Gb  LS-font16_.o [1]
acGUI_FontLSfont16__8D25
                        0x08057788    0x20  Data  Gb  LS-font16_.o [1]
acGUI_FontLSfont16__8D28
                        0x080577a8    0x20  Data  Gb  LS-font16_.o [1]
acGUI_FontLSfont16__8D85
                        0x080577c8    0x20  Data  Gb  LS-font16_.o [1]
acGUI_FontLSfont16__8D8A
                        0x080577e8    0x20  Data  Gb  LS-font16_.o [1]
acGUI_FontLSfont16__8DEF
                        0x08057808    0x20  Data  Gb  LS-font16_.o [1]
acGUI_FontLSfont16__8DF3
                        0x08057828    0x20  Data  Gb  LS-font16_.o [1]
acGUI_FontLSfont16__8F6C
                        0x08057848    0x20  Data  Gb  LS-font16_.o [1]
acGUI_FontLSfont16__8F6F
                        0x08057868    0x20  Data  Gb  LS-font16_.o [1]
acGUI_FontLSfont16__8F7D
                        0x08057888    0x20  Data  Gb  LS-font16_.o [1]
acGUI_FontLSfont16__8F93
                        0x080578a8    0x20  Data  Gb  LS-font16_.o [1]
acGUI_FontLSfont16__8FC7
                        0x080578c8    0x20  Data  Gb  LS-font16_.o [1]
acGUI_FontLSfont16__8FD0
                        0x080578e8    0x1c  Data  Gb  LS-font16_.o [1]
acGUI_FontLSfont16__8FD4
                        0x08057904    0x20  Data  Gb  LS-font16_.o [1]
acGUI_FontLSfont16__8FDB
                        0x08057924    0x20  Data  Gb  LS-font16_.o [1]
acGUI_FontLSfont16__8FDC
                        0x08057944    0x1c  Data  Gb  LS-font16_.o [1]
acGUI_FontLSfont16__8FDE
                        0x08057960    0x20  Data  Gb  LS-font16_.o [1]
acGUI_FontLSfont16__8FF0
                        0x08057980    0x20  Data  Gb  LS-font16_.o [1]
acGUI_FontLSfont16__9000
                        0x080579a0    0x20  Data  Gb  LS-font16_.o [1]
acGUI_FontLSfont16__9001
                        0x080579c0    0x20  Data  Gb  LS-font16_.o [1]
acGUI_FontLSfont16__9009
                        0x080579e0    0x20  Data  Gb  LS-font16_.o [1]
acGUI_FontLSfont16__901A
                        0x08057a00    0x20  Data  Gb  LS-font16_.o [1]
acGUI_FontLSfont16__901F
                        0x08057a20    0x20  Data  Gb  LS-font16_.o [1]
acGUI_FontLSfont16__9020
                        0x08057a40    0x20  Data  Gb  LS-font16_.o [1]
acGUI_FontLSfont16__90AE
                        0x08057a60    0x20  Data  Gb  LS-font16_.o [1]
acGUI_FontLSfont16__90E8
                        0x08057a80    0x20  Data  Gb  LS-font16_.o [1]
acGUI_FontLSfont16__914D
                        0x08057aa0    0x1c  Data  Gb  LS-font16_.o [1]
acGUI_FontLSfont16__91CD
                        0x08057abc    0x20  Data  Gb  LS-font16_.o [1]
acGUI_FontLSfont16__91CF
                        0x08057adc    0x20  Data  Gb  LS-font16_.o [1]
acGUI_FontLSfont16__949F
                        0x08057afc    0x20  Data  Gb  LS-font16_.o [1]
acGUI_FontLSfont16__94AE
                        0x08057b1c    0x1c  Data  Gb  LS-font16_.o [1]
acGUI_FontLSfont16__9501
                        0x08057b38    0x20  Data  Gb  LS-font16_.o [1]
acGUI_FontLSfont16__9519
                        0x08057b58    0x20  Data  Gb  LS-font16_.o [1]
acGUI_FontLSfont16__952E
                        0x08057b78    0x20  Data  Gb  LS-font16_.o [1]
acGUI_FontLSfont16__957F
                        0x08057b98    0x20  Data  Gb  LS-font16_.o [1]
acGUI_FontLSfont16__95ED
                        0x08057bb8    0x20  Data  Gb  LS-font16_.o [1]
acGUI_FontLSfont16__95F4
                        0x08057bd8    0x20  Data  Gb  LS-font16_.o [1]
acGUI_FontLSfont16__95F8
                        0x08057bf8    0x20  Data  Gb  LS-font16_.o [1]
acGUI_FontLSfont16__9605
                        0x08057c18    0x20  Data  Gb  LS-font16_.o [1]
acGUI_FontLSfont16__9636
                        0x08057c38    0x20  Data  Gb  LS-font16_.o [1]
acGUI_FontLSfont16__9644
                        0x08057c58    0x20  Data  Gb  LS-font16_.o [1]
acGUI_FontLSfont16__9650
                        0x08057c78    0x1c  Data  Gb  LS-font16_.o [1]
acGUI_FontLSfont16__9664
                        0x08057c94    0x20  Data  Gb  LS-font16_.o [1]
acGUI_FontLSfont16__969C
                        0x08057cb4    0x20  Data  Gb  LS-font16_.o [1]
acGUI_FontLSfont16__96C6
                        0x08057cd4    0x20  Data  Gb  LS-font16_.o [1]
acGUI_FontLSfont16__96F6
                        0x08057cf4    0x1c  Data  Gb  LS-font16_.o [1]
acGUI_FontLSfont16__9700
                        0x08057d10    0x20  Data  Gb  LS-font16_.o [1]
acGUI_FontLSfont16__9806
                        0x08057d30    0x20  Data  Gb  LS-font16_.o [1]
acGUI_FontLSfont16__9879
                        0x08057d50    0x1c  Data  Gb  LS-font16_.o [1]
acGUI_FontLSfont16__987A
                        0x08057d6c    0x20  Data  Gb  LS-font16_.o [1]
acGUI_FontLSfont16__9884
                        0x08057d8c    0x1c  Data  Gb  LS-font16_.o [1]
acGUI_FontLSfont16__9886
                        0x08057da8    0x20  Data  Gb  LS-font16_.o [1]
acGUI_FontLSfont16__9891
                        0x08057dc8    0x20  Data  Gb  LS-font16_.o [1]
acGUI_FontLSfont16__989D
                        0x08057de8    0x20  Data  Gb  LS-font16_.o [1]
acGUI_FontLSfont16__9AD8
                        0x08057e08    0x20  Data  Gb  LS-font16_.o [1]
acGUI_FontLSfont16__F901
                        0x08057e28    0x1c  Data  Gb  LS-font16_.o [1]
acGUI_FontLSfont16__F92E
                        0x08057e44    0x20  Data  Gb  LS-font16_.o [1]
acGUI_FontLSfont16__F937
                        0x08057e64    0x20  Data  Gb  LS-font16_.o [1]
acGUI_FontLSfont16__F961
                        0x08057e84    0x20  Data  Gb  LS-font16_.o [1]
acGUI_FontLSfont16__F967
                        0x08057ea4    0x1c  Data  Gb  LS-font16_.o [1]
acGUI_FontLSfont16__F974
                        0x08057ec0    0x20  Data  Gb  LS-font16_.o [1]
acGUI_FontLSfont16__F977
                        0x08057ee0    0x20  Data  Gb  LS-font16_.o [1]
acGUI_FontLSfont16__F97E
                        0x08057f00    0x20  Data  Gb  LS-font16_.o [1]
acGUI_FontLSfont16__F983
                        0x08057f20    0x20  Data  Gb  LS-font16_.o [1]
acGUI_FontLSfont16__F98E
                        0x08057f40    0x20  Data  Gb  LS-font16_.o [1]
acGUI_FontLSfont16__F99C
                        0x08057f60    0x20  Data  Gb  LS-font16_.o [1]
acGUI_FontLSfont16__F9B2
                        0x08057f80    0x1c  Data  Gb  LS-font16_.o [1]
acGUI_FontLSfont16__F9CA
                        0x08057f9c    0x1c  Data  Gb  LS-font16_.o [1]
acGUI_FontLSfont16__F9DB
                        0x08057fb8    0x20  Data  Gb  LS-font16_.o [1]
acGUI_FontLSfont16__F9E4
                        0x08057fd8    0x1c  Data  Gb  LS-font16_.o [1]
acGUI_FontLSfont16__FA01
                        0x08057ff4    0x20  Data  Gb  LS-font16_.o [1]
acGUI_FontLSfont16__FA04
                        0x08058014    0x20  Data  Gb  LS-font16_.o [1]
acGUI_FontLSfont16__FA08
                        0x08058034    0x20  Data  Gb  LS-font16_.o [1]
acGUI_FontLSfont16__FA38
                        0x08058054    0x1c  Data  Gb  LS-font16_.o [1]
acGUI_FontLSfont16__FA55
                        0x08058070    0x1c  Data  Gb  LS-font16_.o [1]
acGUI_FontLSfont16__FA72
                        0x0805808c    0x20  Data  Gb  LS-font16_.o [1]
acGUI_FontLSfont16__FA74
                        0x080580ac    0x20  Data  Gb  LS-font16_.o [1]
acGUI_FontLSfont16__FA97
                        0x080580cc    0x1c  Data  Gb  LS-font16_.o [1]
acGUI_FontLSfont16__FAAE
                        0x080580e8    0x20  Data  Gb  LS-font16_.o [1]
acGUI_FontLSfont24__0020
                        0x0802e3b8    0x14  Data  Gb  LS-font24_.o [1]
acGUI_FontLSfont24__0021
                        0x0802e3cc    0x14  Data  Gb  LS-font24_.o [1]
acGUI_FontLSfont24__0022
                        0x0802e3e0     0x8  Data  Gb  LS-font24_.o [1]
acGUI_FontLSfont24__0023
                        0x0802e3e8    0x24  Data  Gb  LS-font24_.o [1]
acGUI_FontLSfont24__0024
                        0x0802e40c    0x2c  Data  Gb  LS-font24_.o [1]
acGUI_FontLSfont24__0025
                        0x0802e438    0x3c  Data  Gb  LS-font24_.o [1]
acGUI_FontLSfont24__0026
                        0x0802e474    0x2c  Data  Gb  LS-font24_.o [1]
acGUI_FontLSfont24__0027
                        0x0802e4a0     0x8  Data  Gb  LS-font24_.o [1]
acGUI_FontLSfont24__0028
                        0x0802e4a8    0x18  Data  Gb  LS-font24_.o [1]
acGUI_FontLSfont24__0029
                        0x0802e4c0    0x18  Data  Gb  LS-font24_.o [1]
acGUI_FontLSfont24__002A
                        0x0802e4d8     0x8  Data  Gb  LS-font24_.o [1]
acGUI_FontLSfont24__002B
                        0x0802e4e0    0x18  Data  Gb  LS-font24_.o [1]
acGUI_FontLSfont24__002C
                        0x0802e4f8     0x8  Data  Gb  LS-font24_.o [1]
acGUI_FontLSfont24__002D
                        0x0802e500     0x4  Data  Gb  LS-font24_.o [1]
acGUI_FontLSfont24__002E
                        0x0802e504     0x4  Data  Gb  LS-font24_.o [1]
acGUI_FontLSfont24__002F
                        0x0802e508    0x18  Data  Gb  LS-font24_.o [1]
acGUI_FontLSfont24__0030
                        0x0802e520    0x28  Data  Gb  LS-font24_.o [1]
acGUI_FontLSfont24__0031
                        0x0802e548    0x14  Data  Gb  LS-font24_.o [1]
acGUI_FontLSfont24__0032
                        0x0802e55c    0x28  Data  Gb  LS-font24_.o [1]
acGUI_FontLSfont24__0033
                        0x0802e584    0x28  Data  Gb  LS-font24_.o [1]
acGUI_FontLSfont24__0034
                        0x0802e5ac    0x28  Data  Gb  LS-font24_.o [1]
acGUI_FontLSfont24__0035
                        0x0802e5d4    0x28  Data  Gb  LS-font24_.o [1]
acGUI_FontLSfont24__0036
                        0x0802e5fc    0x28  Data  Gb  LS-font24_.o [1]
acGUI_FontLSfont24__0037
                        0x0802e624    0x28  Data  Gb  LS-font24_.o [1]
acGUI_FontLSfont24__0038
                        0x0802e64c    0x28  Data  Gb  LS-font24_.o [1]
acGUI_FontLSfont24__0039
                        0x0802e674    0x28  Data  Gb  LS-font24_.o [1]
acGUI_FontLSfont24__003A
                        0x0802e69c     0xc  Data  Gb  LS-font24_.o [1]
acGUI_FontLSfont24__003B
                        0x0802e6a8    0x10  Data  Gb  LS-font24_.o [1]
acGUI_FontLSfont24__003C
                        0x0802e6b8    0x24  Data  Gb  LS-font24_.o [1]
acGUI_FontLSfont24__003D
                        0x0802e6dc    0x10  Data  Gb  LS-font24_.o [1]
acGUI_FontLSfont24__003E
                        0x0802e6ec    0x24  Data  Gb  LS-font24_.o [1]
acGUI_FontLSfont24__003F
                        0x0802e710    0x28  Data  Gb  LS-font24_.o [1]
acGUI_FontLSfont24__0040
                        0x0802e738    0x3c  Data  Gb  LS-font24_.o [1]
acGUI_FontLSfont24__0041
                        0x0802e774    0x28  Data  Gb  LS-font24_.o [1]
acGUI_FontLSfont24__0042
                        0x0802e79c    0x28  Data  Gb  LS-font24_.o [1]
acGUI_FontLSfont24__0043
                        0x0802e7c4    0x28  Data  Gb  LS-font24_.o [1]
acGUI_FontLSfont24__0044
                        0x0802e7ec    0x28  Data  Gb  LS-font24_.o [1]
acGUI_FontLSfont24__0045
                        0x0802e814    0x28  Data  Gb  LS-font24_.o [1]
acGUI_FontLSfont24__0046
                        0x0802e83c    0x28  Data  Gb  LS-font24_.o [1]
acGUI_FontLSfont24__0047
                        0x0802e864    0x28  Data  Gb  LS-font24_.o [1]
acGUI_FontLSfont24__0048
                        0x0802e88c    0x28  Data  Gb  LS-font24_.o [1]
acGUI_FontLSfont24__0049
                        0x0802e8b4    0x14  Data  Gb  LS-font24_.o [1]
acGUI_FontLSfont24__004A
                        0x0802e8c8    0x14  Data  Gb  LS-font24_.o [1]
acGUI_FontLSfont24__004B
                        0x0802e8dc    0x28  Data  Gb  LS-font24_.o [1]
acGUI_FontLSfont24__004C
                        0x0802e904    0x28  Data  Gb  LS-font24_.o [1]
acGUI_FontLSfont24__004D
                        0x0802e92c    0x28  Data  Gb  LS-font24_.o [1]
acGUI_FontLSfont24__004E
                        0x0802e954    0x28  Data  Gb  LS-font24_.o [1]
acGUI_FontLSfont24__004F
                        0x0802e97c    0x28  Data  Gb  LS-font24_.o [1]
acGUI_FontLSfont24__0050
                        0x0802e9a4    0x28  Data  Gb  LS-font24_.o [1]
acGUI_FontLSfont24__0051
                        0x0802e9cc    0x28  Data  Gb  LS-font24_.o [1]
acGUI_FontLSfont24__0052
                        0x0802e9f4    0x28  Data  Gb  LS-font24_.o [1]
acGUI_FontLSfont24__0053
                        0x0802ea1c    0x28  Data  Gb  LS-font24_.o [1]
acGUI_FontLSfont24__0054
                        0x0802ea44    0x28  Data  Gb  LS-font24_.o [1]
acGUI_FontLSfont24__0055
                        0x0802ea6c    0x28  Data  Gb  LS-font24_.o [1]
acGUI_FontLSfont24__0056
                        0x0802ea94    0x28  Data  Gb  LS-font24_.o [1]
acGUI_FontLSfont24__0057
                        0x0802eabc    0x3c  Data  Gb  LS-font24_.o [1]
acGUI_FontLSfont24__0058
                        0x0802eaf8    0x28  Data  Gb  LS-font24_.o [1]
acGUI_FontLSfont24__0059
                        0x0802eb20    0x28  Data  Gb  LS-font24_.o [1]
acGUI_FontLSfont24__005A
                        0x0802eb48    0x28  Data  Gb  LS-font24_.o [1]
acGUI_FontLSfont24__005B
                        0x0802eb70    0x18  Data  Gb  LS-font24_.o [1]
acGUI_FontLSfont24__005C
                        0x0802eb88    0x28  Data  Gb  LS-font24_.o [1]
acGUI_FontLSfont24__005D
                        0x0802ebb0    0x18  Data  Gb  LS-font24_.o [1]
acGUI_FontLSfont24__005E
                        0x0802ebc8     0xc  Data  Gb  LS-font24_.o [1]
acGUI_FontLSfont24__005F
                        0x0802ebd4     0x4  Data  Gb  LS-font24_.o [1]
acGUI_FontLSfont24__0060
                        0x0802ebd8     0x4  Data  Gb  LS-font24_.o [1]
acGUI_FontLSfont24__0061
                        0x0802ebdc    0x1c  Data  Gb  LS-font24_.o [1]
acGUI_FontLSfont24__0062
                        0x0802ebf8    0x28  Data  Gb  LS-font24_.o [1]
acGUI_FontLSfont24__0063
                        0x0802ec20    0x1c  Data  Gb  LS-font24_.o [1]
acGUI_FontLSfont24__0064
                        0x0802ec3c    0x28  Data  Gb  LS-font24_.o [1]
acGUI_FontLSfont24__0065
                        0x0802ec64    0x1c  Data  Gb  LS-font24_.o [1]
acGUI_FontLSfont24__0066
                        0x0802ec80    0x14  Data  Gb  LS-font24_.o [1]
acGUI_FontLSfont24__0067
                        0x0802ec94    0x20  Data  Gb  LS-font24_.o [1]
acGUI_FontLSfont24__0068
                        0x0802ecb4    0x28  Data  Gb  LS-font24_.o [1]
acGUI_FontLSfont24__0069
                        0x0802ecdc    0x14  Data  Gb  LS-font24_.o [1]
acGUI_FontLSfont24__006A
                        0x0802ecf0    0x18  Data  Gb  LS-font24_.o [1]
acGUI_FontLSfont24__006B
                        0x0802ed08    0x28  Data  Gb  LS-font24_.o [1]
acGUI_FontLSfont24__006C
                        0x0802ed30    0x14  Data  Gb  LS-font24_.o [1]
acGUI_FontLSfont24__006D
                        0x0802ed44    0x1c  Data  Gb  LS-font24_.o [1]
acGUI_FontLSfont24__006E
                        0x0802ed60    0x1c  Data  Gb  LS-font24_.o [1]
acGUI_FontLSfont24__006F
                        0x0802ed7c    0x1c  Data  Gb  LS-font24_.o [1]
acGUI_FontLSfont24__0070
                        0x0802ed98    0x24  Data  Gb  LS-font24_.o [1]
acGUI_FontLSfont24__0071
                        0x0802edbc    0x24  Data  Gb  LS-font24_.o [1]
acGUI_FontLSfont24__0072
                        0x0802ede0    0x10  Data  Gb  LS-font24_.o [1]
acGUI_FontLSfont24__0073
                        0x0802edf0    0x1c  Data  Gb  LS-font24_.o [1]
acGUI_FontLSfont24__0074
                        0x0802ee0c    0x14  Data  Gb  LS-font24_.o [1]
acGUI_FontLSfont24__0075
                        0x0802ee20    0x1c  Data  Gb  LS-font24_.o [1]
acGUI_FontLSfont24__0076
                        0x0802ee3c    0x1c  Data  Gb  LS-font24_.o [1]
acGUI_FontLSfont24__0077
                        0x0802ee58    0x2c  Data  Gb  LS-font24_.o [1]
acGUI_FontLSfont24__0078
                        0x0802ee84    0x1c  Data  Gb  LS-font24_.o [1]
acGUI_FontLSfont24__0079
                        0x0802eea0    0x20  Data  Gb  LS-font24_.o [1]
acGUI_FontLSfont24__007A
                        0x0802eec0    0x1c  Data  Gb  LS-font24_.o [1]
acGUI_FontLSfont24__007B
                        0x0802eedc    0x18  Data  Gb  LS-font24_.o [1]
acGUI_FontLSfont24__007C
                        0x0802eef4    0x18  Data  Gb  LS-font24_.o [1]
acGUI_FontLSfont24__007D
                        0x0802ef0c    0x18  Data  Gb  LS-font24_.o [1]
acGUI_FontLSfont24__007E
                        0x0802ef24     0x8  Data  Gb  LS-font24_.o [1]
acGUI_FontLSfont24__007F
                        0x0802ef2c    0x28  Data  Gb  LS-font24_.o [1]
acGUI_FontLSfont24__00B0
                        0x0802ef54     0x8  Data  Gb  LS-font24_.o [1]
acGUI_FontLSfont24__0394
                        0x0802ef5c    0x24  Data  Gb  LS-font24_.o [1]
acGUI_FontLSfont24__2103
                        0x0802ef80    0x34  Data  Gb  LS-font24_.o [1]
acGUI_FontLSfont24__2105
                        0x0802efb4    0x48  Data  Gb  LS-font24_.o [1]
acGUI_FontLSfont24__2109
                        0x0802effc    0x40  Data  Gb  LS-font24_.o [1]
acGUI_FontLSfont24__2126
                        0x0802f03c    0x24  Data  Gb  LS-font24_.o [1]
acGUI_FontLSfont24__2160
                        0x0802f060    0x14  Data  Gb  LS-font24_.o [1]
acGUI_FontLSfont24__2161
                        0x0802f074    0x24  Data  Gb  LS-font24_.o [1]
acGUI_FontLSfont24__2162
                        0x0802f098    0x24  Data  Gb  LS-font24_.o [1]
acGUI_FontLSfont24__2163
                        0x0802f0bc    0x34  Data  Gb  LS-font24_.o [1]
acGUI_FontLSfont24__2164
                        0x0802f0f0    0x24  Data  Gb  LS-font24_.o [1]
acGUI_FontLSfont24__2165
                        0x0802f114    0x34  Data  Gb  LS-font24_.o [1]
acGUI_FontLSfont24__2166
                        0x0802f148    0x34  Data  Gb  LS-font24_.o [1]
acGUI_FontLSfont24__2167
                        0x0802f17c    0x34  Data  Gb  LS-font24_.o [1]
acGUI_FontLSfont24__2168
                        0x0802f1b0    0x34  Data  Gb  LS-font24_.o [1]
acGUI_FontLSfont24__2169
                        0x0802f1e4    0x24  Data  Gb  LS-font24_.o [1]
acGUI_FontLSfont24__216A
                        0x0802f208    0x24  Data  Gb  LS-font24_.o [1]
acGUI_FontLSfont24__216B
                        0x0802f22c    0x38  Data  Gb  LS-font24_.o [1]
acGUI_FontLSfont24__2170
                        0x0802f264    0x10  Data  Gb  LS-font24_.o [1]
acGUI_FontLSfont24__2171
                        0x0802f274    0x20  Data  Gb  LS-font24_.o [1]
acGUI_FontLSfont24__2172
                        0x0802f294    0x20  Data  Gb  LS-font24_.o [1]
acGUI_FontLSfont24__2173
                        0x0802f2b4    0x20  Data  Gb  LS-font24_.o [1]
acGUI_FontLSfont24__2174
                        0x0802f2d4    0x18  Data  Gb  LS-font24_.o [1]
acGUI_FontLSfont24__2175
                        0x0802f2ec    0x20  Data  Gb  LS-font24_.o [1]
acGUI_FontLSfont24__2176
                        0x0802f30c    0x30  Data  Gb  LS-font24_.o [1]
acGUI_FontLSfont24__2177
                        0x0802f33c    0x30  Data  Gb  LS-font24_.o [1]
acGUI_FontLSfont24__2178
                        0x0802f36c    0x30  Data  Gb  LS-font24_.o [1]
acGUI_FontLSfont24__2179
                        0x0802f39c    0x18  Data  Gb  LS-font24_.o [1]
acGUI_FontLSfont24__217A
                        0x0802f3b4    0x1c  Data  Gb  LS-font24_.o [1]
acGUI_FontLSfont24__217B
                        0x0802f3d0    0x28  Data  Gb  LS-font24_.o [1]
acGUI_FontLSfont24__4E00
                        0x0802f3f8     0x8  Data  Gb  LS-font24_.o [1]
acGUI_FontLSfont24__4E09
                        0x0802f400    0x3c  Data  Gb  LS-font24_.o [1]
acGUI_FontLSfont24__4E0A
                        0x0802f43c    0x40  Data  Gb  LS-font24_.o [1]
acGUI_FontLSfont24__4E0B
                        0x0802f47c    0x48  Data  Gb  LS-font24_.o [1]
acGUI_FontLSfont24__4E0D
                        0x0802f4c4    0x48  Data  Gb  LS-font24_.o [1]
acGUI_FontLSfont24__4E1F
                        0x0802f50c    0x44  Data  Gb  LS-font24_.o [1]
acGUI_FontLSfont24__4E22
                        0x0802f550    0x44  Data  Gb  LS-font24_.o [1]
acGUI_FontLSfont24__4E2D
                        0x0802f594    0x48  Data  Gb  LS-font24_.o [1]
acGUI_FontLSfont24__4E3B
                        0x0802f5dc    0x48  Data  Gb  LS-font24_.o [1]
acGUI_FontLSfont24__4E4F
                        0x0802f624    0x48  Data  Gb  LS-font24_.o [1]
acGUI_FontLSfont24__4E8B
                        0x0802f66c    0x48  Data  Gb  LS-font24_.o [1]
acGUI_FontLSfont24__4E8E
                        0x0802f6b4    0x44  Data  Gb  LS-font24_.o [1]
acGUI_FontLSfont24__4EA4
                        0x0802f6f8    0x48  Data  Gb  LS-font24_.o [1]
acGUI_FontLSfont24__4EA7
                        0x0802f740    0x44  Data  Gb  LS-font24_.o [1]
acGUI_FontLSfont24__4EAE
                        0x0802f784    0x48  Data  Gb  LS-font24_.o [1]
acGUI_FontLSfont24__4EBA
                        0x0802f7cc    0x44  Data  Gb  LS-font24_.o [1]
acGUI_FontLSfont24__4ED6
                        0x0802f810    0x44  Data  Gb  LS-font24_.o [1]
acGUI_FontLSfont24__4EE3
                        0x0802f854    0x48  Data  Gb  LS-font24_.o [1]
acGUI_FontLSfont24__4EEA
                        0x0802f89c    0x44  Data  Gb  LS-font24_.o [1]
acGUI_FontLSfont24__4EF6
                        0x0802f8e0    0x48  Data  Gb  LS-font24_.o [1]
acGUI_FontLSfont24__4EFB
                        0x0802f928    0x48  Data  Gb  LS-font24_.o [1]
acGUI_FontLSfont24__4F20
                        0x0802f970    0x48  Data  Gb  LS-font24_.o [1]
acGUI_FontLSfont24__4F4D
                        0x0802f9b8    0x48  Data  Gb  LS-font24_.o [1]
acGUI_FontLSfont24__4F4E
                        0x0802fa00    0x48  Data  Gb  LS-font24_.o [1]
acGUI_FontLSfont24__4F59
                        0x0802fa48    0x48  Data  Gb  LS-font24_.o [1]
acGUI_FontLSfont24__4F5C
                        0x0802fa90    0x48  Data  Gb  LS-font24_.o [1]
acGUI_FontLSfont24__4F60
                        0x0802fad8    0x48  Data  Gb  LS-font24_.o [1]
acGUI_FontLSfont24__4F7F
                        0x0802fb20    0x48  Data  Gb  LS-font24_.o [1]
acGUI_FontLSfont24__4F9B
                        0x0802fb68    0x48  Data  Gb  LS-font24_.o [1]
acGUI_FontLSfont24__4FC4
                        0x0802fbb0    0x48  Data  Gb  LS-font24_.o [1]
acGUI_FontLSfont24__4FDD
                        0x0802fbf8    0x48  Data  Gb  LS-font24_.o [1]
acGUI_FontLSfont24__4FE1
                        0x0802fc40    0x48  Data  Gb  LS-font24_.o [1]
acGUI_FontLSfont24__5012
                        0x0802fc88    0x48  Data  Gb  LS-font24_.o [1]
acGUI_FontLSfont24__503C
                        0x0802fcd0    0x44  Data  Gb  LS-font24_.o [1]
acGUI_FontLSfont24__50A8
                        0x0802fd14    0x48  Data  Gb  LS-font24_.o [1]
acGUI_FontLSfont24__50CF
                        0x0802fd5c    0x48  Data  Gb  LS-font24_.o [1]
acGUI_FontLSfont24__5145
                        0x0802fda4    0x48  Data  Gb  LS-font24_.o [1]
acGUI_FontLSfont24__5165
                        0x0802fdec    0x40  Data  Gb  LS-font24_.o [1]
acGUI_FontLSfont24__5168
                        0x0802fe2c    0x48  Data  Gb  LS-font24_.o [1]
acGUI_FontLSfont24__516C
                        0x0802fe74    0x44  Data  Gb  LS-font24_.o [1]
acGUI_FontLSfont24__5171
                        0x0802feb8    0x48  Data  Gb  LS-font24_.o [1]
acGUI_FontLSfont24__5173
                        0x0802ff00    0x44  Data  Gb  LS-font24_.o [1]
acGUI_FontLSfont24__5176
                        0x0802ff44    0x44  Data  Gb  LS-font24_.o [1]
acGUI_FontLSfont24__5185
                        0x0802ff88    0x44  Data  Gb  LS-font24_.o [1]
acGUI_FontLSfont24__5199
                        0x0802ffcc    0x44  Data  Gb  LS-font24_.o [1]
acGUI_FontLSfont24__51B2
                        0x08030010    0x44  Data  Gb  LS-font24_.o [1]
acGUI_FontLSfont24__51B7
                        0x08030054    0x48  Data  Gb  LS-font24_.o [1]
acGUI_FontLSfont24__51C6
                        0x0803009c    0x44  Data  Gb  LS-font24_.o [1]
acGUI_FontLSfont24__51CF
                        0x080300e0    0x44  Data  Gb  LS-font24_.o [1]
acGUI_FontLSfont24__51FA
                        0x08030124    0x44  Data  Gb  LS-font24_.o [1]
acGUI_FontLSfont24__5206
                        0x08030168    0x40  Data  Gb  LS-font24_.o [1]
acGUI_FontLSfont24__5217
                        0x080301a8    0x48  Data  Gb  LS-font24_.o [1]
acGUI_FontLSfont24__521D
                        0x080301f0    0x48  Data  Gb  LS-font24_.o [1]
acGUI_FontLSfont24__5220
                        0x08030238    0x40  Data  Gb  LS-font24_.o [1]
acGUI_FontLSfont24__5230
                        0x08030278    0x48  Data  Gb  LS-font24_.o [1]
acGUI_FontLSfont24__5236
                        0x080302c0    0x44  Data  Gb  LS-font24_.o [1]
acGUI_FontLSfont24__524D
                        0x08030304    0x48  Data  Gb  LS-font24_.o [1]
acGUI_FontLSfont24__5269
                        0x0803034c    0x48  Data  Gb  LS-font24_.o [1]
acGUI_FontLSfont24__5273
                        0x08030394    0x44  Data  Gb  LS-font24_.o [1]
acGUI_FontLSfont24__529F
                        0x080303d8    0x48  Data  Gb  LS-font24_.o [1]
acGUI_FontLSfont24__52A0
                        0x08030420    0x48  Data  Gb  LS-font24_.o [1]
acGUI_FontLSfont24__52A8
                        0x08030468    0x44  Data  Gb  LS-font24_.o [1]
acGUI_FontLSfont24__52B1
                        0x080304ac    0x48  Data  Gb  LS-font24_.o [1]
acGUI_FontLSfont24__5316
                        0x080304f4    0x44  Data  Gb  LS-font24_.o [1]
acGUI_FontLSfont24__5339
                        0x08030538    0x44  Data  Gb  LS-font24_.o [1]
acGUI_FontLSfont24__533A
                        0x0803057c    0x44  Data  Gb  LS-font24_.o [1]
acGUI_FontLSfont24__5355
                        0x080305c0    0x48  Data  Gb  LS-font24_.o [1]
acGUI_FontLSfont24__5382
                        0x08030608    0x44  Data  Gb  LS-font24_.o [1]
acGUI_FontLSfont24__5386
                        0x0803064c    0x44  Data  Gb  LS-font24_.o [1]
acGUI_FontLSfont24__538B
                        0x08030690    0x44  Data  Gb  LS-font24_.o [1]
acGUI_FontLSfont24__539F
                        0x080306d4    0x44  Data  Gb  LS-font24_.o [1]
acGUI_FontLSfont24__53BB
                        0x08030718    0x44  Data  Gb  LS-font24_.o [1]
acGUI_FontLSfont24__53C2
                        0x0803075c    0x48  Data  Gb  LS-font24_.o [1]
acGUI_FontLSfont24__53CD
                        0x080307a4    0x40  Data  Gb  LS-font24_.o [1]
acGUI_FontLSfont24__53D1
                        0x080307e4    0x48  Data  Gb  LS-font24_.o [1]
acGUI_FontLSfont24__53D6
                        0x0803082c    0x40  Data  Gb  LS-font24_.o [1]
acGUI_FontLSfont24__53D8
                        0x0803086c    0x48  Data  Gb  LS-font24_.o [1]
acGUI_FontLSfont24__53E3
                        0x080308b4    0x44  Data  Gb  LS-font24_.o [1]
acGUI_FontLSfont24__53F2
                        0x080308f8    0x48  Data  Gb  LS-font24_.o [1]
acGUI_FontLSfont24__53F7
                        0x08030940    0x3c  Data  Gb  LS-font24_.o [1]
acGUI_FontLSfont24__53F8
                        0x0803097c    0x44  Data  Gb  LS-font24_.o [1]
acGUI_FontLSfont24__5408
                        0x080309c0    0x48  Data  Gb  LS-font24_.o [1]
acGUI_FontLSfont24__540C
                        0x08030a08    0x44  Data  Gb  LS-font24_.o [1]
acGUI_FontLSfont24__540D
                        0x08030a4c    0x48  Data  Gb  LS-font24_.o [1]
acGUI_FontLSfont24__540E
                        0x08030a94    0x48  Data  Gb  LS-font24_.o [1]
acGUI_FontLSfont24__5411
                        0x08030adc    0x44  Data  Gb  LS-font24_.o [1]
acGUI_FontLSfont24__5417
                        0x08030b20    0x3c  Data  Gb  LS-font24_.o [1]
acGUI_FontLSfont24__5426
                        0x08030b5c    0x44  Data  Gb  LS-font24_.o [1]
acGUI_FontLSfont24__542F
                        0x08030ba0    0x44  Data  Gb  LS-font24_.o [1]
acGUI_FontLSfont24__544A
                        0x08030be4    0x48  Data  Gb  LS-font24_.o [1]
acGUI_FontLSfont24__5468
                        0x08030c2c    0x48  Data  Gb  LS-font24_.o [1]
acGUI_FontLSfont24__547D
                        0x08030c74    0x48  Data  Gb  LS-font24_.o [1]
acGUI_FontLSfont24__548C
                        0x08030cbc    0x48  Data  Gb  LS-font24_.o [1]
acGUI_FontLSfont24__54C1
                        0x08030d04    0x44  Data  Gb  LS-font24_.o [1]
acGUI_FontLSfont24__5546
                        0x08030d48    0x48  Data  Gb  LS-font24_.o [1]
acGUI_FontLSfont24__5668
                        0x08030d90    0x48  Data  Gb  LS-font24_.o [1]
acGUI_FontLSfont24__56DE
                        0x08030dd8    0x44  Data  Gb  LS-font24_.o [1]
acGUI_FontLSfont24__56E0
                        0x08030e1c    0x44  Data  Gb  LS-font24_.o [1]
acGUI_FontLSfont24__56F4
                        0x08030e60    0x44  Data  Gb  LS-font24_.o [1]
acGUI_FontLSfont24__56FD
                        0x08030ea4    0x44  Data  Gb  LS-font24_.o [1]
acGUI_FontLSfont24__56FE
                        0x08030ee8    0x44  Data  Gb  LS-font24_.o [1]
acGUI_FontLSfont24__5728
                        0x08030f2c    0x48  Data  Gb  LS-font24_.o [1]
acGUI_FontLSfont24__5730
                        0x08030f74    0x44  Data  Gb  LS-font24_.o [1]
acGUI_FontLSfont24__5740
                        0x08030fb8    0x48  Data  Gb  LS-font24_.o [1]
acGUI_FontLSfont24__578B
                        0x08031000    0x48  Data  Gb  LS-font24_.o [1]
acGUI_FontLSfont24__57DF
                        0x08031048    0x48  Data  Gb  LS-font24_.o [1]
acGUI_FontLSfont24__57F9
                        0x08031090    0x48  Data  Gb  LS-font24_.o [1]
acGUI_FontLSfont24__57FA
                        0x080310d8    0x48  Data  Gb  LS-font24_.o [1]
acGUI_FontLSfont24__5883
                        0x08031120    0x48  Data  Gb  LS-font24_.o [1]
acGUI_FontLSfont24__5904
                        0x08031168    0x44  Data  Gb  LS-font24_.o [1]
acGUI_FontLSfont24__5907
                        0x080311ac    0x48  Data  Gb  LS-font24_.o [1]
acGUI_FontLSfont24__590D
                        0x080311f4    0x48  Data  Gb  LS-font24_.o [1]
acGUI_FontLSfont24__5916
                        0x0803123c    0x48  Data  Gb  LS-font24_.o [1]
acGUI_FontLSfont24__5927
                        0x08031284    0x48  Data  Gb  LS-font24_.o [1]
acGUI_FontLSfont24__592E
                        0x080312cc    0x44  Data  Gb  LS-font24_.o [1]
acGUI_FontLSfont24__5931
                        0x08031310    0x48  Data  Gb  LS-font24_.o [1]
acGUI_FontLSfont24__5934
                        0x08031358    0x44  Data  Gb  LS-font24_.o [1]
acGUI_FontLSfont24__597D
                        0x0803139c    0x48  Data  Gb  LS-font24_.o [1]
acGUI_FontLSfont24__59CB
                        0x080313e4    0x44  Data  Gb  LS-font24_.o [1]
acGUI_FontLSfont24__5B50
                        0x08031428    0x48  Data  Gb  LS-font24_.o [1]
acGUI_FontLSfont24__5B57
                        0x08031470    0x48  Data  Gb  LS-font24_.o [1]
acGUI_FontLSfont24__5B58
                        0x080314b8    0x48  Data  Gb  LS-font24_.o [1]
acGUI_FontLSfont24__5B85
                        0x08031500    0x48  Data  Gb  LS-font24_.o [1]
acGUI_FontLSfont24__5B89
                        0x08031548    0x48  Data  Gb  LS-font24_.o [1]
acGUI_FontLSfont24__5B8C
                        0x08031590    0x48  Data  Gb  LS-font24_.o [1]
acGUI_FontLSfont24__5B9A
                        0x080315d8    0x48  Data  Gb  LS-font24_.o [1]
acGUI_FontLSfont24__5B9E
                        0x08031620    0x48  Data  Gb  LS-font24_.o [1]
acGUI_FontLSfont24__5BC4
                        0x08031668    0x48  Data  Gb  LS-font24_.o [1]
acGUI_FontLSfont24__5BC6
                        0x080316b0    0x48  Data  Gb  LS-font24_.o [1]
acGUI_FontLSfont24__5BFF
                        0x080316f8    0x48  Data  Gb  LS-font24_.o [1]
acGUI_FontLSfont24__5C04
                        0x08031740    0x48  Data  Gb  LS-font24_.o [1]
acGUI_FontLSfont24__5C0F
                        0x08031788    0x40  Data  Gb  LS-font24_.o [1]
acGUI_FontLSfont24__5C40
                        0x080317c8    0x44  Data  Gb  LS-font24_.o [1]
acGUI_FontLSfont24__5C4F
                        0x0803180c    0x48  Data  Gb  LS-font24_.o [1]
acGUI_FontLSfont24__5DE5
                        0x08031854    0x3c  Data  Gb  LS-font24_.o [1]
acGUI_FontLSfont24__5E27
                        0x08031890    0x44  Data  Gb  LS-font24_.o [1]
acGUI_FontLSfont24__5E38
                        0x080318d4    0x48  Data  Gb  LS-font24_.o [1]
acGUI_FontLSfont24__5E45
                        0x0803191c    0x48  Data  Gb  LS-font24_.o [1]
acGUI_FontLSfont24__5E55
                        0x08031964    0x48  Data  Gb  LS-font24_.o [1]
acGUI_FontLSfont24__5E73
                        0x080319ac    0x48  Data  Gb  LS-font24_.o [1]
acGUI_FontLSfont24__5E74
                        0x080319f4    0x48  Data  Gb  LS-font24_.o [1]
acGUI_FontLSfont24__5E76
                        0x08031a3c    0x48  Data  Gb  LS-font24_.o [1]
acGUI_FontLSfont24__5E8F
                        0x08031a84    0x48  Data  Gb  LS-font24_.o [1]
acGUI_FontLSfont24__5E94
                        0x08031acc    0x48  Data  Gb  LS-font24_.o [1]
acGUI_FontLSfont24__5EA6
                        0x08031b14    0x48  Data  Gb  LS-font24_.o [1]
acGUI_FontLSfont24__5EF6
                        0x08031b5c    0x44  Data  Gb  LS-font24_.o [1]
acGUI_FontLSfont24__5F00
                        0x08031ba0    0x40  Data  Gb  LS-font24_.o [1]
acGUI_FontLSfont24__5F02
                        0x08031be0    0x48  Data  Gb  LS-font24_.o [1]
acGUI_FontLSfont24__5F0F
                        0x08031c28    0x48  Data  Gb  LS-font24_.o [1]
acGUI_FontLSfont24__5F55
                        0x08031c70    0x6c  Data  Gb  LS-font24_.o [1]
acGUI_FontLSfont24__5F62
                        0x08031cdc    0x48  Data  Gb  LS-font24_.o [1]
acGUI_FontLSfont24__5F85
                        0x08031d24    0x48  Data  Gb  LS-font24_.o [1]
acGUI_FontLSfont24__6001
                        0x08031d6c    0x44  Data  Gb  LS-font24_.o [1]
acGUI_FontLSfont24__6027
                        0x08031db0    0x48  Data  Gb  LS-font24_.o [1]
acGUI_FontLSfont24__606F
                        0x08031df8    0x48  Data  Gb  LS-font24_.o [1]
acGUI_FontLSfont24__60F3
                        0x08031e40    0x48  Data  Gb  LS-font24_.o [1]
acGUI_FontLSfont24__610F
                        0x08031e88    0x48  Data  Gb  LS-font24_.o [1]
acGUI_FontLSfont24__6210
                        0x08031ed0    0x48  Data  Gb  LS-font24_.o [1]
acGUI_FontLSfont24__6211
                        0x08031f18    0x48  Data  Gb  LS-font24_.o [1]
acGUI_FontLSfont24__6216
                        0x08031f60    0x48  Data  Gb  LS-font24_.o [1]
acGUI_FontLSfont24__6237
                        0x08031fa8    0x44  Data  Gb  LS-font24_.o [1]
acGUI_FontLSfont24__6240
                        0x08031fec    0x44  Data  Gb  LS-font24_.o [1]
acGUI_FontLSfont24__624B
                        0x08032030    0x48  Data  Gb  LS-font24_.o [1]
acGUI_FontLSfont24__6253
                        0x08032078    0x44  Data  Gb  LS-font24_.o [1]
acGUI_FontLSfont24__6263
                        0x080320bc    0x44  Data  Gb  LS-font24_.o [1]
acGUI_FontLSfont24__62A4
                        0x08032100    0x40  Data  Gb  LS-font24_.o [1]
acGUI_FontLSfont24__62A5
                        0x08032140    0x48  Data  Gb  LS-font24_.o [1]
acGUI_FontLSfont24__62BD
                        0x08032188    0x44  Data  Gb  LS-font24_.o [1]
acGUI_FontLSfont24__62DF
                        0x080321cc    0x48  Data  Gb  LS-font24_.o [1]
acGUI_FontLSfont24__62E9
                        0x08032214    0x48  Data  Gb  LS-font24_.o [1]
acGUI_FontLSfont24__6301
                        0x0803225c    0x48  Data  Gb  LS-font24_.o [1]
acGUI_FontLSfont24__6309
                        0x080322a4    0x48  Data  Gb  LS-font24_.o [1]
acGUI_FontLSfont24__632F
                        0x080322ec    0x48  Data  Gb  LS-font24_.o [1]
acGUI_FontLSfont24__635F
                        0x08032334    0x48  Data  Gb  LS-font24_.o [1]
acGUI_FontLSfont24__6362
                        0x0803237c    0x48  Data  Gb  LS-font24_.o [1]
acGUI_FontLSfont24__636E
                        0x080323c4    0x48  Data  Gb  LS-font24_.o [1]
acGUI_FontLSfont24__6389
                        0x0803240c    0x48  Data  Gb  LS-font24_.o [1]
acGUI_FontLSfont24__63A5
                        0x08032454    0x48  Data  Gb  LS-font24_.o [1]
acGUI_FontLSfont24__63A7
                        0x0803249c    0x48  Data  Gb  LS-font24_.o [1]
acGUI_FontLSfont24__63A8
                        0x080324e4    0x48  Data  Gb  LS-font24_.o [1]
acGUI_FontLSfont24__63CF
                        0x0803252c    0x48  Data  Gb  LS-font24_.o [1]
acGUI_FontLSfont24__63D2
                        0x08032574    0x48  Data  Gb  LS-font24_.o [1]
acGUI_FontLSfont24__64CD
                        0x080325bc    0x48  Data  Gb  LS-font24_.o [1]
acGUI_FontLSfont24__6536
                        0x08032604    0x44  Data  Gb  LS-font24_.o [1]
acGUI_FontLSfont24__6539
                        0x08032648    0x44  Data  Gb  LS-font24_.o [1]
acGUI_FontLSfont24__6545
                        0x0803268c    0x48  Data  Gb  LS-font24_.o [1]
acGUI_FontLSfont24__6570
                        0x080326d4    0x48  Data  Gb  LS-font24_.o [1]
acGUI_FontLSfont24__6587
                        0x0803271c    0x44  Data  Gb  LS-font24_.o [1]
acGUI_FontLSfont24__65AD
                        0x08032760    0x48  Data  Gb  LS-font24_.o [1]
acGUI_FontLSfont24__65AF
                        0x080327a8    0x48  Data  Gb  LS-font24_.o [1]
acGUI_FontLSfont24__65B0
                        0x080327f0    0x48  Data  Gb  LS-font24_.o [1]
acGUI_FontLSfont24__65B9
                        0x08032838    0x48  Data  Gb  LS-font24_.o [1]
acGUI_FontLSfont24__65C5
                        0x08032880    0x48  Data  Gb  LS-font24_.o [1]
acGUI_FontLSfont24__65CB
                        0x080328c8    0x48  Data  Gb  LS-font24_.o [1]
acGUI_FontLSfont24__65E0
                        0x08032910    0x40  Data  Gb  LS-font24_.o [1]
acGUI_FontLSfont24__65E5
                        0x08032950    0x48  Data  Gb  LS-font24_.o [1]
acGUI_FontLSfont24__65E7
                        0x08032998    0x3c  Data  Gb  LS-font24_.o [1]
acGUI_FontLSfont24__65F6
                        0x080329d4    0x44  Data  Gb  LS-font24_.o [1]
acGUI_FontLSfont24__660E
                        0x08032a18    0x44  Data  Gb  LS-font24_.o [1]
acGUI_FontLSfont24__6620
                        0x08032a5c    0x48  Data  Gb  LS-font24_.o [1]
acGUI_FontLSfont24__662F
                        0x08032aa4    0x48  Data  Gb  LS-font24_.o [1]
acGUI_FontLSfont24__663E
                        0x08032aec    0x40  Data  Gb  LS-font24_.o [1]
acGUI_FontLSfont24__6670
                        0x08032b2c    0x48  Data  Gb  LS-font24_.o [1]
acGUI_FontLSfont24__66F4
                        0x08032b74    0x44  Data  Gb  LS-font24_.o [1]
acGUI_FontLSfont24__6700
                        0x08032bb8    0x48  Data  Gb  LS-font24_.o [1]
acGUI_FontLSfont24__6708
                        0x08032c00    0x48  Data  Gb  LS-font24_.o [1]
acGUI_FontLSfont24__6709
                        0x08032c48    0x48  Data  Gb  LS-font24_.o [1]
acGUI_FontLSfont24__671F
                        0x08032c90    0x48  Data  Gb  LS-font24_.o [1]
acGUI_FontLSfont24__672A
                        0x08032cd8    0x48  Data  Gb  LS-font24_.o [1]
acGUI_FontLSfont24__672C
                        0x08032d20    0x48  Data  Gb  LS-font24_.o [1]
acGUI_FontLSfont24__673A
                        0x08032d68    0x48  Data  Gb  LS-font24_.o [1]
acGUI_FontLSfont24__677F
                        0x08032db0    0x48  Data  Gb  LS-font24_.o [1]
acGUI_FontLSfont24__6781
                        0x08032df8    0x44  Data  Gb  LS-font24_.o [1]
acGUI_FontLSfont24__679C
                        0x08032e3c    0x48  Data  Gb  LS-font24_.o [1]
acGUI_FontLSfont24__67B6
                        0x08032e84    0x48  Data  Gb  LS-font24_.o [1]
acGUI_FontLSfont24__67E5
                        0x08032ecc    0x48  Data  Gb  LS-font24_.o [1]
acGUI_FontLSfont24__6821
                        0x08032f14    0x48  Data  Gb  LS-font24_.o [1]
acGUI_FontLSfont24__6846
                        0x08032f5c    0x48  Data  Gb  LS-font24_.o [1]
acGUI_FontLSfont24__68B0
                        0x08032fa4    0x48  Data  Gb  LS-font24_.o [1]
acGUI_FontLSfont24__68C0
                        0x08032fec    0x48  Data  Gb  LS-font24_.o [1]
acGUI_FontLSfont24__695A
                        0x08033034    0x48  Data  Gb  LS-font24_.o [1]
acGUI_FontLSfont24__6982
                        0x0803307c    0x48  Data  Gb  LS-font24_.o [1]
acGUI_FontLSfont24__6A21
                        0x080330c4    0x48  Data  Gb  LS-font24_.o [1]
acGUI_FontLSfont24__6B20
                        0x0803310c    0x48  Data  Gb  LS-font24_.o [1]
acGUI_FontLSfont24__6B21
                        0x08033154    0x48  Data  Gb  LS-font24_.o [1]
acGUI_FontLSfont24__6B63
                        0x0803319c    0x3c  Data  Gb  LS-font24_.o [1]
acGUI_FontLSfont24__6B65
                        0x080331d8    0x48  Data  Gb  LS-font24_.o [1]
acGUI_FontLSfont24__6BB5
                        0x08033220    0x44  Data  Gb  LS-font24_.o [1]
acGUI_FontLSfont24__6C14
                        0x08033264    0x48  Data  Gb  LS-font24_.o [1]
acGUI_FontLSfont24__6C42
                        0x080332ac    0x48  Data  Gb  LS-font24_.o [1]
acGUI_FontLSfont24__6C49
                        0x080332f4    0x44  Data  Gb  LS-font24_.o [1]
acGUI_FontLSfont24__6C60
                        0x08033338    0x48  Data  Gb  LS-font24_.o [1]
acGUI_FontLSfont24__6C9F
                        0x08033380    0x48  Data  Gb  LS-font24_.o [1]
acGUI_FontLSfont24__6CA1
                        0x080333c8    0x48  Data  Gb  LS-font24_.o [1]
acGUI_FontLSfont24__6CD5
                        0x08033410    0x48  Data  Gb  LS-font24_.o [1]
acGUI_FontLSfont24__6CE2
                        0x08033458    0x48  Data  Gb  LS-font24_.o [1]
acGUI_FontLSfont24__6D41
                        0x080334a0    0x48  Data  Gb  LS-font24_.o [1]
acGUI_FontLSfont24__6D4B
                        0x080334e8    0x48  Data  Gb  LS-font24_.o [1]
acGUI_FontLSfont24__6D88
                        0x08033530    0x48  Data  Gb  LS-font24_.o [1]
acGUI_FontLSfont24__6E05
                        0x08033578    0x48  Data  Gb  LS-font24_.o [1]
acGUI_FontLSfont24__6E29
                        0x080335c0    0x44  Data  Gb  LS-font24_.o [1]
acGUI_FontLSfont24__6E90
                        0x08033604    0x44  Data  Gb  LS-font24_.o [1]
acGUI_FontLSfont24__6EDA
                        0x08033648    0x48  Data  Gb  LS-font24_.o [1]
acGUI_FontLSfont24__6FC0
                        0x08033690    0x48  Data  Gb  LS-font24_.o [1]
acGUI_FontLSfont24__70B9
                        0x080336d8    0x48  Data  Gb  LS-font24_.o [1]
acGUI_FontLSfont24__70ED
                        0x08033720    0x48  Data  Gb  LS-font24_.o [1]
acGUI_FontLSfont24__7248
                        0x08033768    0x44  Data  Gb  LS-font24_.o [1]
acGUI_FontLSfont24__7279
                        0x080337ac    0x48  Data  Gb  LS-font24_.o [1]
acGUI_FontLSfont24__72B6
                        0x080337f4    0x48  Data  Gb  LS-font24_.o [1]
acGUI_FontLSfont24__7387
                        0x0803383c    0x48  Data  Gb  LS-font24_.o [1]
acGUI_FontLSfont24__73AF
                        0x08033884    0x44  Data  Gb  LS-font24_.o [1]
acGUI_FontLSfont24__73B0
                        0x080338c8    0x44  Data  Gb  LS-font24_.o [1]
acGUI_FontLSfont24__7406
                        0x0803390c    0x3c  Data  Gb  LS-font24_.o [1]
acGUI_FontLSfont24__74E6
                        0x08033948    0x40  Data  Gb  LS-font24_.o [1]
acGUI_FontLSfont24__751F
                        0x08033988    0x40  Data  Gb  LS-font24_.o [1]
acGUI_FontLSfont24__7528
                        0x080339c8    0x44  Data  Gb  LS-font24_.o [1]
acGUI_FontLSfont24__7535
                        0x08033a0c    0x44  Data  Gb  LS-font24_.o [1]
acGUI_FontLSfont24__767B
                        0x08033a50    0x48  Data  Gb  LS-font24_.o [1]
acGUI_FontLSfont24__7684
                        0x08033a98    0x48  Data  Gb  LS-font24_.o [1]
acGUI_FontLSfont24__76EE
                        0x08033ae0    0x48  Data  Gb  LS-font24_.o [1]
acGUI_FontLSfont24__76F8
                        0x08033b28    0x48  Data  Gb  LS-font24_.o [1]
acGUI_FontLSfont24__77AC
                        0x08033b70    0x44  Data  Gb  LS-font24_.o [1]
acGUI_FontLSfont24__77E2
                        0x08033bb4    0x48  Data  Gb  LS-font24_.o [1]
acGUI_FontLSfont24__77ED
                        0x08033bfc    0x48  Data  Gb  LS-font24_.o [1]
acGUI_FontLSfont24__7801
                        0x08033c44    0x40  Data  Gb  LS-font24_.o [1]
acGUI_FontLSfont24__7834
                        0x08033c84    0x48  Data  Gb  LS-font24_.o [1]
acGUI_FontLSfont24__786C
                        0x08033ccc    0x48  Data  Gb  LS-font24_.o [1]
acGUI_FontLSfont24__786E
                        0x08033d14    0x48  Data  Gb  LS-font24_.o [1]
acGUI_FontLSfont24__78C1
                        0x08033d5c    0x48  Data  Gb  LS-font24_.o [1]
acGUI_FontLSfont24__78E8
                        0x08033da4    0x48  Data  Gb  LS-font24_.o [1]
acGUI_FontLSfont24__793A
                        0x08033dec    0x44  Data  Gb  LS-font24_.o [1]
acGUI_FontLSfont24__79D2
                        0x08033e30    0x48  Data  Gb  LS-font24_.o [1]
acGUI_FontLSfont24__79F0
                        0x08033e78    0x48  Data  Gb  LS-font24_.o [1]
acGUI_FontLSfont24__7A0B
                        0x08033ec0    0x48  Data  Gb  LS-font24_.o [1]
acGUI_FontLSfont24__7A81
                        0x08033f08    0x48  Data  Gb  LS-font24_.o [1]
acGUI_FontLSfont24__7B49
                        0x08033f50    0x48  Data  Gb  LS-font24_.o [1]
acGUI_FontLSfont24__7C7B
                        0x08033f98    0x48  Data  Gb  LS-font24_.o [1]
acGUI_FontLSfont24__7CFB
                        0x08033fe0    0x48  Data  Gb  LS-font24_.o [1]
acGUI_FontLSfont24__7D20
                        0x08034028    0x48  Data  Gb  LS-font24_.o [1]
acGUI_FontLSfont24__7EBF
                        0x08034070    0x44  Data  Gb  LS-font24_.o [1]
acGUI_FontLSfont24__7EC4
                        0x080340b4    0x40  Data  Gb  LS-font24_.o [1]
acGUI_FontLSfont24__7ECA
                        0x080340f4    0x44  Data  Gb  LS-font24_.o [1]
acGUI_FontLSfont24__7ED3
                        0x08034138    0x44  Data  Gb  LS-font24_.o [1]
acGUI_FontLSfont24__7EDB
                        0x0803417c    0x44  Data  Gb  LS-font24_.o [1]
acGUI_FontLSfont24__7EDC
                        0x080341c0    0x48  Data  Gb  LS-font24_.o [1]
acGUI_FontLSfont24__7EDF
                        0x08034208    0x48  Data  Gb  LS-font24_.o [1]
acGUI_FontLSfont24__7EE7
                        0x08034250    0x44  Data  Gb  LS-font24_.o [1]
acGUI_FontLSfont24__7EED
                        0x08034294    0x44  Data  Gb  LS-font24_.o [1]
acGUI_FontLSfont24__7F13
                        0x080342d8    0x44  Data  Gb  LS-font24_.o [1]
acGUI_FontLSfont24__7F3A
                        0x0803431c    0x48  Data  Gb  LS-font24_.o [1]
acGUI_FontLSfont24__7F51
                        0x08034364    0x44  Data  Gb  LS-font24_.o [1]
acGUI_FontLSfont24__7F57
                        0x080343a8    0x48  Data  Gb  LS-font24_.o [1]
acGUI_FontLSfont24__7F6E
                        0x080343f0    0x48  Data  Gb  LS-font24_.o [1]
acGUI_FontLSfont24__7FFB
                        0x08034438    0x48  Data  Gb  LS-font24_.o [1]
acGUI_FontLSfont24__8003
                        0x08034480    0x48  Data  Gb  LS-font24_.o [1]
acGUI_FontLSfont24__8054
                        0x080344c8    0x48  Data  Gb  LS-font24_.o [1]
acGUI_FontLSfont24__806A
                        0x08034510    0x48  Data  Gb  LS-font24_.o [1]
acGUI_FontLSfont24__80FD
                        0x08034558    0x48  Data  Gb  LS-font24_.o [1]
acGUI_FontLSfont24__8109
                        0x080345a0    0x48  Data  Gb  LS-font24_.o [1]
acGUI_FontLSfont24__8131
                        0x080345e8    0x48  Data  Gb  LS-font24_.o [1]
acGUI_FontLSfont24__81EA
                        0x08034630    0x48  Data  Gb  LS-font24_.o [1]
acGUI_FontLSfont24__81F4
                        0x08034678    0x44  Data  Gb  LS-font24_.o [1]
acGUI_FontLSfont24__82E5
                        0x080346bc    0x48  Data  Gb  LS-font24_.o [1]
acGUI_FontLSfont24__82F1
                        0x08034704    0x48  Data  Gb  LS-font24_.o [1]
acGUI_FontLSfont24__8303
                        0x0803474c    0x48  Data  Gb  LS-font24_.o [1]
acGUI_FontLSfont24__8377
                        0x08034794    0x48  Data  Gb  LS-font24_.o [1]
acGUI_FontLSfont24__83DC
                        0x080347dc    0x48  Data  Gb  LS-font24_.o [1]
acGUI_FontLSfont24__8425
                        0x08034824    0x48  Data  Gb  LS-font24_.o [1]
acGUI_FontLSfont24__884C
                        0x0803486c    0x48  Data  Gb  LS-font24_.o [1]
acGUI_FontLSfont24__8861
                        0x080348b4    0x48  Data  Gb  LS-font24_.o [1]
acGUI_FontLSfont24__8870
                        0x080348fc    0x48  Data  Gb  LS-font24_.o [1]
acGUI_FontLSfont24__88C5
                        0x08034944    0x48  Data  Gb  LS-font24_.o [1]
acGUI_FontLSfont24__8981
                        0x0803498c    0x48  Data  Gb  LS-font24_.o [1]
acGUI_FontLSfont24__89C8
                        0x080349d4    0x48  Data  Gb  LS-font24_.o [1]
acGUI_FontLSfont24__89D2
                        0x08034a1c    0x48  Data  Gb  LS-font24_.o [1]
acGUI_FontLSfont24__89E6
                        0x08034a64    0x48  Data  Gb  LS-font24_.o [1]
acGUI_FontLSfont24__8A00
                        0x08034aac    0x48  Data  Gb  LS-font24_.o [1]
acGUI_FontLSfont24__8B66
                        0x08034af4    0x48  Data  Gb  LS-font24_.o [1]
acGUI_FontLSfont24__8BA1
                        0x08034b3c    0x48  Data  Gb  LS-font24_.o [1]
acGUI_FontLSfont24__8BA4
                        0x08034b84    0x48  Data  Gb  LS-font24_.o [1]
acGUI_FontLSfont24__8BAF
                        0x08034bcc    0x44  Data  Gb  LS-font24_.o [1]
acGUI_FontLSfont24__8BB2
                        0x08034c10    0x48  Data  Gb  LS-font24_.o [1]
acGUI_FontLSfont24__8BBE
                        0x08034c58    0x44  Data  Gb  LS-font24_.o [1]
acGUI_FontLSfont24__8BCA
                        0x08034c9c    0x44  Data  Gb  LS-font24_.o [1]
acGUI_FontLSfont24__8BD5
                        0x08034ce0    0x48  Data  Gb  LS-font24_.o [1]
acGUI_FontLSfont24__8BE2
                        0x08034d28    0x48  Data  Gb  LS-font24_.o [1]
acGUI_FontLSfont24__8BED
                        0x08034d70    0x44  Data  Gb  LS-font24_.o [1]
acGUI_FontLSfont24__8BEF
                        0x08034db4    0x44  Data  Gb  LS-font24_.o [1]
acGUI_FontLSfont24__8BF7
                        0x08034df8    0x48  Data  Gb  LS-font24_.o [1]
acGUI_FontLSfont24__8BFB
                        0x08034e40    0x48  Data  Gb  LS-font24_.o [1]
acGUI_FontLSfont24__8C10
                        0x08034e88    0x44  Data  Gb  LS-font24_.o [1]
acGUI_FontLSfont24__8D1F
                        0x08034ecc    0x48  Data  Gb  LS-font24_.o [1]
acGUI_FontLSfont24__8D25
                        0x08034f14    0x48  Data  Gb  LS-font24_.o [1]
acGUI_FontLSfont24__8D28
                        0x08034f5c    0x48  Data  Gb  LS-font24_.o [1]
acGUI_FontLSfont24__8D85
                        0x08034fa4    0x48  Data  Gb  LS-font24_.o [1]
acGUI_FontLSfont24__8D8A
                        0x08034fec    0x44  Data  Gb  LS-font24_.o [1]
acGUI_FontLSfont24__8DEF
                        0x08035030    0x48  Data  Gb  LS-font24_.o [1]
acGUI_FontLSfont24__8DF3
                        0x08035078    0x48  Data  Gb  LS-font24_.o [1]
acGUI_FontLSfont24__8F6C
                        0x080350c0    0x48  Data  Gb  LS-font24_.o [1]
acGUI_FontLSfont24__8F6F
                        0x08035108    0x48  Data  Gb  LS-font24_.o [1]
acGUI_FontLSfont24__8F7D
                        0x08035150    0x48  Data  Gb  LS-font24_.o [1]
acGUI_FontLSfont24__8F93
                        0x08035198    0x48  Data  Gb  LS-font24_.o [1]
acGUI_FontLSfont24__8FC7
                        0x080351e0    0x44  Data  Gb  LS-font24_.o [1]
acGUI_FontLSfont24__8FD0
                        0x08035224    0x40  Data  Gb  LS-font24_.o [1]
acGUI_FontLSfont24__8FD4
                        0x08035264    0x44  Data  Gb  LS-font24_.o [1]
acGUI_FontLSfont24__8FDB
                        0x080352a8    0x44  Data  Gb  LS-font24_.o [1]
acGUI_FontLSfont24__8FDC
                        0x080352ec    0x44  Data  Gb  LS-font24_.o [1]
acGUI_FontLSfont24__8FDE
                        0x08035330    0x48  Data  Gb  LS-font24_.o [1]
acGUI_FontLSfont24__8FF0
                        0x08035378    0x48  Data  Gb  LS-font24_.o [1]
acGUI_FontLSfont24__9000
                        0x080353c0    0x48  Data  Gb  LS-font24_.o [1]
acGUI_FontLSfont24__9001
                        0x08035408    0x48  Data  Gb  LS-font24_.o [1]
acGUI_FontLSfont24__9009
                        0x08035450    0x48  Data  Gb  LS-font24_.o [1]
acGUI_FontLSfont24__901A
                        0x08035498    0x48  Data  Gb  LS-font24_.o [1]
acGUI_FontLSfont24__901F
                        0x080354e0    0x48  Data  Gb  LS-font24_.o [1]
acGUI_FontLSfont24__9020
                        0x08035528    0x48  Data  Gb  LS-font24_.o [1]
acGUI_FontLSfont24__90AE
                        0x08035570    0x48  Data  Gb  LS-font24_.o [1]
acGUI_FontLSfont24__90E8
                        0x080355b8    0x44  Data  Gb  LS-font24_.o [1]
acGUI_FontLSfont24__914D
                        0x080355fc    0x40  Data  Gb  LS-font24_.o [1]
acGUI_FontLSfont24__91CD
                        0x0803563c    0x48  Data  Gb  LS-font24_.o [1]
acGUI_FontLSfont24__91CF
                        0x08035684    0x48  Data  Gb  LS-font24_.o [1]
acGUI_FontLSfont24__949F
                        0x080356cc    0x48  Data  Gb  LS-font24_.o [1]
acGUI_FontLSfont24__94AE
                        0x08035714    0x48  Data  Gb  LS-font24_.o [1]
acGUI_FontLSfont24__9501
                        0x0803575c    0x48  Data  Gb  LS-font24_.o [1]
acGUI_FontLSfont24__9519
                        0x080357a4    0x48  Data  Gb  LS-font24_.o [1]
acGUI_FontLSfont24__952E
                        0x080357ec    0x48  Data  Gb  LS-font24_.o [1]
acGUI_FontLSfont24__957F
                        0x08035834    0x48  Data  Gb  LS-font24_.o [1]
acGUI_FontLSfont24__95ED
                        0x0803587c    0x48  Data  Gb  LS-font24_.o [1]
acGUI_FontLSfont24__95F4
                        0x080358c4    0x48  Data  Gb  LS-font24_.o [1]
acGUI_FontLSfont24__95F8
                        0x0803590c    0x48  Data  Gb  LS-font24_.o [1]
acGUI_FontLSfont24__9605
                        0x08035954    0x44  Data  Gb  LS-font24_.o [1]
acGUI_FontLSfont24__9636
                        0x08035998    0x44  Data  Gb  LS-font24_.o [1]
acGUI_FontLSfont24__9644
                        0x080359dc    0x44  Data  Gb  LS-font24_.o [1]
acGUI_FontLSfont24__9650
                        0x08035a20    0x44  Data  Gb  LS-font24_.o [1]
acGUI_FontLSfont24__9664
                        0x08035a64    0x44  Data  Gb  LS-font24_.o [1]
acGUI_FontLSfont24__969C
                        0x08035aa8    0x48  Data  Gb  LS-font24_.o [1]
acGUI_FontLSfont24__96C6
                        0x08035af0    0x48  Data  Gb  LS-font24_.o [1]
acGUI_FontLSfont24__96F6
                        0x08035b38    0x44  Data  Gb  LS-font24_.o [1]
acGUI_FontLSfont24__9700
                        0x08035b7c    0x48  Data  Gb  LS-font24_.o [1]
acGUI_FontLSfont24__9806
                        0x08035bc4    0x48  Data  Gb  LS-font24_.o [1]
acGUI_FontLSfont24__9879
                        0x08035c0c    0x40  Data  Gb  LS-font24_.o [1]
acGUI_FontLSfont24__987A
                        0x08035c4c    0x44  Data  Gb  LS-font24_.o [1]
acGUI_FontLSfont24__9884
                        0x08035c90    0x40  Data  Gb  LS-font24_.o [1]
acGUI_FontLSfont24__9886
                        0x08035cd0    0x44  Data  Gb  LS-font24_.o [1]
acGUI_FontLSfont24__9891
                        0x08035d14    0x48  Data  Gb  LS-font24_.o [1]
acGUI_FontLSfont24__989D
                        0x08035d5c    0x48  Data  Gb  LS-font24_.o [1]
acGUI_FontLSfont24__9AD8
                        0x08035da4    0x48  Data  Gb  LS-font24_.o [1]
acGUI_FontLSfont24__F901
                        0x08035dec    0x44  Data  Gb  LS-font24_.o [1]
acGUI_FontLSfont24__F92E
                        0x08035e30    0x48  Data  Gb  LS-font24_.o [1]
acGUI_FontLSfont24__F937
                        0x08035e78    0x48  Data  Gb  LS-font24_.o [1]
acGUI_FontLSfont24__F961
                        0x08035ec0    0x48  Data  Gb  LS-font24_.o [1]
acGUI_FontLSfont24__F967
                        0x08035f08    0x48  Data  Gb  LS-font24_.o [1]
acGUI_FontLSfont24__F974
                        0x08035f50    0x48  Data  Gb  LS-font24_.o [1]
acGUI_FontLSfont24__F977
                        0x08035f98    0x48  Data  Gb  LS-font24_.o [1]
acGUI_FontLSfont24__F97E
                        0x08035fe0    0x48  Data  Gb  LS-font24_.o [1]
acGUI_FontLSfont24__F983
                        0x08036028    0x48  Data  Gb  LS-font24_.o [1]
acGUI_FontLSfont24__F98E
                        0x08036070    0x48  Data  Gb  LS-font24_.o [1]
acGUI_FontLSfont24__F99C
                        0x080360b8    0x48  Data  Gb  LS-font24_.o [1]
acGUI_FontLSfont24__F9B2
                        0x08036100    0x44  Data  Gb  LS-font24_.o [1]
acGUI_FontLSfont24__F9CA
                        0x08036144    0x48  Data  Gb  LS-font24_.o [1]
acGUI_FontLSfont24__F9DB
                        0x0803618c    0x48  Data  Gb  LS-font24_.o [1]
acGUI_FontLSfont24__F9E4
                        0x080361d4    0x3c  Data  Gb  LS-font24_.o [1]
acGUI_FontLSfont24__FA01
                        0x08036210    0x48  Data  Gb  LS-font24_.o [1]
acGUI_FontLSfont24__FA04
                        0x08036258    0x48  Data  Gb  LS-font24_.o [1]
acGUI_FontLSfont24__FA08
                        0x080362a0    0x48  Data  Gb  LS-font24_.o [1]
acGUI_FontLSfont24__FA38
                        0x080362e8    0x48  Data  Gb  LS-font24_.o [1]
acGUI_FontLSfont24__FA55
                        0x08036330    0x48  Data  Gb  LS-font24_.o [1]
acGUI_FontLSfont24__FA72
                        0x08036378    0x48  Data  Gb  LS-font24_.o [1]
acGUI_FontLSfont24__FA74
                        0x080363c0    0x48  Data  Gb  LS-font24_.o [1]
acGUI_FontLSfont24__FA97
                        0x08036408    0x48  Data  Gb  LS-font24_.o [1]
acGUI_FontLSfont24__FAAE
                        0x08036450    0x48  Data  Gb  LS-font24_.o [1]
acGUI_FontLSfont_24x24_0020
                        0x0804bbc4    0x18  Data  Gb  LS-font_24x24.o [1]
acGUI_FontLSfont_24x24_0021
                        0x0804bbdc    0x14  Data  Gb  LS-font_24x24.o [1]
acGUI_FontLSfont_24x24_0022
                        0x0804bbf0     0x8  Data  Gb  LS-font_24x24.o [1]
acGUI_FontLSfont_24x24_0023
                        0x0804bbf8    0x24  Data  Gb  LS-font_24x24.o [1]
acGUI_FontLSfont_24x24_0024
                        0x0804bc1c    0x2c  Data  Gb  LS-font_24x24.o [1]
acGUI_FontLSfont_24x24_0025
                        0x0804bc48    0x3c  Data  Gb  LS-font_24x24.o [1]
acGUI_FontLSfont_24x24_0026
                        0x0804bc84    0x2c  Data  Gb  LS-font_24x24.o [1]
acGUI_FontLSfont_24x24_0027
                        0x0804bcb0     0x8  Data  Gb  LS-font_24x24.o [1]
acGUI_FontLSfont_24x24_0028
                        0x0804bcb8    0x18  Data  Gb  LS-font_24x24.o [1]
acGUI_FontLSfont_24x24_0029
                        0x0804bcd0    0x18  Data  Gb  LS-font_24x24.o [1]
acGUI_FontLSfont_24x24_002A
                        0x0804bce8     0x8  Data  Gb  LS-font_24x24.o [1]
acGUI_FontLSfont_24x24_002B
                        0x0804bcf0    0x18  Data  Gb  LS-font_24x24.o [1]
acGUI_FontLSfont_24x24_002C
                        0x0804bd08     0x8  Data  Gb  LS-font_24x24.o [1]
acGUI_FontLSfont_24x24_002D
                        0x0804bd10     0x4  Data  Gb  LS-font_24x24.o [1]
acGUI_FontLSfont_24x24_002E
                        0x0804bd14     0x4  Data  Gb  LS-font_24x24.o [1]
acGUI_FontLSfont_24x24_002F
                        0x0804bd18    0x18  Data  Gb  LS-font_24x24.o [1]
acGUI_FontLSfont_24x24_0030
                        0x0804bd30    0x28  Data  Gb  LS-font_24x24.o [1]
acGUI_FontLSfont_24x24_0031
                        0x0804bd58    0x14  Data  Gb  LS-font_24x24.o [1]
acGUI_FontLSfont_24x24_0032
                        0x0804bd6c    0x28  Data  Gb  LS-font_24x24.o [1]
acGUI_FontLSfont_24x24_0033
                        0x0804bd94    0x28  Data  Gb  LS-font_24x24.o [1]
acGUI_FontLSfont_24x24_0034
                        0x0804bdbc    0x28  Data  Gb  LS-font_24x24.o [1]
acGUI_FontLSfont_24x24_0035
                        0x0804bde4    0x28  Data  Gb  LS-font_24x24.o [1]
acGUI_FontLSfont_24x24_0036
                        0x0804be0c    0x28  Data  Gb  LS-font_24x24.o [1]
acGUI_FontLSfont_24x24_0037
                        0x0804be34    0x28  Data  Gb  LS-font_24x24.o [1]
acGUI_FontLSfont_24x24_0038
                        0x0804be5c    0x28  Data  Gb  LS-font_24x24.o [1]
acGUI_FontLSfont_24x24_0039
                        0x0804be84    0x28  Data  Gb  LS-font_24x24.o [1]
acGUI_FontLSfont_24x24_003A
                        0x0804beac     0xc  Data  Gb  LS-font_24x24.o [1]
acGUI_FontLSfont_24x24_003B
                        0x0804beb8    0x10  Data  Gb  LS-font_24x24.o [1]
acGUI_FontLSfont_24x24_003C
                        0x0804bec8    0x24  Data  Gb  LS-font_24x24.o [1]
acGUI_FontLSfont_24x24_003D
                        0x0804beec    0x10  Data  Gb  LS-font_24x24.o [1]
acGUI_FontLSfont_24x24_003E
                        0x0804befc    0x24  Data  Gb  LS-font_24x24.o [1]
acGUI_FontLSfont_24x24_003F
                        0x0804bf20    0x28  Data  Gb  LS-font_24x24.o [1]
acGUI_FontLSfont_24x24_0040
                        0x0804bf48    0x3c  Data  Gb  LS-font_24x24.o [1]
acGUI_FontLSfont_24x24_0041
                        0x0804bf84    0x28  Data  Gb  LS-font_24x24.o [1]
acGUI_FontLSfont_24x24_0042
                        0x0804bfac    0x28  Data  Gb  LS-font_24x24.o [1]
acGUI_FontLSfont_24x24_0043
                        0x0804bfd4    0x28  Data  Gb  LS-font_24x24.o [1]
acGUI_FontLSfont_24x24_0044
                        0x0804bffc    0x28  Data  Gb  LS-font_24x24.o [1]
acGUI_FontLSfont_24x24_0045
                        0x0804c024    0x28  Data  Gb  LS-font_24x24.o [1]
acGUI_FontLSfont_24x24_0046
                        0x0804c04c    0x28  Data  Gb  LS-font_24x24.o [1]
acGUI_FontLSfont_24x24_0047
                        0x0804c074    0x28  Data  Gb  LS-font_24x24.o [1]
acGUI_FontLSfont_24x24_0048
                        0x0804c09c    0x28  Data  Gb  LS-font_24x24.o [1]
acGUI_FontLSfont_24x24_0049
                        0x0804c0c4    0x14  Data  Gb  LS-font_24x24.o [1]
acGUI_FontLSfont_24x24_004A
                        0x0804c0d8    0x14  Data  Gb  LS-font_24x24.o [1]
acGUI_FontLSfont_24x24_004B
                        0x0804c0ec    0x28  Data  Gb  LS-font_24x24.o [1]
acGUI_FontLSfont_24x24_004C
                        0x0804c114    0x28  Data  Gb  LS-font_24x24.o [1]
acGUI_FontLSfont_24x24_004D
                        0x0804c13c    0x28  Data  Gb  LS-font_24x24.o [1]
acGUI_FontLSfont_24x24_004E
                        0x0804c164    0x28  Data  Gb  LS-font_24x24.o [1]
acGUI_FontLSfont_24x24_004F
                        0x0804c18c    0x28  Data  Gb  LS-font_24x24.o [1]
acGUI_FontLSfont_24x24_0050
                        0x0804c1b4    0x28  Data  Gb  LS-font_24x24.o [1]
acGUI_FontLSfont_24x24_0051
                        0x0804c1dc    0x28  Data  Gb  LS-font_24x24.o [1]
acGUI_FontLSfont_24x24_0052
                        0x0804c204    0x28  Data  Gb  LS-font_24x24.o [1]
acGUI_FontLSfont_24x24_0053
                        0x0804c22c    0x28  Data  Gb  LS-font_24x24.o [1]
acGUI_FontLSfont_24x24_0054
                        0x0804c254    0x28  Data  Gb  LS-font_24x24.o [1]
acGUI_FontLSfont_24x24_0055
                        0x0804c27c    0x28  Data  Gb  LS-font_24x24.o [1]
acGUI_FontLSfont_24x24_0056
                        0x0804c2a4    0x28  Data  Gb  LS-font_24x24.o [1]
acGUI_FontLSfont_24x24_0057
                        0x0804c2cc    0x3c  Data  Gb  LS-font_24x24.o [1]
acGUI_FontLSfont_24x24_0058
                        0x0804c308    0x28  Data  Gb  LS-font_24x24.o [1]
acGUI_FontLSfont_24x24_0059
                        0x0804c330    0x28  Data  Gb  LS-font_24x24.o [1]
acGUI_FontLSfont_24x24_005A
                        0x0804c358    0x28  Data  Gb  LS-font_24x24.o [1]
acGUI_FontLSfont_24x24_005B
                        0x0804c380    0x18  Data  Gb  LS-font_24x24.o [1]
acGUI_FontLSfont_24x24_005C
                        0x0804c398    0x28  Data  Gb  LS-font_24x24.o [1]
acGUI_FontLSfont_24x24_005D
                        0x0804c3c0    0x18  Data  Gb  LS-font_24x24.o [1]
acGUI_FontLSfont_24x24_005E
                        0x0804c3d8     0xc  Data  Gb  LS-font_24x24.o [1]
acGUI_FontLSfont_24x24_005F
                        0x0804c3e4     0x4  Data  Gb  LS-font_24x24.o [1]
acGUI_FontLSfont_24x24_0060
                        0x0804c3e8     0x4  Data  Gb  LS-font_24x24.o [1]
acGUI_FontLSfont_24x24_0061
                        0x0804c3ec    0x1c  Data  Gb  LS-font_24x24.o [1]
acGUI_FontLSfont_24x24_0062
                        0x0804c408    0x28  Data  Gb  LS-font_24x24.o [1]
acGUI_FontLSfont_24x24_0063
                        0x0804c430    0x1c  Data  Gb  LS-font_24x24.o [1]
acGUI_FontLSfont_24x24_0064
                        0x0804c44c    0x28  Data  Gb  LS-font_24x24.o [1]
acGUI_FontLSfont_24x24_0065
                        0x0804c474    0x1c  Data  Gb  LS-font_24x24.o [1]
acGUI_FontLSfont_24x24_0066
                        0x0804c490    0x14  Data  Gb  LS-font_24x24.o [1]
acGUI_FontLSfont_24x24_0067
                        0x0804c4a4    0x20  Data  Gb  LS-font_24x24.o [1]
acGUI_FontLSfont_24x24_0068
                        0x0804c4c4    0x28  Data  Gb  LS-font_24x24.o [1]
acGUI_FontLSfont_24x24_0069
                        0x0804c4ec    0x14  Data  Gb  LS-font_24x24.o [1]
acGUI_FontLSfont_24x24_006A
                        0x0804c500    0x18  Data  Gb  LS-font_24x24.o [1]
acGUI_FontLSfont_24x24_006B
                        0x0804c518    0x28  Data  Gb  LS-font_24x24.o [1]
acGUI_FontLSfont_24x24_006C
                        0x0804c540    0x14  Data  Gb  LS-font_24x24.o [1]
acGUI_FontLSfont_24x24_006D
                        0x0804c554    0x1c  Data  Gb  LS-font_24x24.o [1]
acGUI_FontLSfont_24x24_006E
                        0x0804c570    0x1c  Data  Gb  LS-font_24x24.o [1]
acGUI_FontLSfont_24x24_006F
                        0x0804c58c    0x1c  Data  Gb  LS-font_24x24.o [1]
acGUI_FontLSfont_24x24_0070
                        0x0804c5a8    0x24  Data  Gb  LS-font_24x24.o [1]
acGUI_FontLSfont_24x24_0071
                        0x0804c5cc    0x24  Data  Gb  LS-font_24x24.o [1]
acGUI_FontLSfont_24x24_0072
                        0x0804c5f0    0x10  Data  Gb  LS-font_24x24.o [1]
acGUI_FontLSfont_24x24_0073
                        0x0804c600    0x1c  Data  Gb  LS-font_24x24.o [1]
acGUI_FontLSfont_24x24_0074
                        0x0804c61c    0x14  Data  Gb  LS-font_24x24.o [1]
acGUI_FontLSfont_24x24_0075
                        0x0804c630    0x1c  Data  Gb  LS-font_24x24.o [1]
acGUI_FontLSfont_24x24_0076
                        0x0804c64c    0x1c  Data  Gb  LS-font_24x24.o [1]
acGUI_FontLSfont_24x24_0077
                        0x0804c668    0x2c  Data  Gb  LS-font_24x24.o [1]
acGUI_FontLSfont_24x24_0078
                        0x0804c694    0x1c  Data  Gb  LS-font_24x24.o [1]
acGUI_FontLSfont_24x24_0079
                        0x0804c6b0    0x20  Data  Gb  LS-font_24x24.o [1]
acGUI_FontLSfont_24x24_007A
                        0x0804c6d0    0x1c  Data  Gb  LS-font_24x24.o [1]
acGUI_FontLSfont_24x24_007B
                        0x0804c6ec    0x18  Data  Gb  LS-font_24x24.o [1]
acGUI_FontLSfont_24x24_007C
                        0x0804c704    0x18  Data  Gb  LS-font_24x24.o [1]
acGUI_FontLSfont_24x24_007D
                        0x0804c71c    0x18  Data  Gb  LS-font_24x24.o [1]
acGUI_FontLSfont_24x24_007E
                        0x0804c734     0x8  Data  Gb  LS-font_24x24.o [1]
acGUI_FontLSfont_24x24_007F
                        0x0804c73c    0x28  Data  Gb  LS-font_24x24.o [1]
acGUI_FontLSfont_24x24_00B0
                        0x0804c764     0x8  Data  Gb  LS-font_24x24.o [1]
acGUI_FontLSfont_24x24_0394
                        0x0804c76c    0x24  Data  Gb  LS-font_24x24.o [1]
acGUI_FontLSfont_24x24_2103
                        0x0804c790    0x34  Data  Gb  LS-font_24x24.o [1]
acGUI_FontLSfont_24x24_2105
                        0x0804c7c4    0x48  Data  Gb  LS-font_24x24.o [1]
acGUI_FontLSfont_24x24_2109
                        0x0804c80c    0x40  Data  Gb  LS-font_24x24.o [1]
acGUI_FontLSfont_24x24_2126
                        0x0804c84c    0x24  Data  Gb  LS-font_24x24.o [1]
acGUI_FontLSfont_24x24_2160
                        0x0804c870    0x14  Data  Gb  LS-font_24x24.o [1]
acGUI_FontLSfont_24x24_2161
                        0x0804c884    0x24  Data  Gb  LS-font_24x24.o [1]
acGUI_FontLSfont_24x24_2162
                        0x0804c8a8    0x24  Data  Gb  LS-font_24x24.o [1]
acGUI_FontLSfont_24x24_2163
                        0x0804c8cc    0x34  Data  Gb  LS-font_24x24.o [1]
acGUI_FontLSfont_24x24_2164
                        0x0804c900    0x24  Data  Gb  LS-font_24x24.o [1]
acGUI_FontLSfont_24x24_2165
                        0x0804c924    0x34  Data  Gb  LS-font_24x24.o [1]
acGUI_FontLSfont_24x24_2166
                        0x0804c958    0x34  Data  Gb  LS-font_24x24.o [1]
acGUI_FontLSfont_24x24_2167
                        0x0804c98c    0x34  Data  Gb  LS-font_24x24.o [1]
acGUI_FontLSfont_24x24_2168
                        0x0804c9c0    0x34  Data  Gb  LS-font_24x24.o [1]
acGUI_FontLSfont_24x24_2169
                        0x0804c9f4    0x24  Data  Gb  LS-font_24x24.o [1]
acGUI_FontLSfont_24x24_216A
                        0x0804ca18    0x24  Data  Gb  LS-font_24x24.o [1]
acGUI_FontLSfont_24x24_216B
                        0x0804ca3c    0x38  Data  Gb  LS-font_24x24.o [1]
acGUI_FontLSfont_24x24_2170
                        0x0804ca74    0x10  Data  Gb  LS-font_24x24.o [1]
acGUI_FontLSfont_24x24_2171
                        0x0804ca84    0x20  Data  Gb  LS-font_24x24.o [1]
acGUI_FontLSfont_24x24_2172
                        0x0804caa4    0x20  Data  Gb  LS-font_24x24.o [1]
acGUI_FontLSfont_24x24_2173
                        0x0804cac4    0x20  Data  Gb  LS-font_24x24.o [1]
acGUI_FontLSfont_24x24_2174
                        0x0804cae4    0x18  Data  Gb  LS-font_24x24.o [1]
acGUI_FontLSfont_24x24_2175
                        0x0804cafc    0x20  Data  Gb  LS-font_24x24.o [1]
acGUI_FontLSfont_24x24_2176
                        0x0804cb1c    0x30  Data  Gb  LS-font_24x24.o [1]
acGUI_FontLSfont_24x24_2177
                        0x0804cb4c    0x30  Data  Gb  LS-font_24x24.o [1]
acGUI_FontLSfont_24x24_2178
                        0x0804cb7c    0x30  Data  Gb  LS-font_24x24.o [1]
acGUI_FontLSfont_24x24_2179
                        0x0804cbac    0x18  Data  Gb  LS-font_24x24.o [1]
acGUI_FontLSfont_24x24_217A
                        0x0804cbc4    0x1c  Data  Gb  LS-font_24x24.o [1]
acGUI_FontLSfont_24x24_217B
                        0x0804cbe0    0x28  Data  Gb  LS-font_24x24.o [1]
acGUI_FontLSfont_24x24_4E00
                        0x0804cc08     0x8  Data  Gb  LS-font_24x24.o [1]
acGUI_FontLSfont_24x24_4E09
                        0x0804cc10    0x3c  Data  Gb  LS-font_24x24.o [1]
acGUI_FontLSfont_24x24_4E0A
                        0x0804cc4c    0x40  Data  Gb  LS-font_24x24.o [1]
acGUI_FontLSfont_24x24_4E0B
                        0x0804cc8c    0x48  Data  Gb  LS-font_24x24.o [1]
acGUI_FontLSfont_24x24_4E0D
                        0x0804ccd4    0x48  Data  Gb  LS-font_24x24.o [1]
acGUI_FontLSfont_24x24_4E1F
                        0x0804cd1c    0x40  Data  Gb  LS-font_24x24.o [1]
acGUI_FontLSfont_24x24_4E22
                        0x0804cd5c    0x40  Data  Gb  LS-font_24x24.o [1]
acGUI_FontLSfont_24x24_4E2D
                        0x0804cd9c    0x48  Data  Gb  LS-font_24x24.o [1]
acGUI_FontLSfont_24x24_4E3B
                        0x0804cde4    0x48  Data  Gb  LS-font_24x24.o [1]
acGUI_FontLSfont_24x24_4E8B
                        0x0804ce2c    0x48  Data  Gb  LS-font_24x24.o [1]
acGUI_FontLSfont_24x24_4E8E
                        0x0804ce74    0x44  Data  Gb  LS-font_24x24.o [1]
acGUI_FontLSfont_24x24_4EA4
                        0x0804ceb8    0x48  Data  Gb  LS-font_24x24.o [1]
acGUI_FontLSfont_24x24_4EBA
                        0x0804cf00    0x44  Data  Gb  LS-font_24x24.o [1]
acGUI_FontLSfont_24x24_4ED6
                        0x0804cf44    0x44  Data  Gb  LS-font_24x24.o [1]
acGUI_FontLSfont_24x24_4EEA
                        0x0804cf88    0x44  Data  Gb  LS-font_24x24.o [1]
acGUI_FontLSfont_24x24_4EF6
                        0x0804cfcc    0x48  Data  Gb  LS-font_24x24.o [1]
acGUI_FontLSfont_24x24_4F20
                        0x0804d014    0x48  Data  Gb  LS-font_24x24.o [1]
acGUI_FontLSfont_24x24_4F4D
                        0x0804d05c    0x48  Data  Gb  LS-font_24x24.o [1]
acGUI_FontLSfont_24x24_4F4E
                        0x0804d0a4    0x48  Data  Gb  LS-font_24x24.o [1]
acGUI_FontLSfont_24x24_4F59
                        0x0804d0ec    0x48  Data  Gb  LS-font_24x24.o [1]
acGUI_FontLSfont_24x24_4F5C
                        0x0804d134    0x48  Data  Gb  LS-font_24x24.o [1]
acGUI_FontLSfont_24x24_4F7F
                        0x0804d17c    0x48  Data  Gb  LS-font_24x24.o [1]
acGUI_FontLSfont_24x24_4FC4
                        0x0804d1c4    0x48  Data  Gb  LS-font_24x24.o [1]
acGUI_FontLSfont_24x24_4FDD
                        0x0804d20c    0x48  Data  Gb  LS-font_24x24.o [1]
acGUI_FontLSfont_24x24_4FE1
                        0x0804d254    0x48  Data  Gb  LS-font_24x24.o [1]
acGUI_FontLSfont_24x24_503C
                        0x0804d29c    0x44  Data  Gb  LS-font_24x24.o [1]
acGUI_FontLSfont_24x24_50CF
                        0x0804d2e0    0x48  Data  Gb  LS-font_24x24.o [1]
acGUI_FontLSfont_24x24_5165
                        0x0804d328    0x40  Data  Gb  LS-font_24x24.o [1]
acGUI_FontLSfont_24x24_5168
                        0x0804d368    0x48  Data  Gb  LS-font_24x24.o [1]
acGUI_FontLSfont_24x24_5173
                        0x0804d3b0    0x44  Data  Gb  LS-font_24x24.o [1]
acGUI_FontLSfont_24x24_5176
                        0x0804d3f4    0x44  Data  Gb  LS-font_24x24.o [1]
acGUI_FontLSfont_24x24_5185
                        0x0804d438    0x44  Data  Gb  LS-font_24x24.o [1]
acGUI_FontLSfont_24x24_51B2
                        0x0804d47c    0x44  Data  Gb  LS-font_24x24.o [1]
acGUI_FontLSfont_24x24_51B7
                        0x0804d4c0    0x48  Data  Gb  LS-font_24x24.o [1]
acGUI_FontLSfont_24x24_51C6
                        0x0804d508    0x44  Data  Gb  LS-font_24x24.o [1]
acGUI_FontLSfont_24x24_51CF
                        0x0804d54c    0x44  Data  Gb  LS-font_24x24.o [1]
acGUI_FontLSfont_24x24_51FA
                        0x0804d590    0x44  Data  Gb  LS-font_24x24.o [1]
acGUI_FontLSfont_24x24_5206
                        0x0804d5d4    0x40  Data  Gb  LS-font_24x24.o [1]
acGUI_FontLSfont_24x24_521D
                        0x0804d614    0x48  Data  Gb  LS-font_24x24.o [1]
acGUI_FontLSfont_24x24_5236
                        0x0804d65c    0x44  Data  Gb  LS-font_24x24.o [1]
acGUI_FontLSfont_24x24_5269
                        0x0804d6a0    0x48  Data  Gb  LS-font_24x24.o [1]
acGUI_FontLSfont_24x24_5273
                        0x0804d6e8    0x44  Data  Gb  LS-font_24x24.o [1]
acGUI_FontLSfont_24x24_529F
                        0x0804d72c    0x48  Data  Gb  LS-font_24x24.o [1]
acGUI_FontLSfont_24x24_52A0
                        0x0804d774    0x48  Data  Gb  LS-font_24x24.o [1]
acGUI_FontLSfont_24x24_52A8
                        0x0804d7bc    0x44  Data  Gb  LS-font_24x24.o [1]
acGUI_FontLSfont_24x24_5316
                        0x0804d800    0x44  Data  Gb  LS-font_24x24.o [1]
acGUI_FontLSfont_24x24_533A
                        0x0804d844    0x44  Data  Gb  LS-font_24x24.o [1]
acGUI_FontLSfont_24x24_5382
                        0x0804d888    0x40  Data  Gb  LS-font_24x24.o [1]
acGUI_FontLSfont_24x24_538B
                        0x0804d8c8    0x40  Data  Gb  LS-font_24x24.o [1]
acGUI_FontLSfont_24x24_539F
                        0x0804d908    0x40  Data  Gb  LS-font_24x24.o [1]
acGUI_FontLSfont_24x24_53BB
                        0x0804d948    0x44  Data  Gb  LS-font_24x24.o [1]
acGUI_FontLSfont_24x24_53CD
                        0x0804d98c    0x44  Data  Gb  LS-font_24x24.o [1]
acGUI_FontLSfont_24x24_53D1
                        0x0804d9d0    0x48  Data  Gb  LS-font_24x24.o [1]
acGUI_FontLSfont_24x24_53D6
                        0x0804da18    0x40  Data  Gb  LS-font_24x24.o [1]
acGUI_FontLSfont_24x24_53D8
                        0x0804da58    0x48  Data  Gb  LS-font_24x24.o [1]
acGUI_FontLSfont_24x24_53E3
                        0x0804daa0    0x44  Data  Gb  LS-font_24x24.o [1]
acGUI_FontLSfont_24x24_53F7
                        0x0804dae4    0x3c  Data  Gb  LS-font_24x24.o [1]
acGUI_FontLSfont_24x24_5408
                        0x0804db20    0x48  Data  Gb  LS-font_24x24.o [1]
acGUI_FontLSfont_24x24_540C
                        0x0804db68    0x44  Data  Gb  LS-font_24x24.o [1]
acGUI_FontLSfont_24x24_540D
                        0x0804dbac    0x48  Data  Gb  LS-font_24x24.o [1]
acGUI_FontLSfont_24x24_5411
                        0x0804dbf4    0x44  Data  Gb  LS-font_24x24.o [1]
acGUI_FontLSfont_24x24_5417
                        0x0804dc38    0x3c  Data  Gb  LS-font_24x24.o [1]
acGUI_FontLSfont_24x24_5426
                        0x0804dc74    0x44  Data  Gb  LS-font_24x24.o [1]
acGUI_FontLSfont_24x24_542F
                        0x0804dcb8    0x44  Data  Gb  LS-font_24x24.o [1]
acGUI_FontLSfont_24x24_547D
                        0x0804dcfc    0x48  Data  Gb  LS-font_24x24.o [1]
acGUI_FontLSfont_24x24_548C
                        0x0804dd44    0x48  Data  Gb  LS-font_24x24.o [1]
acGUI_FontLSfont_24x24_5668
                        0x0804dd8c    0x48  Data  Gb  LS-font_24x24.o [1]
acGUI_FontLSfont_24x24_56DE
                        0x0804ddd4    0x44  Data  Gb  LS-font_24x24.o [1]
acGUI_FontLSfont_24x24_56E0
                        0x0804de18    0x44  Data  Gb  LS-font_24x24.o [1]
acGUI_FontLSfont_24x24_56FE
                        0x0804de5c    0x44  Data  Gb  LS-font_24x24.o [1]
acGUI_FontLSfont_24x24_5728
                        0x0804dea0    0x48  Data  Gb  LS-font_24x24.o [1]
acGUI_FontLSfont_24x24_5730
                        0x0804dee8    0x44  Data  Gb  LS-font_24x24.o [1]
acGUI_FontLSfont_24x24_5740
                        0x0804df2c    0x48  Data  Gb  LS-font_24x24.o [1]
acGUI_FontLSfont_24x24_578B
                        0x0804df74    0x48  Data  Gb  LS-font_24x24.o [1]
acGUI_FontLSfont_24x24_57DF
                        0x0804dfbc    0x48  Data  Gb  LS-font_24x24.o [1]
acGUI_FontLSfont_24x24_57F9
                        0x0804e004    0x48  Data  Gb  LS-font_24x24.o [1]
acGUI_FontLSfont_24x24_5883
                        0x0804e04c    0x48  Data  Gb  LS-font_24x24.o [1]
acGUI_FontLSfont_24x24_5904
                        0x0804e094    0x44  Data  Gb  LS-font_24x24.o [1]
acGUI_FontLSfont_24x24_5907
                        0x0804e0d8    0x48  Data  Gb  LS-font_24x24.o [1]
acGUI_FontLSfont_24x24_590D
                        0x0804e120    0x48  Data  Gb  LS-font_24x24.o [1]
acGUI_FontLSfont_24x24_5916
                        0x0804e168    0x48  Data  Gb  LS-font_24x24.o [1]
acGUI_FontLSfont_24x24_5927
                        0x0804e1b0    0x48  Data  Gb  LS-font_24x24.o [1]
acGUI_FontLSfont_24x24_592E
                        0x0804e1f8    0x44  Data  Gb  LS-font_24x24.o [1]
acGUI_FontLSfont_24x24_5931
                        0x0804e23c    0x48  Data  Gb  LS-font_24x24.o [1]
acGUI_FontLSfont_24x24_5934
                        0x0804e284    0x44  Data  Gb  LS-font_24x24.o [1]
acGUI_FontLSfont_24x24_59CB
                        0x0804e2c8    0x44  Data  Gb  LS-font_24x24.o [1]
acGUI_FontLSfont_24x24_5B50
                        0x0804e30c    0x48  Data  Gb  LS-font_24x24.o [1]
acGUI_FontLSfont_24x24_5B57
                        0x0804e354    0x48  Data  Gb  LS-font_24x24.o [1]
acGUI_FontLSfont_24x24_5B58
                        0x0804e39c    0x48  Data  Gb  LS-font_24x24.o [1]
acGUI_FontLSfont_24x24_5B85
                        0x0804e3e4    0x48  Data  Gb  LS-font_24x24.o [1]
acGUI_FontLSfont_24x24_5B89
                        0x0804e42c    0x48  Data  Gb  LS-font_24x24.o [1]
acGUI_FontLSfont_24x24_5B8C
                        0x0804e474    0x48  Data  Gb  LS-font_24x24.o [1]
acGUI_FontLSfont_24x24_5B9A
                        0x0804e4bc    0x48  Data  Gb  LS-font_24x24.o [1]
acGUI_FontLSfont_24x24_5B9E
                        0x0804e504    0x48  Data  Gb  LS-font_24x24.o [1]
acGUI_FontLSfont_24x24_5BC4
                        0x0804e54c    0x48  Data  Gb  LS-font_24x24.o [1]
acGUI_FontLSfont_24x24_5BC6
                        0x0804e594    0x48  Data  Gb  LS-font_24x24.o [1]
acGUI_FontLSfont_24x24_5BFF
                        0x0804e5dc    0x48  Data  Gb  LS-font_24x24.o [1]
acGUI_FontLSfont_24x24_5C04
                        0x0804e624    0x48  Data  Gb  LS-font_24x24.o [1]
acGUI_FontLSfont_24x24_5C0F
                        0x0804e66c    0x40  Data  Gb  LS-font_24x24.o [1]
acGUI_FontLSfont_24x24_5C40
                        0x0804e6ac    0x44  Data  Gb  LS-font_24x24.o [1]
acGUI_FontLSfont_24x24_5DE5
                        0x0804e6f0    0x3c  Data  Gb  LS-font_24x24.o [1]
acGUI_FontLSfont_24x24_5E27
                        0x0804e72c    0x44  Data  Gb  LS-font_24x24.o [1]
acGUI_FontLSfont_24x24_5E38
                        0x0804e770    0x48  Data  Gb  LS-font_24x24.o [1]
acGUI_FontLSfont_24x24_5E73
                        0x0804e7b8    0x48  Data  Gb  LS-font_24x24.o [1]
acGUI_FontLSfont_24x24_5E74
                        0x0804e800    0x48  Data  Gb  LS-font_24x24.o [1]
acGUI_FontLSfont_24x24_5E8F
                        0x0804e848    0x48  Data  Gb  LS-font_24x24.o [1]
acGUI_FontLSfont_24x24_5EA6
                        0x0804e890    0x48  Data  Gb  LS-font_24x24.o [1]
acGUI_FontLSfont_24x24_5EF6
                        0x0804e8d8    0x44  Data  Gb  LS-font_24x24.o [1]
acGUI_FontLSfont_24x24_5F00
                        0x0804e91c    0x40  Data  Gb  LS-font_24x24.o [1]
acGUI_FontLSfont_24x24_5F55
                        0x0804e95c    0x6c  Data  Gb  LS-font_24x24.o [1]
acGUI_FontLSfont_24x24_5F62
                        0x0804e9c8    0x48  Data  Gb  LS-font_24x24.o [1]
acGUI_FontLSfont_24x24_6001
                        0x0804ea10    0x44  Data  Gb  LS-font_24x24.o [1]
acGUI_FontLSfont_24x24_6027
                        0x0804ea54    0x48  Data  Gb  LS-font_24x24.o [1]
acGUI_FontLSfont_24x24_606F
                        0x0804ea9c    0x48  Data  Gb  LS-font_24x24.o [1]
acGUI_FontLSfont_24x24_6210
                        0x0804eae4    0x48  Data  Gb  LS-font_24x24.o [1]
acGUI_FontLSfont_24x24_6211
                        0x0804eb2c    0x48  Data  Gb  LS-font_24x24.o [1]
acGUI_FontLSfont_24x24_6216
                        0x0804eb74    0x48  Data  Gb  LS-font_24x24.o [1]
acGUI_FontLSfont_24x24_6240
                        0x0804ebbc    0x44  Data  Gb  LS-font_24x24.o [1]
acGUI_FontLSfont_24x24_6253
                        0x0804ec00    0x44  Data  Gb  LS-font_24x24.o [1]
acGUI_FontLSfont_24x24_6263
                        0x0804ec44    0x44  Data  Gb  LS-font_24x24.o [1]
acGUI_FontLSfont_24x24_62A4
                        0x0804ec88    0x40  Data  Gb  LS-font_24x24.o [1]
acGUI_FontLSfont_24x24_62A5
                        0x0804ecc8    0x48  Data  Gb  LS-font_24x24.o [1]
acGUI_FontLSfont_24x24_62BD
                        0x0804ed10    0x44  Data  Gb  LS-font_24x24.o [1]
acGUI_FontLSfont_24x24_62DF
                        0x0804ed54    0x48  Data  Gb  LS-font_24x24.o [1]
acGUI_FontLSfont_24x24_62E9
                        0x0804ed9c    0x48  Data  Gb  LS-font_24x24.o [1]
acGUI_FontLSfont_24x24_6301
                        0x0804ede4    0x48  Data  Gb  LS-font_24x24.o [1]
acGUI_FontLSfont_24x24_635F
                        0x0804ee2c    0x48  Data  Gb  LS-font_24x24.o [1]
acGUI_FontLSfont_24x24_6362
                        0x0804ee74    0x48  Data  Gb  LS-font_24x24.o [1]
acGUI_FontLSfont_24x24_636E
                        0x0804eebc    0x48  Data  Gb  LS-font_24x24.o [1]
acGUI_FontLSfont_24x24_63A5
                        0x0804ef04    0x48  Data  Gb  LS-font_24x24.o [1]
acGUI_FontLSfont_24x24_63A7
                        0x0804ef4c    0x48  Data  Gb  LS-font_24x24.o [1]
acGUI_FontLSfont_24x24_63A8
                        0x0804ef94    0x48  Data  Gb  LS-font_24x24.o [1]
acGUI_FontLSfont_24x24_63CF
                        0x0804efdc    0x48  Data  Gb  LS-font_24x24.o [1]
acGUI_FontLSfont_24x24_63D2
                        0x0804f024    0x48  Data  Gb  LS-font_24x24.o [1]
acGUI_FontLSfont_24x24_64CD
                        0x0804f06c    0x48  Data  Gb  LS-font_24x24.o [1]
acGUI_FontLSfont_24x24_6536
                        0x0804f0b4    0x44  Data  Gb  LS-font_24x24.o [1]
acGUI_FontLSfont_24x24_6539
                        0x0804f0f8    0x44  Data  Gb  LS-font_24x24.o [1]
acGUI_FontLSfont_24x24_6545
                        0x0804f13c    0x48  Data  Gb  LS-font_24x24.o [1]
acGUI_FontLSfont_24x24_6570
                        0x0804f184    0x48  Data  Gb  LS-font_24x24.o [1]
acGUI_FontLSfont_24x24_6587
                        0x0804f1cc    0x44  Data  Gb  LS-font_24x24.o [1]
acGUI_FontLSfont_24x24_65AD
                        0x0804f210    0x48  Data  Gb  LS-font_24x24.o [1]
acGUI_FontLSfont_24x24_65B0
                        0x0804f258    0x48  Data  Gb  LS-font_24x24.o [1]
acGUI_FontLSfont_24x24_65B9
                        0x0804f2a0    0x48  Data  Gb  LS-font_24x24.o [1]
acGUI_FontLSfont_24x24_65CB
                        0x0804f2e8    0x48  Data  Gb  LS-font_24x24.o [1]
acGUI_FontLSfont_24x24_65E0
                        0x0804f330    0x40  Data  Gb  LS-font_24x24.o [1]
acGUI_FontLSfont_24x24_65E5
                        0x0804f370    0x48  Data  Gb  LS-font_24x24.o [1]
acGUI_FontLSfont_24x24_65E7
                        0x0804f3b8    0x3c  Data  Gb  LS-font_24x24.o [1]
acGUI_FontLSfont_24x24_65F6
                        0x0804f3f4    0x44  Data  Gb  LS-font_24x24.o [1]
acGUI_FontLSfont_24x24_6620
                        0x0804f438    0x48  Data  Gb  LS-font_24x24.o [1]
acGUI_FontLSfont_24x24_662F
                        0x0804f480    0x48  Data  Gb  LS-font_24x24.o [1]
acGUI_FontLSfont_24x24_663E
                        0x0804f4c8    0x40  Data  Gb  LS-font_24x24.o [1]
acGUI_FontLSfont_24x24_66F4
                        0x0804f508    0x44  Data  Gb  LS-font_24x24.o [1]
acGUI_FontLSfont_24x24_6700
                        0x0804f54c    0x48  Data  Gb  LS-font_24x24.o [1]
acGUI_FontLSfont_24x24_6708
                        0x0804f594    0x48  Data  Gb  LS-font_24x24.o [1]
acGUI_FontLSfont_24x24_6709
                        0x0804f5dc    0x48  Data  Gb  LS-font_24x24.o [1]
acGUI_FontLSfont_24x24_672A
                        0x0804f624    0x48  Data  Gb  LS-font_24x24.o [1]
acGUI_FontLSfont_24x24_672C
                        0x0804f66c    0x48  Data  Gb  LS-font_24x24.o [1]
acGUI_FontLSfont_24x24_673A
                        0x0804f6b4    0x48  Data  Gb  LS-font_24x24.o [1]
acGUI_FontLSfont_24x24_677F
                        0x0804f6fc    0x48  Data  Gb  LS-font_24x24.o [1]
acGUI_FontLSfont_24x24_6781
                        0x0804f744    0x44  Data  Gb  LS-font_24x24.o [1]
acGUI_FontLSfont_24x24_67B6
                        0x0804f788    0x48  Data  Gb  LS-font_24x24.o [1]
acGUI_FontLSfont_24x24_67E5
                        0x0804f7d0    0x48  Data  Gb  LS-font_24x24.o [1]
acGUI_FontLSfont_24x24_6821
                        0x0804f818    0x48  Data  Gb  LS-font_24x24.o [1]
acGUI_FontLSfont_24x24_6846
                        0x0804f860    0x48  Data  Gb  LS-font_24x24.o [1]
acGUI_FontLSfont_24x24_68B0
                        0x0804f8a8    0x48  Data  Gb  LS-font_24x24.o [1]
acGUI_FontLSfont_24x24_695A
                        0x0804f8f0    0x48  Data  Gb  LS-font_24x24.o [1]
acGUI_FontLSfont_24x24_6982
                        0x0804f938    0x48  Data  Gb  LS-font_24x24.o [1]
acGUI_FontLSfont_24x24_6A21
                        0x0804f980    0x48  Data  Gb  LS-font_24x24.o [1]
acGUI_FontLSfont_24x24_6B20
                        0x0804f9c8    0x48  Data  Gb  LS-font_24x24.o [1]
acGUI_FontLSfont_24x24_6B21
                        0x0804fa10    0x48  Data  Gb  LS-font_24x24.o [1]
acGUI_FontLSfont_24x24_6B63
                        0x0804fa58    0x3c  Data  Gb  LS-font_24x24.o [1]
acGUI_FontLSfont_24x24_6B65
                        0x0804fa94    0x48  Data  Gb  LS-font_24x24.o [1]
acGUI_FontLSfont_24x24_6BB5
                        0x0804fadc    0x44  Data  Gb  LS-font_24x24.o [1]
acGUI_FontLSfont_24x24_6C14
                        0x0804fb20    0x48  Data  Gb  LS-font_24x24.o [1]
acGUI_FontLSfont_24x24_6C42
                        0x0804fb68    0x48  Data  Gb  LS-font_24x24.o [1]
acGUI_FontLSfont_24x24_6C60
                        0x0804fbb0    0x48  Data  Gb  LS-font_24x24.o [1]
acGUI_FontLSfont_24x24_6CA1
                        0x0804fbf8    0x48  Data  Gb  LS-font_24x24.o [1]
acGUI_FontLSfont_24x24_6CE2
                        0x0804fc40    0x48  Data  Gb  LS-font_24x24.o [1]
acGUI_FontLSfont_24x24_6D41
                        0x0804fc88    0x48  Data  Gb  LS-font_24x24.o [1]
acGUI_FontLSfont_24x24_6D4B
                        0x0804fcd0    0x48  Data  Gb  LS-font_24x24.o [1]
acGUI_FontLSfont_24x24_6D88
                        0x0804fd18    0x48  Data  Gb  LS-font_24x24.o [1]
acGUI_FontLSfont_24x24_6E05
                        0x0804fd60    0x48  Data  Gb  LS-font_24x24.o [1]
acGUI_FontLSfont_24x24_6E29
                        0x0804fda8    0x44  Data  Gb  LS-font_24x24.o [1]
acGUI_FontLSfont_24x24_6E90
                        0x0804fdec    0x44  Data  Gb  LS-font_24x24.o [1]
acGUI_FontLSfont_24x24_70B9
                        0x0804fe30    0x48  Data  Gb  LS-font_24x24.o [1]
acGUI_FontLSfont_24x24_70ED
                        0x0804fe78    0x48  Data  Gb  LS-font_24x24.o [1]
acGUI_FontLSfont_24x24_7248
                        0x0804fec0    0x44  Data  Gb  LS-font_24x24.o [1]
acGUI_FontLSfont_24x24_7279
                        0x0804ff04    0x48  Data  Gb  LS-font_24x24.o [1]
acGUI_FontLSfont_24x24_72B6
                        0x0804ff4c    0x48  Data  Gb  LS-font_24x24.o [1]
acGUI_FontLSfont_24x24_7387
                        0x0804ff94    0x48  Data  Gb  LS-font_24x24.o [1]
acGUI_FontLSfont_24x24_73AF
                        0x0804ffdc    0x44  Data  Gb  LS-font_24x24.o [1]
acGUI_FontLSfont_24x24_73B0
                        0x08050020    0x44  Data  Gb  LS-font_24x24.o [1]
acGUI_FontLSfont_24x24_7406
                        0x08050064    0x3c  Data  Gb  LS-font_24x24.o [1]
acGUI_FontLSfont_24x24_74E6
                        0x080500a0    0x40  Data  Gb  LS-font_24x24.o [1]
acGUI_FontLSfont_24x24_751F
                        0x080500e0    0x40  Data  Gb  LS-font_24x24.o [1]
acGUI_FontLSfont_24x24_7528
                        0x08050120    0x44  Data  Gb  LS-font_24x24.o [1]
acGUI_FontLSfont_24x24_7535
                        0x08050164    0x44  Data  Gb  LS-font_24x24.o [1]
acGUI_FontLSfont_24x24_767B
                        0x080501a8    0x48  Data  Gb  LS-font_24x24.o [1]
acGUI_FontLSfont_24x24_7684
                        0x080501f0    0x48  Data  Gb  LS-font_24x24.o [1]
acGUI_FontLSfont_24x24_76F8
                        0x08050238    0x48  Data  Gb  LS-font_24x24.o [1]
acGUI_FontLSfont_24x24_77AC
                        0x08050280    0x44  Data  Gb  LS-font_24x24.o [1]
acGUI_FontLSfont_24x24_77E2
                        0x080502c4    0x48  Data  Gb  LS-font_24x24.o [1]
acGUI_FontLSfont_24x24_77ED
                        0x0805030c    0x48  Data  Gb  LS-font_24x24.o [1]
acGUI_FontLSfont_24x24_7801
                        0x08050354    0x40  Data  Gb  LS-font_24x24.o [1]
acGUI_FontLSfont_24x24_7834
                        0x08050394    0x48  Data  Gb  LS-font_24x24.o [1]
acGUI_FontLSfont_24x24_786C
                        0x080503dc    0x48  Data  Gb  LS-font_24x24.o [1]
acGUI_FontLSfont_24x24_786E
                        0x08050424    0x48  Data  Gb  LS-font_24x24.o [1]
acGUI_FontLSfont_24x24_78C1
                        0x0805046c    0x48  Data  Gb  LS-font_24x24.o [1]
acGUI_FontLSfont_24x24_78E8
                        0x080504b4    0x48  Data  Gb  LS-font_24x24.o [1]
acGUI_FontLSfont_24x24_793A
                        0x080504fc    0x44  Data  Gb  LS-font_24x24.o [1]
acGUI_FontLSfont_24x24_79D2
                        0x08050540    0x48  Data  Gb  LS-font_24x24.o [1]
acGUI_FontLSfont_24x24_79F0
                        0x08050588    0x48  Data  Gb  LS-font_24x24.o [1]
acGUI_FontLSfont_24x24_7A0B
                        0x080505d0    0x48  Data  Gb  LS-font_24x24.o [1]
acGUI_FontLSfont_24x24_7A81
                        0x08050618    0x48  Data  Gb  LS-font_24x24.o [1]
acGUI_FontLSfont_24x24_7B49
                        0x08050660    0x48  Data  Gb  LS-font_24x24.o [1]
acGUI_FontLSfont_24x24_7C7B
                        0x080506a8    0x48  Data  Gb  LS-font_24x24.o [1]
acGUI_FontLSfont_24x24_7CFB
                        0x080506f0    0x44  Data  Gb  LS-font_24x24.o [1]
acGUI_FontLSfont_24x24_7D20
                        0x08050734    0x48  Data  Gb  LS-font_24x24.o [1]
acGUI_FontLSfont_24x24_7EBF
                        0x0805077c    0x44  Data  Gb  LS-font_24x24.o [1]
acGUI_FontLSfont_24x24_7EC4
                        0x080507c0    0x40  Data  Gb  LS-font_24x24.o [1]
acGUI_FontLSfont_24x24_7EDB
                        0x08050800    0x44  Data  Gb  LS-font_24x24.o [1]
acGUI_FontLSfont_24x24_7EDC
                        0x08050844    0x48  Data  Gb  LS-font_24x24.o [1]
acGUI_FontLSfont_24x24_7EDF
                        0x0805088c    0x48  Data  Gb  LS-font_24x24.o [1]
acGUI_FontLSfont_24x24_7EE7
                        0x080508d4    0x44  Data  Gb  LS-font_24x24.o [1]
acGUI_FontLSfont_24x24_7EED
                        0x08050918    0x44  Data  Gb  LS-font_24x24.o [1]
acGUI_FontLSfont_24x24_7F13
                        0x0805095c    0x44  Data  Gb  LS-font_24x24.o [1]
acGUI_FontLSfont_24x24_7F51
                        0x080509a0    0x44  Data  Gb  LS-font_24x24.o [1]
acGUI_FontLSfont_24x24_7F6E
                        0x080509e4    0x48  Data  Gb  LS-font_24x24.o [1]
acGUI_FontLSfont_24x24_80FD
                        0x08050a2c    0x48  Data  Gb  LS-font_24x24.o [1]
acGUI_FontLSfont_24x24_8131
                        0x08050a74    0x48  Data  Gb  LS-font_24x24.o [1]
acGUI_FontLSfont_24x24_81EA
                        0x08050abc    0x48  Data  Gb  LS-font_24x24.o [1]
acGUI_FontLSfont_24x24_81F4
                        0x08050b04    0x44  Data  Gb  LS-font_24x24.o [1]
acGUI_FontLSfont_24x24_82F1
                        0x08050b48    0x48  Data  Gb  LS-font_24x24.o [1]
acGUI_FontLSfont_24x24_8425
                        0x08050b90    0x48  Data  Gb  LS-font_24x24.o [1]
acGUI_FontLSfont_24x24_884C
                        0x08050bd8    0x48  Data  Gb  LS-font_24x24.o [1]
acGUI_FontLSfont_24x24_8861
                        0x08050c20    0x48  Data  Gb  LS-font_24x24.o [1]
acGUI_FontLSfont_24x24_8870
                        0x08050c68    0x48  Data  Gb  LS-font_24x24.o [1]
acGUI_FontLSfont_24x24_8981
                        0x08050cb0    0x48  Data  Gb  LS-font_24x24.o [1]
acGUI_FontLSfont_24x24_89C8
                        0x08050cf8    0x48  Data  Gb  LS-font_24x24.o [1]
acGUI_FontLSfont_24x24_89D2
                        0x08050d40    0x48  Data  Gb  LS-font_24x24.o [1]
acGUI_FontLSfont_24x24_89E6
                        0x08050d88    0x48  Data  Gb  LS-font_24x24.o [1]
acGUI_FontLSfont_24x24_8A00
                        0x08050dd0    0x48  Data  Gb  LS-font_24x24.o [1]
acGUI_FontLSfont_24x24_8B66
                        0x08050e18    0x48  Data  Gb  LS-font_24x24.o [1]
acGUI_FontLSfont_24x24_8BA1
                        0x08050e60    0x48  Data  Gb  LS-font_24x24.o [1]
acGUI_FontLSfont_24x24_8BA4
                        0x08050ea8    0x48  Data  Gb  LS-font_24x24.o [1]
acGUI_FontLSfont_24x24_8BAF
                        0x08050ef0    0x44  Data  Gb  LS-font_24x24.o [1]
acGUI_FontLSfont_24x24_8BB2
                        0x08050f34    0x48  Data  Gb  LS-font_24x24.o [1]
acGUI_FontLSfont_24x24_8BBE
                        0x08050f7c    0x44  Data  Gb  LS-font_24x24.o [1]
acGUI_FontLSfont_24x24_8BCA
                        0x08050fc0    0x44  Data  Gb  LS-font_24x24.o [1]
acGUI_FontLSfont_24x24_8BD5
                        0x08051004    0x48  Data  Gb  LS-font_24x24.o [1]
acGUI_FontLSfont_24x24_8BE2
                        0x0805104c    0x48  Data  Gb  LS-font_24x24.o [1]
acGUI_FontLSfont_24x24_8BED
                        0x08051094    0x44  Data  Gb  LS-font_24x24.o [1]
acGUI_FontLSfont_24x24_8BEF
                        0x080510d8    0x44  Data  Gb  LS-font_24x24.o [1]
acGUI_FontLSfont_24x24_8C10
                        0x0805111c    0x44  Data  Gb  LS-font_24x24.o [1]
acGUI_FontLSfont_24x24_8D1F
                        0x08051160    0x48  Data  Gb  LS-font_24x24.o [1]
acGUI_FontLSfont_24x24_8D25
                        0x080511a8    0x48  Data  Gb  LS-font_24x24.o [1]
acGUI_FontLSfont_24x24_8D85
                        0x080511f0    0x48  Data  Gb  LS-font_24x24.o [1]
acGUI_FontLSfont_24x24_8D8A
                        0x08051238    0x44  Data  Gb  LS-font_24x24.o [1]
acGUI_FontLSfont_24x24_8DEF
                        0x0805127c    0x48  Data  Gb  LS-font_24x24.o [1]
acGUI_FontLSfont_24x24_8DF3
                        0x080512c4    0x48  Data  Gb  LS-font_24x24.o [1]
acGUI_FontLSfont_24x24_8F6F
                        0x0805130c    0x48  Data  Gb  LS-font_24x24.o [1]
acGUI_FontLSfont_24x24_8F7D
                        0x08051354    0x48  Data  Gb  LS-font_24x24.o [1]
acGUI_FontLSfont_24x24_8F93
                        0x0805139c    0x48  Data  Gb  LS-font_24x24.o [1]
acGUI_FontLSfont_24x24_8FC7
                        0x080513e4    0x44  Data  Gb  LS-font_24x24.o [1]
acGUI_FontLSfont_24x24_8FD0
                        0x08051428    0x44  Data  Gb  LS-font_24x24.o [1]
acGUI_FontLSfont_24x24_8FD4
                        0x0805146c    0x44  Data  Gb  LS-font_24x24.o [1]
acGUI_FontLSfont_24x24_8FDB
                        0x080514b0    0x44  Data  Gb  LS-font_24x24.o [1]
acGUI_FontLSfont_24x24_8FDC
                        0x080514f4    0x44  Data  Gb  LS-font_24x24.o [1]
acGUI_FontLSfont_24x24_8FDE
                        0x08051538    0x48  Data  Gb  LS-font_24x24.o [1]
acGUI_FontLSfont_24x24_8FF0
                        0x08051580    0x48  Data  Gb  LS-font_24x24.o [1]
acGUI_FontLSfont_24x24_9001
                        0x080515c8    0x48  Data  Gb  LS-font_24x24.o [1]
acGUI_FontLSfont_24x24_9009
                        0x08051610    0x48  Data  Gb  LS-font_24x24.o [1]
acGUI_FontLSfont_24x24_901A
                        0x08051658    0x44  Data  Gb  LS-font_24x24.o [1]
acGUI_FontLSfont_24x24_90AE
                        0x0805169c    0x48  Data  Gb  LS-font_24x24.o [1]
acGUI_FontLSfont_24x24_90E8
                        0x080516e4    0x44  Data  Gb  LS-font_24x24.o [1]
acGUI_FontLSfont_24x24_914D
                        0x08051728    0x40  Data  Gb  LS-font_24x24.o [1]
acGUI_FontLSfont_24x24_91CD
                        0x08051768    0x48  Data  Gb  LS-font_24x24.o [1]
acGUI_FontLSfont_24x24_91CF
                        0x080517b0    0x48  Data  Gb  LS-font_24x24.o [1]
acGUI_FontLSfont_24x24_949F
                        0x080517f8    0x48  Data  Gb  LS-font_24x24.o [1]
acGUI_FontLSfont_24x24_94AE
                        0x08051840    0x48  Data  Gb  LS-font_24x24.o [1]
acGUI_FontLSfont_24x24_9519
                        0x08051888    0x48  Data  Gb  LS-font_24x24.o [1]
acGUI_FontLSfont_24x24_957F
                        0x080518d0    0x48  Data  Gb  LS-font_24x24.o [1]
acGUI_FontLSfont_24x24_95ED
                        0x08051918    0x48  Data  Gb  LS-font_24x24.o [1]
acGUI_FontLSfont_24x24_95F4
                        0x08051960    0x48  Data  Gb  LS-font_24x24.o [1]
acGUI_FontLSfont_24x24_95F8
                        0x080519a8    0x48  Data  Gb  LS-font_24x24.o [1]
acGUI_FontLSfont_24x24_9636
                        0x080519f0    0x44  Data  Gb  LS-font_24x24.o [1]
acGUI_FontLSfont_24x24_9644
                        0x08051a34    0x44  Data  Gb  LS-font_24x24.o [1]
acGUI_FontLSfont_24x24_9650
                        0x08051a78    0x44  Data  Gb  LS-font_24x24.o [1]
acGUI_FontLSfont_24x24_9664
                        0x08051abc    0x44  Data  Gb  LS-font_24x24.o [1]
acGUI_FontLSfont_24x24_969C
                        0x08051b00    0x48  Data  Gb  LS-font_24x24.o [1]
acGUI_FontLSfont_24x24_96C6
                        0x08051b48    0x48  Data  Gb  LS-font_24x24.o [1]
acGUI_FontLSfont_24x24_96F6
                        0x08051b90    0x44  Data  Gb  LS-font_24x24.o [1]
acGUI_FontLSfont_24x24_9700
                        0x08051bd4    0x48  Data  Gb  LS-font_24x24.o [1]
acGUI_FontLSfont_24x24_9806
                        0x08051c1c    0x48  Data  Gb  LS-font_24x24.o [1]
acGUI_FontLSfont_24x24_9879
                        0x08051c64    0x40  Data  Gb  LS-font_24x24.o [1]
acGUI_FontLSfont_24x24_987A
                        0x08051ca4    0x44  Data  Gb  LS-font_24x24.o [1]
acGUI_FontLSfont_24x24_9884
                        0x08051ce8    0x40  Data  Gb  LS-font_24x24.o [1]
acGUI_FontLSfont_24x24_9886
                        0x08051d28    0x44  Data  Gb  LS-font_24x24.o [1]
acGUI_FontLSfont_24x24_9891
                        0x08051d6c    0x48  Data  Gb  LS-font_24x24.o [1]
acGUI_FontLSfont_24x24_989D
                        0x08051db4    0x48  Data  Gb  LS-font_24x24.o [1]
acGUI_FontLSfont_24x24_9AD8
                        0x08051dfc    0x48  Data  Gb  LS-font_24x24.o [1]
acGUI_FontLSfont_24x24_F901
                        0x08051e44    0x44  Data  Gb  LS-font_24x24.o [1]
acGUI_FontLSfont_24x24_F92E
                        0x08051e88    0x48  Data  Gb  LS-font_24x24.o [1]
acGUI_FontLSfont_24x24_F937
                        0x08051ed0    0x48  Data  Gb  LS-font_24x24.o [1]
acGUI_FontLSfont_24x24_F961
                        0x08051f18    0x48  Data  Gb  LS-font_24x24.o [1]
acGUI_FontLSfont_24x24_F967
                        0x08051f60    0x48  Data  Gb  LS-font_24x24.o [1]
acGUI_FontLSfont_24x24_F97E
                        0x08051fa8    0x48  Data  Gb  LS-font_24x24.o [1]
acGUI_FontLSfont_24x24_F98E
                        0x08051ff0    0x48  Data  Gb  LS-font_24x24.o [1]
acGUI_FontLSfont_24x24_F9B2
                        0x08052038    0x44  Data  Gb  LS-font_24x24.o [1]
acGUI_FontLSfont_24x24_F9CA
                        0x0805207c    0x48  Data  Gb  LS-font_24x24.o [1]
acGUI_FontLSfont_24x24_F9DB
                        0x080520c4    0x48  Data  Gb  LS-font_24x24.o [1]
acGUI_FontLSfont_24x24_F9E4
                        0x0805210c    0x3c  Data  Gb  LS-font_24x24.o [1]
acGUI_FontLSfont_24x24_FA01
                        0x08052148    0x48  Data  Gb  LS-font_24x24.o [1]
acGUI_FontLSfont_24x24_FA04
                        0x08052190    0x48  Data  Gb  LS-font_24x24.o [1]
acGUI_FontLSfont_24x24_FA08
                        0x080521d8    0x48  Data  Gb  LS-font_24x24.o [1]
acGUI_FontLSfont_24x24_FA38
                        0x08052220    0x48  Data  Gb  LS-font_24x24.o [1]
acGUI_FontLSfont_24x24_FA55
                        0x08052268    0x48  Data  Gb  LS-font_24x24.o [1]
acGUI_FontLSfont_24x24_FA72
                        0x080522b0    0x48  Data  Gb  LS-font_24x24.o [1]
acGUI_FontLSfont_24x24_FA97
                        0x080522f8    0x48  Data  Gb  LS-font_24x24.o [1]
acGUI_FontLSfont_24x24_FAAE
                        0x08052340    0x48  Data  Gb  LS-font_24x24.o [1]
acGUI_Fontcyrillic16_16x16_0020
                        0x080603bc    0x10  Data  Gb  cyrillic16_16x16.o [1]
acGUI_Fontcyrillic16_16x16_0021
                        0x080603cc     0xc  Data  Gb  cyrillic16_16x16.o [1]
acGUI_Fontcyrillic16_16x16_0022
                        0x080603d8     0x4  Data  Gb  cyrillic16_16x16.o [1]
acGUI_Fontcyrillic16_16x16_0023
                        0x080603dc    0x18  Data  Gb  cyrillic16_16x16.o [1]
acGUI_Fontcyrillic16_16x16_0024
                        0x080603f4    0x10  Data  Gb  cyrillic16_16x16.o [1]
acGUI_Fontcyrillic16_16x16_0025
                        0x08060404    0x18  Data  Gb  cyrillic16_16x16.o [1]
acGUI_Fontcyrillic16_16x16_0026
                        0x0806041c    0x18  Data  Gb  cyrillic16_16x16.o [1]
acGUI_Fontcyrillic16_16x16_0027
                        0x08060434     0x4  Data  Gb  cyrillic16_16x16.o [1]
acGUI_Fontcyrillic16_16x16_0028
                        0x08060438    0x10  Data  Gb  cyrillic16_16x16.o [1]
acGUI_Fontcyrillic16_16x16_0029
                        0x08060448    0x10  Data  Gb  cyrillic16_16x16.o [1]
acGUI_Fontcyrillic16_16x16_002A
                        0x08060458     0x8  Data  Gb  cyrillic16_16x16.o [1]
acGUI_Fontcyrillic16_16x16_002B
                        0x08060460    0x14  Data  Gb  cyrillic16_16x16.o [1]
acGUI_Fontcyrillic16_16x16_002C
                        0x08060474     0x8  Data  Gb  cyrillic16_16x16.o [1]
acGUI_Fontcyrillic16_16x16_002D
                        0x0806047c     0x1  Data  Gb  cyrillic16_16x16.o [1]
acGUI_Fontcyrillic16_16x16_002E
                        0x0806047e     0x2  Data  Gb  cyrillic16_16x16.o [1]
acGUI_Fontcyrillic16_16x16_002F
                        0x08060480    0x10  Data  Gb  cyrillic16_16x16.o [1]
acGUI_Fontcyrillic16_16x16_0030
                        0x08060490    0x18  Data  Gb  cyrillic16_16x16.o [1]
acGUI_Fontcyrillic16_16x16_0031
                        0x080604a8     0xc  Data  Gb  cyrillic16_16x16.o [1]
acGUI_Fontcyrillic16_16x16_0032
                        0x080604b4    0x18  Data  Gb  cyrillic16_16x16.o [1]
acGUI_Fontcyrillic16_16x16_0033
                        0x080604cc    0x18  Data  Gb  cyrillic16_16x16.o [1]
acGUI_Fontcyrillic16_16x16_0034
                        0x080604e4    0x18  Data  Gb  cyrillic16_16x16.o [1]
acGUI_Fontcyrillic16_16x16_0035
                        0x080604fc    0x18  Data  Gb  cyrillic16_16x16.o [1]
acGUI_Fontcyrillic16_16x16_0036
                        0x08060514    0x18  Data  Gb  cyrillic16_16x16.o [1]
acGUI_Fontcyrillic16_16x16_0037
                        0x0806052c     0xc  Data  Gb  cyrillic16_16x16.o [1]
acGUI_Fontcyrillic16_16x16_0038
                        0x08060538    0x18  Data  Gb  cyrillic16_16x16.o [1]
acGUI_Fontcyrillic16_16x16_0039
                        0x08060550    0x18  Data  Gb  cyrillic16_16x16.o [1]
acGUI_Fontcyrillic16_16x16_003A
                        0x08060568     0x8  Data  Gb  cyrillic16_16x16.o [1]
acGUI_Fontcyrillic16_16x16_003B
                        0x08060570     0xc  Data  Gb  cyrillic16_16x16.o [1]
acGUI_Fontcyrillic16_16x16_003C
                        0x0806057c    0x10  Data  Gb  cyrillic16_16x16.o [1]
acGUI_Fontcyrillic16_16x16_003D
                        0x0806058c     0x8  Data  Gb  cyrillic16_16x16.o [1]
acGUI_Fontcyrillic16_16x16_003E
                        0x08060594    0x10  Data  Gb  cyrillic16_16x16.o [1]
acGUI_Fontcyrillic16_16x16_003F
                        0x080605a4     0xc  Data  Gb  cyrillic16_16x16.o [1]
acGUI_Fontcyrillic16_16x16_0040
                        0x080605b0    0x1c  Data  Gb  cyrillic16_16x16.o [1]
acGUI_Fontcyrillic16_16x16_0041
                        0x080605cc    0x18  Data  Gb  cyrillic16_16x16.o [1]
acGUI_Fontcyrillic16_16x16_0042
                        0x080605e4    0x18  Data  Gb  cyrillic16_16x16.o [1]
acGUI_Fontcyrillic16_16x16_0043
                        0x080605fc    0x18  Data  Gb  cyrillic16_16x16.o [1]
acGUI_Fontcyrillic16_16x16_0044
                        0x08060614    0x18  Data  Gb  cyrillic16_16x16.o [1]
acGUI_Fontcyrillic16_16x16_0045
                        0x0806062c     0xc  Data  Gb  cyrillic16_16x16.o [1]
acGUI_Fontcyrillic16_16x16_0046
                        0x08060638    0x18  Data  Gb  cyrillic16_16x16.o [1]
acGUI_Fontcyrillic16_16x16_0047
                        0x08060650    0x18  Data  Gb  cyrillic16_16x16.o [1]
acGUI_Fontcyrillic16_16x16_0048
                        0x08060668    0x18  Data  Gb  cyrillic16_16x16.o [1]
acGUI_Fontcyrillic16_16x16_0049
                        0x08060680     0xc  Data  Gb  cyrillic16_16x16.o [1]
acGUI_Fontcyrillic16_16x16_004A
                        0x0806068c     0xc  Data  Gb  cyrillic16_16x16.o [1]
acGUI_Fontcyrillic16_16x16_004B
                        0x08060698    0x18  Data  Gb  cyrillic16_16x16.o [1]
acGUI_Fontcyrillic16_16x16_004C
                        0x080606b0     0xc  Data  Gb  cyrillic16_16x16.o [1]
acGUI_Fontcyrillic16_16x16_004D
                        0x080606bc    0x18  Data  Gb  cyrillic16_16x16.o [1]
acGUI_Fontcyrillic16_16x16_004E
                        0x080606d4    0x18  Data  Gb  cyrillic16_16x16.o [1]
acGUI_Fontcyrillic16_16x16_004F
                        0x080606ec    0x18  Data  Gb  cyrillic16_16x16.o [1]
acGUI_Fontcyrillic16_16x16_0050
                        0x08060704    0x18  Data  Gb  cyrillic16_16x16.o [1]
acGUI_Fontcyrillic16_16x16_0051
                        0x0806071c    0x1c  Data  Gb  cyrillic16_16x16.o [1]
acGUI_Fontcyrillic16_16x16_0052
                        0x08060738    0x18  Data  Gb  cyrillic16_16x16.o [1]
acGUI_Fontcyrillic16_16x16_0053
                        0x08060750    0x18  Data  Gb  cyrillic16_16x16.o [1]
acGUI_Fontcyrillic16_16x16_0054
                        0x08060768    0x18  Data  Gb  cyrillic16_16x16.o [1]
acGUI_Fontcyrillic16_16x16_0055
                        0x08060780    0x18  Data  Gb  cyrillic16_16x16.o [1]
acGUI_Fontcyrillic16_16x16_0056
                        0x08060798    0x18  Data  Gb  cyrillic16_16x16.o [1]
acGUI_Fontcyrillic16_16x16_0057
                        0x080607b0    0x18  Data  Gb  cyrillic16_16x16.o [1]
acGUI_Fontcyrillic16_16x16_0058
                        0x080607c8    0x18  Data  Gb  cyrillic16_16x16.o [1]
acGUI_Fontcyrillic16_16x16_0059
                        0x080607e0    0x18  Data  Gb  cyrillic16_16x16.o [1]
acGUI_Fontcyrillic16_16x16_005A
                        0x080607f8    0x18  Data  Gb  cyrillic16_16x16.o [1]
acGUI_Fontcyrillic16_16x16_005B
                        0x08060810    0x10  Data  Gb  cyrillic16_16x16.o [1]
acGUI_Fontcyrillic16_16x16_005C
                        0x08060820    0x10  Data  Gb  cyrillic16_16x16.o [1]
acGUI_Fontcyrillic16_16x16_005D
                        0x08060830    0x10  Data  Gb  cyrillic16_16x16.o [1]
acGUI_Fontcyrillic16_16x16_005E
                        0x08060840     0xc  Data  Gb  cyrillic16_16x16.o [1]
acGUI_Fontcyrillic16_16x16_005F
                        0x0806084c     0x2  Data  Gb  cyrillic16_16x16.o [1]
acGUI_Fontcyrillic16_16x16_0060
                        0x0806084e     0x2  Data  Gb  cyrillic16_16x16.o [1]
acGUI_Fontcyrillic16_16x16_0061
                        0x08060850     0x8  Data  Gb  cyrillic16_16x16.o [1]
acGUI_Fontcyrillic16_16x16_0062
                        0x08060858     0xc  Data  Gb  cyrillic16_16x16.o [1]
acGUI_Fontcyrillic16_16x16_0063
                        0x08060864     0x8  Data  Gb  cyrillic16_16x16.o [1]
acGUI_Fontcyrillic16_16x16_0064
                        0x0806086c     0xc  Data  Gb  cyrillic16_16x16.o [1]
acGUI_Fontcyrillic16_16x16_0065
                        0x08060878     0x8  Data  Gb  cyrillic16_16x16.o [1]
acGUI_Fontcyrillic16_16x16_0066
                        0x08060880     0xc  Data  Gb  cyrillic16_16x16.o [1]
acGUI_Fontcyrillic16_16x16_0067
                        0x0806088c     0xc  Data  Gb  cyrillic16_16x16.o [1]
acGUI_Fontcyrillic16_16x16_0068
                        0x08060898     0xc  Data  Gb  cyrillic16_16x16.o [1]
acGUI_Fontcyrillic16_16x16_0069
                        0x080608a4     0xc  Data  Gb  cyrillic16_16x16.o [1]
acGUI_Fontcyrillic16_16x16_006A
                        0x080608b0    0x10  Data  Gb  cyrillic16_16x16.o [1]
acGUI_Fontcyrillic16_16x16_006B
                        0x080608c0     0xc  Data  Gb  cyrillic16_16x16.o [1]
acGUI_Fontcyrillic16_16x16_006C
                        0x080608cc     0xc  Data  Gb  cyrillic16_16x16.o [1]
acGUI_Fontcyrillic16_16x16_006D
                        0x080608d8    0x10  Data  Gb  cyrillic16_16x16.o [1]
acGUI_Fontcyrillic16_16x16_006E
                        0x080608e8     0x8  Data  Gb  cyrillic16_16x16.o [1]
acGUI_Fontcyrillic16_16x16_006F
                        0x080608f0    0x10  Data  Gb  cyrillic16_16x16.o [1]
acGUI_Fontcyrillic16_16x16_0070
                        0x08060900     0xc  Data  Gb  cyrillic16_16x16.o [1]
acGUI_Fontcyrillic16_16x16_0071
                        0x0806090c     0xc  Data  Gb  cyrillic16_16x16.o [1]
acGUI_Fontcyrillic16_16x16_0072
                        0x08060918     0x8  Data  Gb  cyrillic16_16x16.o [1]
acGUI_Fontcyrillic16_16x16_0073
                        0x08060920     0x8  Data  Gb  cyrillic16_16x16.o [1]
acGUI_Fontcyrillic16_16x16_0074
                        0x08060928     0xc  Data  Gb  cyrillic16_16x16.o [1]
acGUI_Fontcyrillic16_16x16_0075
                        0x08060934     0x8  Data  Gb  cyrillic16_16x16.o [1]
acGUI_Fontcyrillic16_16x16_0076
                        0x0806093c     0x8  Data  Gb  cyrillic16_16x16.o [1]
acGUI_Fontcyrillic16_16x16_0077
                        0x08060944    0x10  Data  Gb  cyrillic16_16x16.o [1]
acGUI_Fontcyrillic16_16x16_0078
                        0x08060954     0x8  Data  Gb  cyrillic16_16x16.o [1]
acGUI_Fontcyrillic16_16x16_0079
                        0x0806095c     0xc  Data  Gb  cyrillic16_16x16.o [1]
acGUI_Fontcyrillic16_16x16_007A
                        0x08060968     0x8  Data  Gb  cyrillic16_16x16.o [1]
acGUI_Fontcyrillic16_16x16_007B
                        0x08060970    0x10  Data  Gb  cyrillic16_16x16.o [1]
acGUI_Fontcyrillic16_16x16_007C
                        0x08060980    0x10  Data  Gb  cyrillic16_16x16.o [1]
acGUI_Fontcyrillic16_16x16_007D
                        0x08060990    0x10  Data  Gb  cyrillic16_16x16.o [1]
acGUI_Fontcyrillic16_16x16_007E
                        0x080609a0     0x8  Data  Gb  cyrillic16_16x16.o [1]
acGUI_Fontcyrillic16_16x16_00A8
                        0x080609a8     0x2  Data  Gb  cyrillic16_16x16.o [1]
acGUI_Fontcyrillic16_16x16_00AA
                        0x080609ac     0x8  Data  Gb  cyrillic16_16x16.o [1]
acGUI_Fontcyrillic16_16x16_00AD
                        0x080609b4     0x1  Data  Gb  cyrillic16_16x16.o [1]
acGUI_Fontcyrillic16_16x16_00AE
                        0x080609b8    0x18  Data  Gb  cyrillic16_16x16.o [1]
acGUI_Fontcyrillic16_16x16_00B0
                        0x080609d0     0x8  Data  Gb  cyrillic16_16x16.o [1]
acGUI_Fontcyrillic16_16x16_00B1
                        0x080609d8    0x14  Data  Gb  cyrillic16_16x16.o [1]
acGUI_Fontcyrillic16_16x16_00B7
                        0x080609ec     0x2  Data  Gb  cyrillic16_16x16.o [1]
acGUI_Fontcyrillic16_16x16_00BA
                        0x080609f0     0x8  Data  Gb  cyrillic16_16x16.o [1]
acGUI_Fontcyrillic16_16x16_00BC
                        0x080609f8    0x18  Data  Gb  cyrillic16_16x16.o [1]
acGUI_Fontcyrillic16_16x16_00BD
                        0x08060a10    0x18  Data  Gb  cyrillic16_16x16.o [1]
acGUI_Fontcyrillic16_16x16_00BE
                        0x08060a28    0x18  Data  Gb  cyrillic16_16x16.o [1]
acGUI_Fontcyrillic16_16x16_00C6
                        0x08060a40    0x18  Data  Gb  cyrillic16_16x16.o [1]
acGUI_Fontcyrillic16_16x16_00D0
                        0x08060a58    0x18  Data  Gb  cyrillic16_16x16.o [1]
acGUI_Fontcyrillic16_16x16_00D7
                        0x08060a70     0x8  Data  Gb  cyrillic16_16x16.o [1]
acGUI_Fontcyrillic16_16x16_00D8
                        0x08060a78    0x1c  Data  Gb  cyrillic16_16x16.o [1]
acGUI_Fontcyrillic16_16x16_00DE
                        0x08060a94     0xc  Data  Gb  cyrillic16_16x16.o [1]
acGUI_Fontcyrillic16_16x16_00F7
                        0x08060aa0    0x14  Data  Gb  cyrillic16_16x16.o [1]
acGUI_Fontcyrillic16_16x16_0126
                        0x08060ab4    0x18  Data  Gb  cyrillic16_16x16.o [1]
acGUI_Fontcyrillic16_16x16_0132
                        0x08060acc    0x18  Data  Gb  cyrillic16_16x16.o [1]
acGUI_Fontcyrillic16_16x16_013F
                        0x08060ae4     0xc  Data  Gb  cyrillic16_16x16.o [1]
acGUI_Fontcyrillic16_16x16_0141
                        0x08060af0    0x18  Data  Gb  cyrillic16_16x16.o [1]
acGUI_Fontcyrillic16_16x16_014A
                        0x08060b08    0x1c  Data  Gb  cyrillic16_16x16.o [1]
acGUI_Fontcyrillic16_16x16_0152
                        0x08060b24    0x18  Data  Gb  cyrillic16_16x16.o [1]
acGUI_Fontcyrillic16_16x16_0166
                        0x08060b3c    0x18  Data  Gb  cyrillic16_16x16.o [1]
acGUI_Fontcyrillic16_16x16_0400
                        0x08060b54    0x10  Data  Gb  cyrillic16_16x16.o [1]
acGUI_Fontcyrillic16_16x16_0401
                        0x08060b64    0x10  Data  Gb  cyrillic16_16x16.o [1]
acGUI_Fontcyrillic16_16x16_0402
                        0x08060b74    0x18  Data  Gb  cyrillic16_16x16.o [1]
acGUI_Fontcyrillic16_16x16_0403
                        0x08060b8c    0x1c  Data  Gb  cyrillic16_16x16.o [1]
acGUI_Fontcyrillic16_16x16_0404
                        0x08060ba8    0x18  Data  Gb  cyrillic16_16x16.o [1]
acGUI_Fontcyrillic16_16x16_0405
                        0x08060bc0    0x18  Data  Gb  cyrillic16_16x16.o [1]
acGUI_Fontcyrillic16_16x16_0406
                        0x08060bd8     0xc  Data  Gb  cyrillic16_16x16.o [1]
acGUI_Fontcyrillic16_16x16_0407
                        0x08060be4    0x10  Data  Gb  cyrillic16_16x16.o [1]
acGUI_Fontcyrillic16_16x16_0408
                        0x08060bf4     0xc  Data  Gb  cyrillic16_16x16.o [1]
acGUI_Fontcyrillic16_16x16_0409
                        0x08060c00    0x18  Data  Gb  cyrillic16_16x16.o [1]
acGUI_Fontcyrillic16_16x16_040A
                        0x08060c18    0x18  Data  Gb  cyrillic16_16x16.o [1]
acGUI_Fontcyrillic16_16x16_040B
                        0x08060c30    0x18  Data  Gb  cyrillic16_16x16.o [1]
acGUI_Fontcyrillic16_16x16_040C
                        0x08060c48    0x1c  Data  Gb  cyrillic16_16x16.o [1]
acGUI_Fontcyrillic16_16x16_040D
                        0x08060c64    0x1c  Data  Gb  cyrillic16_16x16.o [1]
acGUI_Fontcyrillic16_16x16_040E
                        0x08060c80    0x1c  Data  Gb  cyrillic16_16x16.o [1]
acGUI_Fontcyrillic16_16x16_040F
                        0x08060c9c    0x1c  Data  Gb  cyrillic16_16x16.o [1]
acGUI_Fontcyrillic16_16x16_0410
                        0x08060cb8    0x18  Data  Gb  cyrillic16_16x16.o [1]
acGUI_Fontcyrillic16_16x16_0411
                        0x08060cd0    0x18  Data  Gb  cyrillic16_16x16.o [1]
acGUI_Fontcyrillic16_16x16_0412
                        0x08060ce8    0x18  Data  Gb  cyrillic16_16x16.o [1]
acGUI_Fontcyrillic16_16x16_0413
                        0x08060d00    0x18  Data  Gb  cyrillic16_16x16.o [1]
acGUI_Fontcyrillic16_16x16_0414
                        0x08060d18    0x1c  Data  Gb  cyrillic16_16x16.o [1]
acGUI_Fontcyrillic16_16x16_0415
                        0x08060d34     0xc  Data  Gb  cyrillic16_16x16.o [1]
acGUI_Fontcyrillic16_16x16_0416
                        0x08060d40    0x18  Data  Gb  cyrillic16_16x16.o [1]
acGUI_Fontcyrillic16_16x16_0417
                        0x08060d58     0xc  Data  Gb  cyrillic16_16x16.o [1]
acGUI_Fontcyrillic16_16x16_0418
                        0x08060d64    0x18  Data  Gb  cyrillic16_16x16.o [1]
acGUI_Fontcyrillic16_16x16_0419
                        0x08060d7c    0x1c  Data  Gb  cyrillic16_16x16.o [1]
acGUI_Fontcyrillic16_16x16_041A
                        0x08060d98    0x18  Data  Gb  cyrillic16_16x16.o [1]
acGUI_Fontcyrillic16_16x16_041B
                        0x08060db0    0x18  Data  Gb  cyrillic16_16x16.o [1]
acGUI_Fontcyrillic16_16x16_041C
                        0x08060dc8    0x18  Data  Gb  cyrillic16_16x16.o [1]
acGUI_Fontcyrillic16_16x16_041D
                        0x08060de0    0x18  Data  Gb  cyrillic16_16x16.o [1]
acGUI_Fontcyrillic16_16x16_041E
                        0x08060df8    0x18  Data  Gb  cyrillic16_16x16.o [1]
acGUI_Fontcyrillic16_16x16_041F
                        0x08060e10    0x18  Data  Gb  cyrillic16_16x16.o [1]
acGUI_Fontcyrillic16_16x16_0420
                        0x08060e28    0x18  Data  Gb  cyrillic16_16x16.o [1]
acGUI_Fontcyrillic16_16x16_0421
                        0x08060e40    0x18  Data  Gb  cyrillic16_16x16.o [1]
acGUI_Fontcyrillic16_16x16_0422
                        0x08060e58    0x18  Data  Gb  cyrillic16_16x16.o [1]
acGUI_Fontcyrillic16_16x16_0423
                        0x08060e70    0x18  Data  Gb  cyrillic16_16x16.o [1]
acGUI_Fontcyrillic16_16x16_0424
                        0x08060e88    0x18  Data  Gb  cyrillic16_16x16.o [1]
acGUI_Fontcyrillic16_16x16_0425
                        0x08060ea0    0x18  Data  Gb  cyrillic16_16x16.o [1]
acGUI_Fontcyrillic16_16x16_0426
                        0x08060eb8    0x1c  Data  Gb  cyrillic16_16x16.o [1]
acGUI_Fontcyrillic16_16x16_0427
                        0x08060ed4    0x18  Data  Gb  cyrillic16_16x16.o [1]
acGUI_Fontcyrillic16_16x16_0428
                        0x08060eec    0x18  Data  Gb  cyrillic16_16x16.o [1]
acGUI_Fontcyrillic16_16x16_0429
                        0x08060f04    0x1c  Data  Gb  cyrillic16_16x16.o [1]
acGUI_Fontcyrillic16_16x16_042A
                        0x08060f20    0x18  Data  Gb  cyrillic16_16x16.o [1]
acGUI_Fontcyrillic16_16x16_042B
                        0x08060f38    0x18  Data  Gb  cyrillic16_16x16.o [1]
acGUI_Fontcyrillic16_16x16_042C
                        0x08060f50    0x18  Data  Gb  cyrillic16_16x16.o [1]
acGUI_Fontcyrillic16_16x16_042D
                        0x08060f68    0x18  Data  Gb  cyrillic16_16x16.o [1]
acGUI_Fontcyrillic16_16x16_042E
                        0x08060f80    0x18  Data  Gb  cyrillic16_16x16.o [1]
acGUI_Fontcyrillic16_16x16_042F
                        0x08060f98    0x18  Data  Gb  cyrillic16_16x16.o [1]
acGUI_Fontcyrillic16_16x16_0430
                        0x08060fb0     0x8  Data  Gb  cyrillic16_16x16.o [1]
acGUI_Fontcyrillic16_16x16_0431
                        0x08060fb8     0xc  Data  Gb  cyrillic16_16x16.o [1]
acGUI_Fontcyrillic16_16x16_0432
                        0x08060fc4     0x8  Data  Gb  cyrillic16_16x16.o [1]
acGUI_Fontcyrillic16_16x16_0433
                        0x08060fcc     0x8  Data  Gb  cyrillic16_16x16.o [1]
acGUI_Fontcyrillic16_16x16_0434
                        0x08060fd4    0x14  Data  Gb  cyrillic16_16x16.o [1]
acGUI_Fontcyrillic16_16x16_0435
                        0x08060fe8     0x8  Data  Gb  cyrillic16_16x16.o [1]
acGUI_Fontcyrillic16_16x16_0436
                        0x08060ff0    0x10  Data  Gb  cyrillic16_16x16.o [1]
acGUI_Fontcyrillic16_16x16_0437
                        0x08061000     0x8  Data  Gb  cyrillic16_16x16.o [1]
acGUI_Fontcyrillic16_16x16_0438
                        0x08061008     0x8  Data  Gb  cyrillic16_16x16.o [1]
acGUI_Fontcyrillic16_16x16_0439
                        0x08061010     0xc  Data  Gb  cyrillic16_16x16.o [1]
acGUI_Fontcyrillic16_16x16_043A
                        0x0806101c     0x8  Data  Gb  cyrillic16_16x16.o [1]
acGUI_Fontcyrillic16_16x16_043B
                        0x08061024    0x10  Data  Gb  cyrillic16_16x16.o [1]
acGUI_Fontcyrillic16_16x16_043C
                        0x08061034    0x10  Data  Gb  cyrillic16_16x16.o [1]
acGUI_Fontcyrillic16_16x16_043D
                        0x08061044     0x8  Data  Gb  cyrillic16_16x16.o [1]
acGUI_Fontcyrillic16_16x16_043E
                        0x0806104c    0x10  Data  Gb  cyrillic16_16x16.o [1]
acGUI_Fontcyrillic16_16x16_043F
                        0x0806105c     0x8  Data  Gb  cyrillic16_16x16.o [1]
acGUI_Fontcyrillic16_16x16_0440
                        0x08061064     0xc  Data  Gb  cyrillic16_16x16.o [1]
acGUI_Fontcyrillic16_16x16_0441
                        0x08061070     0x8  Data  Gb  cyrillic16_16x16.o [1]
acGUI_Fontcyrillic16_16x16_0442
                        0x08061078     0x8  Data  Gb  cyrillic16_16x16.o [1]
acGUI_Fontcyrillic16_16x16_0443
                        0x08061080     0xc  Data  Gb  cyrillic16_16x16.o [1]
acGUI_Fontcyrillic16_16x16_0444
                        0x0806108c    0x20  Data  Gb  cyrillic16_16x16.o [1]
acGUI_Fontcyrillic16_16x16_0445
                        0x080610ac     0x8  Data  Gb  cyrillic16_16x16.o [1]
acGUI_Fontcyrillic16_16x16_0446
                        0x080610b4    0x14  Data  Gb  cyrillic16_16x16.o [1]
acGUI_Fontcyrillic16_16x16_0447
                        0x080610c8     0x8  Data  Gb  cyrillic16_16x16.o [1]
acGUI_Fontcyrillic16_16x16_0448
                        0x080610d0    0x10  Data  Gb  cyrillic16_16x16.o [1]
acGUI_Fontcyrillic16_16x16_0449
                        0x080610e0    0x14  Data  Gb  cyrillic16_16x16.o [1]
acGUI_Fontcyrillic16_16x16_044A
                        0x080610f4    0x10  Data  Gb  cyrillic16_16x16.o [1]
acGUI_Fontcyrillic16_16x16_044B
                        0x08061104    0x10  Data  Gb  cyrillic16_16x16.o [1]
acGUI_Fontcyrillic16_16x16_044C
                        0x08061114     0x8  Data  Gb  cyrillic16_16x16.o [1]
acGUI_Fontcyrillic16_16x16_044D
                        0x0806111c     0x8  Data  Gb  cyrillic16_16x16.o [1]
acGUI_Fontcyrillic16_16x16_044E
                        0x08061124    0x10  Data  Gb  cyrillic16_16x16.o [1]
acGUI_Fontcyrillic16_16x16_044F
                        0x08061134     0x8  Data  Gb  cyrillic16_16x16.o [1]
acGUI_Fontcyrillic16_16x16_0450
                        0x0806113c     0xc  Data  Gb  cyrillic16_16x16.o [1]
acGUI_Fontcyrillic16_16x16_0451
                        0x08061148     0xc  Data  Gb  cyrillic16_16x16.o [1]
acGUI_Fontcyrillic16_16x16_0452
                        0x08061154    0x20  Data  Gb  cyrillic16_16x16.o [1]
acGUI_Fontcyrillic16_16x16_0453
                        0x08061174     0xc  Data  Gb  cyrillic16_16x16.o [1]
acGUI_Fontcyrillic16_16x16_0454
                        0x08061180     0x8  Data  Gb  cyrillic16_16x16.o [1]
acGUI_Fontcyrillic16_16x16_0455
                        0x08061188     0x8  Data  Gb  cyrillic16_16x16.o [1]
acGUI_Fontcyrillic16_16x16_0456
                        0x08061190     0xc  Data  Gb  cyrillic16_16x16.o [1]
acGUI_Fontcyrillic16_16x16_0457
                        0x0806119c     0xc  Data  Gb  cyrillic16_16x16.o [1]
acGUI_Fontcyrillic16_16x16_0458
                        0x080611a8    0x10  Data  Gb  cyrillic16_16x16.o [1]
acGUI_Fontcyrillic16_16x16_0459
                        0x080611b8    0x10  Data  Gb  cyrillic16_16x16.o [1]
acGUI_Fontcyrillic16_16x16_045A
                        0x080611c8    0x10  Data  Gb  cyrillic16_16x16.o [1]
acGUI_Fontcyrillic16_16x16_045B
                        0x080611d8    0x18  Data  Gb  cyrillic16_16x16.o [1]
acGUI_Fontcyrillic16_16x16_045C
                        0x080611f0     0xc  Data  Gb  cyrillic16_16x16.o [1]
acGUI_Fontcyrillic16_16x16_045D
                        0x080611fc     0xc  Data  Gb  cyrillic16_16x16.o [1]
acGUI_Fontcyrillic16_16x16_045E
                        0x08061208    0x10  Data  Gb  cyrillic16_16x16.o [1]
acGUI_Fontcyrillic16_16x16_045F
                        0x08061218     0xc  Data  Gb  cyrillic16_16x16.o [1]
acGUI_Fontcyrillic16_16x16_0490
                        0x08061224    0x1c  Data  Gb  cyrillic16_16x16.o [1]
acGUI_Fontcyrillic16_16x16_0491
                        0x08061240     0xc  Data  Gb  cyrillic16_16x16.o [1]
acGUI_Fontcyrillic16_16x16_2015
                        0x0806124c     0x2  Data  Gb  cyrillic16_16x16.o [1]
acGUI_Fontcyrillic16_16x16_2018
                        0x08061250     0x4  Data  Gb  cyrillic16_16x16.o [1]
acGUI_Fontcyrillic16_16x16_2019
                        0x08061254     0x4  Data  Gb  cyrillic16_16x16.o [1]
acGUI_Fontcyrillic16_16x16_201C
                        0x08061258     0x4  Data  Gb  cyrillic16_16x16.o [1]
acGUI_Fontcyrillic16_16x16_201D
                        0x0806125c     0x4  Data  Gb  cyrillic16_16x16.o [1]
acGUI_Fontcyrillic16_16x16_2025
                        0x08061260     0x4  Data  Gb  cyrillic16_16x16.o [1]
acGUI_Fontcyrillic16_16x16_2026
                        0x08061264     0x4  Data  Gb  cyrillic16_16x16.o [1]
acGUI_Fontcyrillic16_16x16_2030
                        0x08061268    0x1c  Data  Gb  cyrillic16_16x16.o [1]
acGUI_Fontcyrillic16_16x16_2032
                        0x08061284     0x4  Data  Gb  cyrillic16_16x16.o [1]
acGUI_Fontcyrillic16_16x16_2033
                        0x08061288     0x4  Data  Gb  cyrillic16_16x16.o [1]
acGUI_Fontcyrillic16_16x16_20AC
                        0x0806128c    0x18  Data  Gb  cyrillic16_16x16.o [1]
acGUI_Fontcyrillic16_16x16_2103
                        0x080612a4    0x1c  Data  Gb  cyrillic16_16x16.o [1]
acGUI_Fontcyrillic16_16x16_2109
                        0x080612c0    0x18  Data  Gb  cyrillic16_16x16.o [1]
acGUI_Fontcyrillic16_16x16_2113
                        0x080612d8     0xc  Data  Gb  cyrillic16_16x16.o [1]
acGUI_Fontcyrillic16_16x16_2116
                        0x080612e4    0x1c  Data  Gb  cyrillic16_16x16.o [1]
acGUI_Fontcyrillic16_16x16_2121
                        0x08061300    0x1c  Data  Gb  cyrillic16_16x16.o [1]
acGUI_Fontcyrillic16_16x16_2122
                        0x0806131c    0x10  Data  Gb  cyrillic16_16x16.o [1]
acGUI_Fontcyrillic16_16x16_2126
                        0x0806132c    0x18  Data  Gb  cyrillic16_16x16.o [1]
acGUI_Fontcyrillic16_16x16_212B
                        0x08061344    0x1c  Data  Gb  cyrillic16_16x16.o [1]
acGUI_Fontcyrillic16_16x16_2153
                        0x08061360    0x1c  Data  Gb  cyrillic16_16x16.o [1]
acGUI_Fontcyrillic16_16x16_2154
                        0x0806137c    0x1c  Data  Gb  cyrillic16_16x16.o [1]
acGUI_Fontcyrillic16_16x16_215B
                        0x08061398    0x1c  Data  Gb  cyrillic16_16x16.o [1]
acGUI_Fontcyrillic16_16x16_215C
                        0x080613b4    0x1c  Data  Gb  cyrillic16_16x16.o [1]
acGUI_Fontcyrillic16_16x16_215D
                        0x080613d0    0x1c  Data  Gb  cyrillic16_16x16.o [1]
acGUI_Fontcyrillic16_16x16_215E
                        0x080613ec    0x1c  Data  Gb  cyrillic16_16x16.o [1]
acGUI_Fontcyrillic16_16x16_2160
                        0x08061408    0x10  Data  Gb  cyrillic16_16x16.o [1]
acGUI_Fontcyrillic16_16x16_2161
                        0x08061418    0x1c  Data  Gb  cyrillic16_16x16.o [1]
acGUI_Fontcyrillic16_16x16_2162
                        0x08061434    0x1c  Data  Gb  cyrillic16_16x16.o [1]
acGUI_Fontcyrillic16_16x16_2163
                        0x08061450    0x1c  Data  Gb  cyrillic16_16x16.o [1]
acGUI_Fontcyrillic16_16x16_2164
                        0x0806146c    0x1c  Data  Gb  cyrillic16_16x16.o [1]
acGUI_Fontcyrillic16_16x16_2165
                        0x08061488    0x1c  Data  Gb  cyrillic16_16x16.o [1]
acGUI_Fontcyrillic16_16x16_2166
                        0x080614a4    0x1c  Data  Gb  cyrillic16_16x16.o [1]
acGUI_Fontcyrillic16_16x16_2167
                        0x080614c0    0x1c  Data  Gb  cyrillic16_16x16.o [1]
acGUI_Fontcyrillic16_16x16_2168
                        0x080614dc    0x1c  Data  Gb  cyrillic16_16x16.o [1]
acGUI_Fontcyrillic16_16x16_2169
                        0x080614f8    0x1c  Data  Gb  cyrillic16_16x16.o [1]
acGUI_Fontcyrillic16_16x16_2170
                        0x08061514    0x10  Data  Gb  cyrillic16_16x16.o [1]
acGUI_Fontcyrillic16_16x16_2171
                        0x08061524    0x10  Data  Gb  cyrillic16_16x16.o [1]
acGUI_Fontcyrillic16_16x16_2172
                        0x08061534    0x1c  Data  Gb  cyrillic16_16x16.o [1]
acGUI_Fontcyrillic16_16x16_2173
                        0x08061550    0x1c  Data  Gb  cyrillic16_16x16.o [1]
acGUI_Fontcyrillic16_16x16_2174
                        0x0806156c    0x14  Data  Gb  cyrillic16_16x16.o [1]
acGUI_Fontcyrillic16_16x16_2175
                        0x08061580    0x1c  Data  Gb  cyrillic16_16x16.o [1]
acGUI_Fontcyrillic16_16x16_2176
                        0x0806159c    0x1c  Data  Gb  cyrillic16_16x16.o [1]
acGUI_Fontcyrillic16_16x16_2177
                        0x080615b8    0x1c  Data  Gb  cyrillic16_16x16.o [1]
acGUI_Fontcyrillic16_16x16_2178
                        0x080615d4    0x1c  Data  Gb  cyrillic16_16x16.o [1]
acGUI_Fontcyrillic16_16x16_2179
                        0x080615f0    0x14  Data  Gb  cyrillic16_16x16.o [1]
acGUI_Fontcyrillic16_16x16_2190
                        0x08061604    0x10  Data  Gb  cyrillic16_16x16.o [1]
acGUI_Fontcyrillic16_16x16_2191
                        0x08061614    0x10  Data  Gb  cyrillic16_16x16.o [1]
acGUI_Fontcyrillic16_16x16_2192
                        0x08061624    0x10  Data  Gb  cyrillic16_16x16.o [1]
acGUI_Fontcyrillic16_16x16_2193
                        0x08061634    0x10  Data  Gb  cyrillic16_16x16.o [1]
acGUI_Fontcyrillic16_16x16_2194
                        0x08061644    0x10  Data  Gb  cyrillic16_16x16.o [1]
acGUI_Fontcyrillic16_16x16_2195
                        0x08061654    0x10  Data  Gb  cyrillic16_16x16.o [1]
acGUI_Fontcyrillic16_16x16_2196
                        0x08061664    0x18  Data  Gb  cyrillic16_16x16.o [1]
acGUI_Fontcyrillic16_16x16_2197
                        0x0806167c    0x18  Data  Gb  cyrillic16_16x16.o [1]
acGUI_Fontcyrillic16_16x16_2198
                        0x08061694    0x18  Data  Gb  cyrillic16_16x16.o [1]
acGUI_Fontcyrillic16_16x16_2199
                        0x080616ac    0x18  Data  Gb  cyrillic16_16x16.o [1]
acGUI_Fontcyrillic16_16x16_21D2
                        0x080616c4    0x14  Data  Gb  cyrillic16_16x16.o [1]
acGUI_Fontcyrillic16_16x16_21D4
                        0x080616d8    0x14  Data  Gb  cyrillic16_16x16.o [1]
acGUI_Fontcyrillic16_16x16_2200
                        0x080616ec    0x1c  Data  Gb  cyrillic16_16x16.o [1]
acGUI_Fontcyrillic16_16x16_2202
                        0x08061708    0x10  Data  Gb  cyrillic16_16x16.o [1]
acGUI_Fontcyrillic16_16x16_2203
                        0x08061718    0x1c  Data  Gb  cyrillic16_16x16.o [1]
acGUI_Fontcyrillic16_16x16_2207
                        0x08061734    0x18  Data  Gb  cyrillic16_16x16.o [1]
acGUI_Fontcyrillic16_16x16_2208
                        0x0806174c    0x14  Data  Gb  cyrillic16_16x16.o [1]
acGUI_Fontcyrillic16_16x16_220B
                        0x08061760    0x14  Data  Gb  cyrillic16_16x16.o [1]
acGUI_Fontcyrillic16_16x16_220F
                        0x08061774    0x18  Data  Gb  cyrillic16_16x16.o [1]
acGUI_Fontcyrillic16_16x16_2211
                        0x0806178c    0x18  Data  Gb  cyrillic16_16x16.o [1]
acGUI_Fontcyrillic16_16x16_221A
                        0x080617a4    0x20  Data  Gb  cyrillic16_16x16.o [1]
acGUI_Fontcyrillic16_16x16_221D
                        0x080617c4    0x10  Data  Gb  cyrillic16_16x16.o [1]
acGUI_Fontcyrillic16_16x16_221E
                        0x080617d4    0x10  Data  Gb  cyrillic16_16x16.o [1]
acGUI_Fontcyrillic16_16x16_2220
                        0x080617e4    0x18  Data  Gb  cyrillic16_16x16.o [1]
acGUI_Fontcyrillic16_16x16_2225
                        0x080617fc    0x10  Data  Gb  cyrillic16_16x16.o [1]
acGUI_Fontcyrillic16_16x16_2227
                        0x0806180c    0x1c  Data  Gb  cyrillic16_16x16.o [1]
acGUI_Fontcyrillic16_16x16_2228
                        0x08061828    0x1c  Data  Gb  cyrillic16_16x16.o [1]
acGUI_Fontcyrillic16_16x16_2229
                        0x08061844    0x18  Data  Gb  cyrillic16_16x16.o [1]
acGUI_Fontcyrillic16_16x16_222A
                        0x0806185c    0x18  Data  Gb  cyrillic16_16x16.o [1]
acGUI_Fontcyrillic16_16x16_222B
                        0x08061874    0x10  Data  Gb  cyrillic16_16x16.o [1]
acGUI_Fontcyrillic16_16x16_222C
                        0x08061884    0x20  Data  Gb  cyrillic16_16x16.o [1]
acGUI_Fontcyrillic16_16x16_222E
                        0x080618a4    0x10  Data  Gb  cyrillic16_16x16.o [1]
acGUI_Fontcyrillic16_16x16_2234
                        0x080618b4    0x14  Data  Gb  cyrillic16_16x16.o [1]
acGUI_Fontcyrillic16_16x16_2235
                        0x080618c8    0x14  Data  Gb  cyrillic16_16x16.o [1]
acGUI_Fontcyrillic16_16x16_223C
                        0x080618dc     0x8  Data  Gb  cyrillic16_16x16.o [1]
acGUI_Fontcyrillic16_16x16_223D
                        0x080618e4    0x10  Data  Gb  cyrillic16_16x16.o [1]
acGUI_Fontcyrillic16_16x16_2252
                        0x080618f4    0x18  Data  Gb  cyrillic16_16x16.o [1]
acGUI_Fontcyrillic16_16x16_2260
                        0x0806190c    0x14  Data  Gb  cyrillic16_16x16.o [1]
acGUI_Fontcyrillic16_16x16_2261
                        0x08061920    0x10  Data  Gb  cyrillic16_16x16.o [1]
acGUI_Fontcyrillic16_16x16_2264
                        0x08061930    0x18  Data  Gb  cyrillic16_16x16.o [1]
acGUI_Fontcyrillic16_16x16_2265
                        0x08061948    0x18  Data  Gb  cyrillic16_16x16.o [1]
acGUI_Fontcyrillic16_16x16_226A
                        0x08061960    0x18  Data  Gb  cyrillic16_16x16.o [1]
acGUI_Fontcyrillic16_16x16_226B
                        0x08061978    0x18  Data  Gb  cyrillic16_16x16.o [1]
acGUI_Fontcyrillic16_16x16_2282
                        0x08061990    0x14  Data  Gb  cyrillic16_16x16.o [1]
acGUI_Fontcyrillic16_16x16_2283
                        0x080619a4    0x14  Data  Gb  cyrillic16_16x16.o [1]
acGUI_Fontcyrillic16_16x16_2286
                        0x080619b8    0x18  Data  Gb  cyrillic16_16x16.o [1]
acGUI_Fontcyrillic16_16x16_2287
                        0x080619d0    0x18  Data  Gb  cyrillic16_16x16.o [1]
acGUI_Fontcyrillic16_16x16_2299
                        0x080619e8    0x1c  Data  Gb  cyrillic16_16x16.o [1]
acGUI_Fontcyrillic16_16x16_22A5
                        0x08061a04    0x18  Data  Gb  cyrillic16_16x16.o [1]
acGUI_Fontcyrillic16_16x16_2460
                        0x08061a1c    0x20  Data  Gb  cyrillic16_16x16.o [1]
acGUI_Fontcyrillic16_16x16_2461
                        0x08061a3c    0x20  Data  Gb  cyrillic16_16x16.o [1]
acGUI_Fontcyrillic16_16x16_2462
                        0x08061a5c    0x20  Data  Gb  cyrillic16_16x16.o [1]
acGUI_Fontcyrillic16_16x16_2463
                        0x08061a7c    0x20  Data  Gb  cyrillic16_16x16.o [1]
acGUI_Fontcyrillic16_16x16_2464
                        0x08061a9c    0x20  Data  Gb  cyrillic16_16x16.o [1]
acGUI_Fontcyrillic16_16x16_2465
                        0x08061abc    0x20  Data  Gb  cyrillic16_16x16.o [1]
acGUI_Fontcyrillic16_16x16_2466
                        0x08061adc    0x20  Data  Gb  cyrillic16_16x16.o [1]
acGUI_Fontcyrillic16_16x16_2467
                        0x08061afc    0x20  Data  Gb  cyrillic16_16x16.o [1]
acGUI_Fontcyrillic16_16x16_2468
                        0x08061b1c    0x20  Data  Gb  cyrillic16_16x16.o [1]
acGUI_Fontcyrillic16_16x16_2469
                        0x08061b3c    0x20  Data  Gb  cyrillic16_16x16.o [1]
acGUI_Fontcyrillic16_16x16_246A
                        0x08061b5c    0x20  Data  Gb  cyrillic16_16x16.o [1]
acGUI_Fontcyrillic16_16x16_246B
                        0x08061b7c    0x20  Data  Gb  cyrillic16_16x16.o [1]
acGUI_Fontcyrillic16_16x16_246C
                        0x08061b9c    0x20  Data  Gb  cyrillic16_16x16.o [1]
acGUI_Fontcyrillic16_16x16_246D
                        0x08061bbc    0x20  Data  Gb  cyrillic16_16x16.o [1]
acGUI_Fontcyrillic16_16x16_246E
                        0x08061bdc    0x20  Data  Gb  cyrillic16_16x16.o [1]
acGUI_Fontcyrillic16_16x16_2474
                        0x08061bfc    0x1c  Data  Gb  cyrillic16_16x16.o [1]
acGUI_Fontcyrillic16_16x16_2475
                        0x08061c18    0x1c  Data  Gb  cyrillic16_16x16.o [1]
acGUI_Fontcyrillic16_16x16_2476
                        0x08061c34    0x1c  Data  Gb  cyrillic16_16x16.o [1]
acGUI_Fontcyrillic16_16x16_2477
                        0x08061c50    0x1c  Data  Gb  cyrillic16_16x16.o [1]
acGUI_Fontcyrillic16_16x16_2478
                        0x08061c6c    0x1c  Data  Gb  cyrillic16_16x16.o [1]
acGUI_Fontcyrillic16_16x16_2479
                        0x08061c88    0x1c  Data  Gb  cyrillic16_16x16.o [1]
acGUI_Fontcyrillic16_16x16_247A
                        0x08061ca4    0x1c  Data  Gb  cyrillic16_16x16.o [1]
acGUI_Fontcyrillic16_16x16_247B
                        0x08061cc0    0x1c  Data  Gb  cyrillic16_16x16.o [1]
acGUI_Fontcyrillic16_16x16_247C
                        0x08061cdc    0x1c  Data  Gb  cyrillic16_16x16.o [1]
acGUI_Fontcyrillic16_16x16_247D
                        0x08061cf8    0x1c  Data  Gb  cyrillic16_16x16.o [1]
acGUI_Fontcyrillic16_16x16_247E
                        0x08061d14    0x1c  Data  Gb  cyrillic16_16x16.o [1]
acGUI_Fontcyrillic16_16x16_247F
                        0x08061d30    0x1c  Data  Gb  cyrillic16_16x16.o [1]
acGUI_Fontcyrillic16_16x16_2480
                        0x08061d4c    0x1c  Data  Gb  cyrillic16_16x16.o [1]
acGUI_Fontcyrillic16_16x16_2481
                        0x08061d68    0x1c  Data  Gb  cyrillic16_16x16.o [1]
acGUI_Fontcyrillic16_16x16_2482
                        0x08061d84    0x1c  Data  Gb  cyrillic16_16x16.o [1]
acGUI_Fontcyrillic16_16x16_249C
                        0x08061da0    0x1c  Data  Gb  cyrillic16_16x16.o [1]
acGUI_Fontcyrillic16_16x16_249D
                        0x08061dbc    0x1c  Data  Gb  cyrillic16_16x16.o [1]
acGUI_Fontcyrillic16_16x16_249E
                        0x08061dd8    0x1c  Data  Gb  cyrillic16_16x16.o [1]
acGUI_Fontcyrillic16_16x16_249F
                        0x08061df4    0x1c  Data  Gb  cyrillic16_16x16.o [1]
acGUI_Fontcyrillic16_16x16_24A0
                        0x08061e10    0x1c  Data  Gb  cyrillic16_16x16.o [1]
acGUI_Fontcyrillic16_16x16_24A1
                        0x08061e2c    0x1c  Data  Gb  cyrillic16_16x16.o [1]
acGUI_Fontcyrillic16_16x16_24A2
                        0x08061e48    0x1c  Data  Gb  cyrillic16_16x16.o [1]
acGUI_Fontcyrillic16_16x16_24A3
                        0x08061e64    0x1c  Data  Gb  cyrillic16_16x16.o [1]
acGUI_Fontcyrillic16_16x16_24A4
                        0x08061e80    0x1c  Data  Gb  cyrillic16_16x16.o [1]
acGUI_Fontcyrillic16_16x16_24A5
                        0x08061e9c    0x1c  Data  Gb  cyrillic16_16x16.o [1]
acGUI_Fontcyrillic16_16x16_24A6
                        0x08061eb8    0x1c  Data  Gb  cyrillic16_16x16.o [1]
acGUI_Fontcyrillic16_16x16_24A7
                        0x08061ed4    0x1c  Data  Gb  cyrillic16_16x16.o [1]
acGUI_Fontcyrillic16_16x16_24A8
                        0x08061ef0    0x1c  Data  Gb  cyrillic16_16x16.o [1]
acGUI_Fontcyrillic16_16x16_24A9
                        0x08061f0c    0x1c  Data  Gb  cyrillic16_16x16.o [1]
acGUI_Fontcyrillic16_16x16_24AA
                        0x08061f28    0x1c  Data  Gb  cyrillic16_16x16.o [1]
acGUI_Fontcyrillic16_16x16_24AB
                        0x08061f44    0x1c  Data  Gb  cyrillic16_16x16.o [1]
acGUI_Fontcyrillic16_16x16_24AC
                        0x08061f60    0x1c  Data  Gb  cyrillic16_16x16.o [1]
acGUI_Fontcyrillic16_16x16_24AD
                        0x08061f7c    0x1c  Data  Gb  cyrillic16_16x16.o [1]
acGUI_Fontcyrillic16_16x16_24AE
                        0x08061f98    0x1c  Data  Gb  cyrillic16_16x16.o [1]
acGUI_Fontcyrillic16_16x16_24AF
                        0x08061fb4    0x1c  Data  Gb  cyrillic16_16x16.o [1]
acGUI_Fontcyrillic16_16x16_24B0
                        0x08061fd0    0x1c  Data  Gb  cyrillic16_16x16.o [1]
acGUI_Fontcyrillic16_16x16_24B1
                        0x08061fec    0x1c  Data  Gb  cyrillic16_16x16.o [1]
acGUI_Fontcyrillic16_16x16_24B2
                        0x08062008    0x1c  Data  Gb  cyrillic16_16x16.o [1]
acGUI_Fontcyrillic16_16x16_24B3
                        0x08062024    0x1c  Data  Gb  cyrillic16_16x16.o [1]
acGUI_Fontcyrillic16_16x16_24B4
                        0x08062040    0x1c  Data  Gb  cyrillic16_16x16.o [1]
acGUI_Fontcyrillic16_16x16_24B5
                        0x0806205c    0x1c  Data  Gb  cyrillic16_16x16.o [1]
acGUI_Fontcyrillic16_16x16_24D0
                        0x08062078    0x20  Data  Gb  cyrillic16_16x16.o [1]
acGUI_Fontcyrillic16_16x16_24D1
                        0x08062098    0x20  Data  Gb  cyrillic16_16x16.o [1]
acGUI_Fontcyrillic16_16x16_24D2
                        0x080620b8    0x20  Data  Gb  cyrillic16_16x16.o [1]
acGUI_Fontcyrillic16_16x16_24D3
                        0x080620d8    0x20  Data  Gb  cyrillic16_16x16.o [1]
acGUI_Fontcyrillic16_16x16_24D4
                        0x080620f8    0x20  Data  Gb  cyrillic16_16x16.o [1]
acGUI_Fontcyrillic16_16x16_24D5
                        0x08062118    0x20  Data  Gb  cyrillic16_16x16.o [1]
acGUI_Fontcyrillic16_16x16_24D6
                        0x08062138    0x20  Data  Gb  cyrillic16_16x16.o [1]
acGUI_Fontcyrillic16_16x16_24D7
                        0x08062158    0x20  Data  Gb  cyrillic16_16x16.o [1]
acGUI_Fontcyrillic16_16x16_24D8
                        0x08062178    0x20  Data  Gb  cyrillic16_16x16.o [1]
acGUI_Fontcyrillic16_16x16_24D9
                        0x08062198    0x20  Data  Gb  cyrillic16_16x16.o [1]
acGUI_Fontcyrillic16_16x16_24DA
                        0x080621b8    0x20  Data  Gb  cyrillic16_16x16.o [1]
acGUI_Fontcyrillic16_16x16_24DB
                        0x080621d8    0x20  Data  Gb  cyrillic16_16x16.o [1]
acGUI_Fontcyrillic16_16x16_24DC
                        0x080621f8    0x20  Data  Gb  cyrillic16_16x16.o [1]
acGUI_Fontcyrillic16_16x16_24DD
                        0x08062218    0x20  Data  Gb  cyrillic16_16x16.o [1]
acGUI_Fontcyrillic16_16x16_24DE
                        0x08062238    0x20  Data  Gb  cyrillic16_16x16.o [1]
acGUI_Fontcyrillic16_16x16_24DF
                        0x08062258    0x20  Data  Gb  cyrillic16_16x16.o [1]
acGUI_Fontcyrillic16_16x16_24E0
                        0x08062278    0x20  Data  Gb  cyrillic16_16x16.o [1]
acGUI_Fontcyrillic16_16x16_24E1
                        0x08062298    0x20  Data  Gb  cyrillic16_16x16.o [1]
acGUI_Fontcyrillic16_16x16_24E2
                        0x080622b8    0x20  Data  Gb  cyrillic16_16x16.o [1]
acGUI_Fontcyrillic16_16x16_24E3
                        0x080622d8    0x20  Data  Gb  cyrillic16_16x16.o [1]
acGUI_Fontcyrillic16_16x16_24E4
                        0x080622f8    0x20  Data  Gb  cyrillic16_16x16.o [1]
acGUI_Fontcyrillic16_16x16_24E5
                        0x08062318    0x20  Data  Gb  cyrillic16_16x16.o [1]
acGUI_Fontcyrillic16_16x16_24E6
                        0x08062338    0x20  Data  Gb  cyrillic16_16x16.o [1]
acGUI_Fontcyrillic16_16x16_24E7
                        0x08062358    0x20  Data  Gb  cyrillic16_16x16.o [1]
acGUI_Fontcyrillic16_16x16_24E8
                        0x08062378    0x20  Data  Gb  cyrillic16_16x16.o [1]
acGUI_Fontcyrillic16_16x16_24E9
                        0x08062398    0x20  Data  Gb  cyrillic16_16x16.o [1]
acGUI_Fontcyrillic16_16x16_2592
                        0x080623b8    0x20  Data  Gb  cyrillic16_16x16.o [1]
acGUI_Fontcyrillic16_16x16_25A0
                        0x080623d8    0x1c  Data  Gb  cyrillic16_16x16.o [1]
acGUI_Fontcyrillic16_16x16_25A1
                        0x080623f4    0x1c  Data  Gb  cyrillic16_16x16.o [1]
acGUI_Fontcyrillic16_16x16_25A3
                        0x08062410    0x1c  Data  Gb  cyrillic16_16x16.o [1]
acGUI_Fontcyrillic16_16x16_25A4
                        0x0806242c    0x1c  Data  Gb  cyrillic16_16x16.o [1]
acGUI_Fontcyrillic16_16x16_25A5
                        0x08062448    0x1c  Data  Gb  cyrillic16_16x16.o [1]
acGUI_Fontcyrillic16_16x16_25A6
                        0x08062464    0x1c  Data  Gb  cyrillic16_16x16.o [1]
acGUI_Fontcyrillic16_16x16_25A7
                        0x08062480    0x1c  Data  Gb  cyrillic16_16x16.o [1]
acGUI_Fontcyrillic16_16x16_25A8
                        0x0806249c    0x1c  Data  Gb  cyrillic16_16x16.o [1]
acGUI_Fontcyrillic16_16x16_25A9
                        0x080624b8    0x1c  Data  Gb  cyrillic16_16x16.o [1]
acGUI_Fontcyrillic16_16x16_25B2
                        0x080624d4    0x1c  Data  Gb  cyrillic16_16x16.o [1]
acGUI_Fontcyrillic16_16x16_25B3
                        0x080624f0    0x1c  Data  Gb  cyrillic16_16x16.o [1]
acGUI_Fontcyrillic16_16x16_25B6
                        0x0806250c    0x18  Data  Gb  cyrillic16_16x16.o [1]
acGUI_Fontcyrillic16_16x16_25B7
                        0x08062524    0x18  Data  Gb  cyrillic16_16x16.o [1]
acGUI_Fontcyrillic16_16x16_25BC
                        0x0806253c    0x1c  Data  Gb  cyrillic16_16x16.o [1]
acGUI_Fontcyrillic16_16x16_25BD
                        0x08062558    0x1c  Data  Gb  cyrillic16_16x16.o [1]
acGUI_Fontcyrillic16_16x16_25C0
                        0x08062574    0x18  Data  Gb  cyrillic16_16x16.o [1]
acGUI_Fontcyrillic16_16x16_25C1
                        0x0806258c    0x18  Data  Gb  cyrillic16_16x16.o [1]
acGUI_Fontcyrillic16_16x16_25C6
                        0x080625a4    0x20  Data  Gb  cyrillic16_16x16.o [1]
acGUI_Fontcyrillic16_16x16_25C7
                        0x080625c4    0x20  Data  Gb  cyrillic16_16x16.o [1]
acGUI_Fontcyrillic16_16x16_25C8
                        0x080625e4    0x1c  Data  Gb  cyrillic16_16x16.o [1]
acGUI_Fontcyrillic16_16x16_25CB
                        0x08062600    0x1c  Data  Gb  cyrillic16_16x16.o [1]
acGUI_Fontcyrillic16_16x16_25CE
                        0x0806261c    0x1c  Data  Gb  cyrillic16_16x16.o [1]
acGUI_Fontcyrillic16_16x16_25CF
                        0x08062638    0x1c  Data  Gb  cyrillic16_16x16.o [1]
acGUI_Fontcyrillic16_16x16_25D0
                        0x08062654    0x1c  Data  Gb  cyrillic16_16x16.o [1]
acGUI_Fontcyrillic16_16x16_25D1
                        0x08062670    0x1c  Data  Gb  cyrillic16_16x16.o [1]
acGUI_Fontcyrillic16_16x16_3001
                        0x0806268c     0x4  Data  Gb  cyrillic16_16x16.o [1]
acGUI_Fontcyrillic16_16x16_3002
                        0x08062690     0x4  Data  Gb  cyrillic16_16x16.o [1]
acGUI_Fontcyrillic16_16x16_3003
                        0x08062694    0x10  Data  Gb  cyrillic16_16x16.o [1]
acGUI_Fontcyrillic16_16x16_300C
                        0x080626a4     0xc  Data  Gb  cyrillic16_16x16.o [1]
acGUI_Fontcyrillic16_16x16_300D
                        0x080626b0     0xc  Data  Gb  cyrillic16_16x16.o [1]
acGUI_Fontcyrillic16_16x16_300E
                        0x080626bc    0x10  Data  Gb  cyrillic16_16x16.o [1]
acGUI_Fontcyrillic16_16x16_300F
                        0x080626cc    0x10  Data  Gb  cyrillic16_16x16.o [1]
acGUI_Fontcyrillic16_16x16_3010
                        0x080626dc    0x10  Data  Gb  cyrillic16_16x16.o [1]
acGUI_Fontcyrillic16_16x16_3011
                        0x080626ec    0x10  Data  Gb  cyrillic16_16x16.o [1]
acGUI_Fontcyrillic16_16x16_321C
                        0x080626fc    0x1c  Data  Gb  cyrillic16_16x16.o [1]
acGUI_Fontcyrillic16_16x16_3380
                        0x08062718    0x1c  Data  Gb  cyrillic16_16x16.o [1]
acGUI_Fontcyrillic16_16x16_3381
                        0x08062734    0x18  Data  Gb  cyrillic16_16x16.o [1]
acGUI_Fontcyrillic16_16x16_3382
                        0x0806274c    0x1c  Data  Gb  cyrillic16_16x16.o [1]
acGUI_Fontcyrillic16_16x16_3383
                        0x08062768    0x18  Data  Gb  cyrillic16_16x16.o [1]
acGUI_Fontcyrillic16_16x16_3384
                        0x08062780    0x18  Data  Gb  cyrillic16_16x16.o [1]
acGUI_Fontcyrillic16_16x16_3388
                        0x08062798    0x18  Data  Gb  cyrillic16_16x16.o [1]
acGUI_Fontcyrillic16_16x16_3389
                        0x080627b0    0x18  Data  Gb  cyrillic16_16x16.o [1]
acGUI_Fontcyrillic16_16x16_338A
                        0x080627c8    0x1c  Data  Gb  cyrillic16_16x16.o [1]
acGUI_Fontcyrillic16_16x16_338B
                        0x080627e4    0x18  Data  Gb  cyrillic16_16x16.o [1]
acGUI_Fontcyrillic16_16x16_338C
                        0x080627fc    0x1c  Data  Gb  cyrillic16_16x16.o [1]
acGUI_Fontcyrillic16_16x16_338D
                        0x08062818    0x14  Data  Gb  cyrillic16_16x16.o [1]
acGUI_Fontcyrillic16_16x16_338E
                        0x0806282c    0x14  Data  Gb  cyrillic16_16x16.o [1]
acGUI_Fontcyrillic16_16x16_338F
                        0x08062840    0x1c  Data  Gb  cyrillic16_16x16.o [1]
acGUI_Fontcyrillic16_16x16_3390
                        0x0806285c    0x18  Data  Gb  cyrillic16_16x16.o [1]
acGUI_Fontcyrillic16_16x16_3391
                        0x08062874    0x18  Data  Gb  cyrillic16_16x16.o [1]
acGUI_Fontcyrillic16_16x16_3392
                        0x0806288c    0x18  Data  Gb  cyrillic16_16x16.o [1]
acGUI_Fontcyrillic16_16x16_3393
                        0x080628a4    0x18  Data  Gb  cyrillic16_16x16.o [1]
acGUI_Fontcyrillic16_16x16_3394
                        0x080628bc    0x18  Data  Gb  cyrillic16_16x16.o [1]
acGUI_Fontcyrillic16_16x16_3395
                        0x080628d4    0x1c  Data  Gb  cyrillic16_16x16.o [1]
acGUI_Fontcyrillic16_16x16_3396
                        0x080628f0    0x18  Data  Gb  cyrillic16_16x16.o [1]
acGUI_Fontcyrillic16_16x16_3397
                        0x08062908    0x18  Data  Gb  cyrillic16_16x16.o [1]
acGUI_Fontcyrillic16_16x16_3398
                        0x08062920    0x18  Data  Gb  cyrillic16_16x16.o [1]
acGUI_Fontcyrillic16_16x16_3399
                        0x08062938    0x18  Data  Gb  cyrillic16_16x16.o [1]
acGUI_Fontcyrillic16_16x16_339A
                        0x08062950    0x10  Data  Gb  cyrillic16_16x16.o [1]
acGUI_Fontcyrillic16_16x16_339B
                        0x08062960    0x14  Data  Gb  cyrillic16_16x16.o [1]
acGUI_Fontcyrillic16_16x16_339C
                        0x08062974    0x10  Data  Gb  cyrillic16_16x16.o [1]
acGUI_Fontcyrillic16_16x16_339D
                        0x08062984    0x10  Data  Gb  cyrillic16_16x16.o [1]
acGUI_Fontcyrillic16_16x16_339E
                        0x08062994    0x18  Data  Gb  cyrillic16_16x16.o [1]
acGUI_Fontcyrillic16_16x16_339F
                        0x080629ac    0x14  Data  Gb  cyrillic16_16x16.o [1]
acGUI_Fontcyrillic16_16x16_33A0
                        0x080629c0    0x14  Data  Gb  cyrillic16_16x16.o [1]
acGUI_Fontcyrillic16_16x16_33A1
                        0x080629d4    0x14  Data  Gb  cyrillic16_16x16.o [1]
acGUI_Fontcyrillic16_16x16_33A2
                        0x080629e8    0x18  Data  Gb  cyrillic16_16x16.o [1]
acGUI_Fontcyrillic16_16x16_33A3
                        0x08062a00    0x14  Data  Gb  cyrillic16_16x16.o [1]
acGUI_Fontcyrillic16_16x16_33A4
                        0x08062a14    0x14  Data  Gb  cyrillic16_16x16.o [1]
acGUI_Fontcyrillic16_16x16_33A5
                        0x08062a28    0x14  Data  Gb  cyrillic16_16x16.o [1]
acGUI_Fontcyrillic16_16x16_33A6
                        0x08062a3c    0x18  Data  Gb  cyrillic16_16x16.o [1]
acGUI_Fontcyrillic16_16x16_33A7
                        0x08062a54    0x1c  Data  Gb  cyrillic16_16x16.o [1]
acGUI_Fontcyrillic16_16x16_33A8
                        0x08062a70    0x1c  Data  Gb  cyrillic16_16x16.o [1]
acGUI_Fontcyrillic16_16x16_33A9
                        0x08062a8c    0x18  Data  Gb  cyrillic16_16x16.o [1]
acGUI_Fontcyrillic16_16x16_33AA
                        0x08062aa4    0x18  Data  Gb  cyrillic16_16x16.o [1]
acGUI_Fontcyrillic16_16x16_33AB
                        0x08062abc    0x18  Data  Gb  cyrillic16_16x16.o [1]
acGUI_Fontcyrillic16_16x16_33AC
                        0x08062ad4    0x18  Data  Gb  cyrillic16_16x16.o [1]
acGUI_Fontcyrillic16_16x16_33AD
                        0x08062aec    0x18  Data  Gb  cyrillic16_16x16.o [1]
acGUI_Fontcyrillic16_16x16_33AE
                        0x08062b04    0x1c  Data  Gb  cyrillic16_16x16.o [1]
acGUI_Fontcyrillic16_16x16_33AF
                        0x08062b20    0x1c  Data  Gb  cyrillic16_16x16.o [1]
acGUI_Fontcyrillic16_16x16_33B0
                        0x08062b3c    0x14  Data  Gb  cyrillic16_16x16.o [1]
acGUI_Fontcyrillic16_16x16_33B1
                        0x08062b50    0x10  Data  Gb  cyrillic16_16x16.o [1]
acGUI_Fontcyrillic16_16x16_33B2
                        0x08062b60    0x14  Data  Gb  cyrillic16_16x16.o [1]
acGUI_Fontcyrillic16_16x16_33B3
                        0x08062b74    0x10  Data  Gb  cyrillic16_16x16.o [1]
acGUI_Fontcyrillic16_16x16_33B4
                        0x08062b84    0x1c  Data  Gb  cyrillic16_16x16.o [1]
acGUI_Fontcyrillic16_16x16_33B5
                        0x08062ba0    0x18  Data  Gb  cyrillic16_16x16.o [1]
acGUI_Fontcyrillic16_16x16_33B6
                        0x08062bb8    0x1c  Data  Gb  cyrillic16_16x16.o [1]
acGUI_Fontcyrillic16_16x16_33B7
                        0x08062bd4    0x18  Data  Gb  cyrillic16_16x16.o [1]
acGUI_Fontcyrillic16_16x16_33B8
                        0x08062bec    0x18  Data  Gb  cyrillic16_16x16.o [1]
acGUI_Fontcyrillic16_16x16_33B9
                        0x08062c04    0x18  Data  Gb  cyrillic16_16x16.o [1]
acGUI_Fontcyrillic16_16x16_33BA
                        0x08062c1c    0x1c  Data  Gb  cyrillic16_16x16.o [1]
acGUI_Fontcyrillic16_16x16_33BB
                        0x08062c38    0x18  Data  Gb  cyrillic16_16x16.o [1]
acGUI_Fontcyrillic16_16x16_33BC
                        0x08062c50    0x1c  Data  Gb  cyrillic16_16x16.o [1]
acGUI_Fontcyrillic16_16x16_33BD
                        0x08062c6c    0x18  Data  Gb  cyrillic16_16x16.o [1]
acGUI_Fontcyrillic16_16x16_33BE
                        0x08062c84    0x18  Data  Gb  cyrillic16_16x16.o [1]
acGUI_Fontcyrillic16_16x16_33BF
                        0x08062c9c    0x18  Data  Gb  cyrillic16_16x16.o [1]
acGUI_Fontcyrillic16_16x16_33C0
                        0x08062cb4    0x18  Data  Gb  cyrillic16_16x16.o [1]
acGUI_Fontcyrillic16_16x16_33C1
                        0x08062ccc    0x18  Data  Gb  cyrillic16_16x16.o [1]
acGUI_Fontcyrillic16_16x16_33C2
                        0x08062ce4    0x10  Data  Gb  cyrillic16_16x16.o [1]
acGUI_Fontcyrillic16_16x16_33C3
                        0x08062cf4    0x1c  Data  Gb  cyrillic16_16x16.o [1]
acGUI_Fontcyrillic16_16x16_33C4
                        0x08062d10    0x10  Data  Gb  cyrillic16_16x16.o [1]
acGUI_Fontcyrillic16_16x16_33C5
                        0x08062d20    0x18  Data  Gb  cyrillic16_16x16.o [1]
acGUI_Fontcyrillic16_16x16_33C6
                        0x08062d38    0x1c  Data  Gb  cyrillic16_16x16.o [1]
acGUI_Fontcyrillic16_16x16_33C7
                        0x08062d54    0x18  Data  Gb  cyrillic16_16x16.o [1]
acGUI_Fontcyrillic16_16x16_33C8
                        0x08062d6c    0x18  Data  Gb  cyrillic16_16x16.o [1]
acGUI_Fontcyrillic16_16x16_33C9
                        0x08062d84    0x1c  Data  Gb  cyrillic16_16x16.o [1]
acGUI_Fontcyrillic16_16x16_33CA
                        0x08062da0    0x18  Data  Gb  cyrillic16_16x16.o [1]
acGUI_Fontcyrillic16_16x16_33CF
                        0x08062db8    0x18  Data  Gb  cyrillic16_16x16.o [1]
acGUI_Fontcyrillic16_16x16_33D0
                        0x08062dd0    0x18  Data  Gb  cyrillic16_16x16.o [1]
acGUI_Fontcyrillic16_16x16_33D3
                        0x08062de8    0x18  Data  Gb  cyrillic16_16x16.o [1]
acGUI_Fontcyrillic16_16x16_33D6
                        0x08062e00    0x18  Data  Gb  cyrillic16_16x16.o [1]
acGUI_Fontcyrillic16_16x16_33D8
                        0x08062e18    0x14  Data  Gb  cyrillic16_16x16.o [1]
acGUI_Fontcyrillic16_16x16_33DB
                        0x08062e2c    0x10  Data  Gb  cyrillic16_16x16.o [1]
acGUI_Fontcyrillic16_16x16_33DC
                        0x08062e3c    0x18  Data  Gb  cyrillic16_16x16.o [1]
acGUI_Fontcyrillic16_16x16_33DD
                        0x08062e54    0x18  Data  Gb  cyrillic16_16x16.o [1]
acGUI_Fontcyrillic16_16x16_FFE0
                        0x08062e6c    0x18  Data  Gb  cyrillic16_16x16.o [1]
acGUI_Fontcyrillic16_16x16_FFE1
                        0x08062e84    0x1c  Data  Gb  cyrillic16_16x16.o [1]
acGUI_Fontcyrillic16_16x16_FFE2
                        0x08062ea0     0xc  Data  Gb  cyrillic16_16x16.o [1]
acGUI_Fontcyrillic16_16x16_FFE5
                        0x08062eac    0x1c  Data  Gb  cyrillic16_16x16.o [1]
acGUI_Fontcyrillic20_20x20_0020
                        0x08064b3c    0x14  Data  Gb  cyrillic20_20x20.o [1]
acGUI_Fontcyrillic20_20x20_0021
                        0x08064b50    0x10  Data  Gb  cyrillic20_20x20.o [1]
acGUI_Fontcyrillic20_20x20_0022
                        0x08064b60     0x8  Data  Gb  cyrillic20_20x20.o [1]
acGUI_Fontcyrillic20_20x20_0023
                        0x08064b68    0x1c  Data  Gb  cyrillic20_20x20.o [1]
acGUI_Fontcyrillic20_20x20_0024
                        0x08064b84    0x24  Data  Gb  cyrillic20_20x20.o [1]
acGUI_Fontcyrillic20_20x20_0025
                        0x08064ba8    0x2c  Data  Gb  cyrillic20_20x20.o [1]
acGUI_Fontcyrillic20_20x20_0026
                        0x08064bd4    0x1c  Data  Gb  cyrillic20_20x20.o [1]
acGUI_Fontcyrillic20_20x20_0027
                        0x08064bf0     0x8  Data  Gb  cyrillic20_20x20.o [1]
acGUI_Fontcyrillic20_20x20_0028
                        0x08064bf8    0x14  Data  Gb  cyrillic20_20x20.o [1]
acGUI_Fontcyrillic20_20x20_0029
                        0x08064c0c    0x14  Data  Gb  cyrillic20_20x20.o [1]
acGUI_Fontcyrillic20_20x20_002A
                        0x08064c20    0x14  Data  Gb  cyrillic20_20x20.o [1]
acGUI_Fontcyrillic20_20x20_002B
                        0x08064c34    0x18  Data  Gb  cyrillic20_20x20.o [1]
acGUI_Fontcyrillic20_20x20_002C
                        0x08064c4c     0x8  Data  Gb  cyrillic20_20x20.o [1]
acGUI_Fontcyrillic20_20x20_002D
                        0x08064c54     0x2  Data  Gb  cyrillic20_20x20.o [1]
acGUI_Fontcyrillic20_20x20_002E
                        0x08064c58     0x4  Data  Gb  cyrillic20_20x20.o [1]
acGUI_Fontcyrillic20_20x20_002F
                        0x08064c5c    0x14  Data  Gb  cyrillic20_20x20.o [1]
acGUI_Fontcyrillic20_20x20_0030
                        0x08064c70    0x1c  Data  Gb  cyrillic20_20x20.o [1]
acGUI_Fontcyrillic20_20x20_0031
                        0x08064c8c    0x10  Data  Gb  cyrillic20_20x20.o [1]
acGUI_Fontcyrillic20_20x20_0032
                        0x08064c9c    0x1c  Data  Gb  cyrillic20_20x20.o [1]
acGUI_Fontcyrillic20_20x20_0033
                        0x08064cb8    0x1c  Data  Gb  cyrillic20_20x20.o [1]
acGUI_Fontcyrillic20_20x20_0034
                        0x08064cd4    0x1c  Data  Gb  cyrillic20_20x20.o [1]
acGUI_Fontcyrillic20_20x20_0035
                        0x08064cf0    0x1c  Data  Gb  cyrillic20_20x20.o [1]
acGUI_Fontcyrillic20_20x20_0036
                        0x08064d0c    0x1c  Data  Gb  cyrillic20_20x20.o [1]
acGUI_Fontcyrillic20_20x20_0037
                        0x08064d28    0x1c  Data  Gb  cyrillic20_20x20.o [1]
acGUI_Fontcyrillic20_20x20_0038
                        0x08064d44    0x1c  Data  Gb  cyrillic20_20x20.o [1]
acGUI_Fontcyrillic20_20x20_0039
                        0x08064d60    0x1c  Data  Gb  cyrillic20_20x20.o [1]
acGUI_Fontcyrillic20_20x20_003A
                        0x08064d7c     0xc  Data  Gb  cyrillic20_20x20.o [1]
acGUI_Fontcyrillic20_20x20_003B
                        0x08064d88    0x10  Data  Gb  cyrillic20_20x20.o [1]
acGUI_Fontcyrillic20_20x20_003C
                        0x08064d98    0x18  Data  Gb  cyrillic20_20x20.o [1]
acGUI_Fontcyrillic20_20x20_003D
                        0x08064db0     0xc  Data  Gb  cyrillic20_20x20.o [1]
acGUI_Fontcyrillic20_20x20_003E
                        0x08064dbc    0x18  Data  Gb  cyrillic20_20x20.o [1]
acGUI_Fontcyrillic20_20x20_003F
                        0x08064dd4    0x10  Data  Gb  cyrillic20_20x20.o [1]
acGUI_Fontcyrillic20_20x20_0040
                        0x08064de4    0x20  Data  Gb  cyrillic20_20x20.o [1]
acGUI_Fontcyrillic20_20x20_0041
                        0x08064e04    0x1c  Data  Gb  cyrillic20_20x20.o [1]
acGUI_Fontcyrillic20_20x20_0042
                        0x08064e20    0x1c  Data  Gb  cyrillic20_20x20.o [1]
acGUI_Fontcyrillic20_20x20_0043
                        0x08064e3c    0x1c  Data  Gb  cyrillic20_20x20.o [1]
acGUI_Fontcyrillic20_20x20_0044
                        0x08064e58    0x1c  Data  Gb  cyrillic20_20x20.o [1]
acGUI_Fontcyrillic20_20x20_0045
                        0x08064e74    0x1c  Data  Gb  cyrillic20_20x20.o [1]
acGUI_Fontcyrillic20_20x20_0046
                        0x08064e90    0x1c  Data  Gb  cyrillic20_20x20.o [1]
acGUI_Fontcyrillic20_20x20_0047
                        0x08064eac    0x1c  Data  Gb  cyrillic20_20x20.o [1]
acGUI_Fontcyrillic20_20x20_0048
                        0x08064ec8    0x1c  Data  Gb  cyrillic20_20x20.o [1]
acGUI_Fontcyrillic20_20x20_0049
                        0x08064ee4    0x10  Data  Gb  cyrillic20_20x20.o [1]
acGUI_Fontcyrillic20_20x20_004A
                        0x08064ef4    0x10  Data  Gb  cyrillic20_20x20.o [1]
acGUI_Fontcyrillic20_20x20_004B
                        0x08064f04    0x1c  Data  Gb  cyrillic20_20x20.o [1]
acGUI_Fontcyrillic20_20x20_004C
                        0x08064f20    0x1c  Data  Gb  cyrillic20_20x20.o [1]
acGUI_Fontcyrillic20_20x20_004D
                        0x08064f3c    0x1c  Data  Gb  cyrillic20_20x20.o [1]
acGUI_Fontcyrillic20_20x20_004E
                        0x08064f58    0x1c  Data  Gb  cyrillic20_20x20.o [1]
acGUI_Fontcyrillic20_20x20_004F
                        0x08064f74    0x1c  Data  Gb  cyrillic20_20x20.o [1]
acGUI_Fontcyrillic20_20x20_0050
                        0x08064f90    0x10  Data  Gb  cyrillic20_20x20.o [1]
acGUI_Fontcyrillic20_20x20_0051
                        0x08064fa0    0x24  Data  Gb  cyrillic20_20x20.o [1]
acGUI_Fontcyrillic20_20x20_0052
                        0x08064fc4    0x1c  Data  Gb  cyrillic20_20x20.o [1]
acGUI_Fontcyrillic20_20x20_0053
                        0x08064fe0    0x1c  Data  Gb  cyrillic20_20x20.o [1]
acGUI_Fontcyrillic20_20x20_0054
                        0x08064ffc    0x1c  Data  Gb  cyrillic20_20x20.o [1]
acGUI_Fontcyrillic20_20x20_0055
                        0x08065018    0x1c  Data  Gb  cyrillic20_20x20.o [1]
acGUI_Fontcyrillic20_20x20_0056
                        0x08065034    0x1c  Data  Gb  cyrillic20_20x20.o [1]
acGUI_Fontcyrillic20_20x20_0057
                        0x08065050    0x1c  Data  Gb  cyrillic20_20x20.o [1]
acGUI_Fontcyrillic20_20x20_0058
                        0x0806506c    0x1c  Data  Gb  cyrillic20_20x20.o [1]
acGUI_Fontcyrillic20_20x20_0059
                        0x08065088    0x1c  Data  Gb  cyrillic20_20x20.o [1]
acGUI_Fontcyrillic20_20x20_005A
                        0x080650a4    0x1c  Data  Gb  cyrillic20_20x20.o [1]
acGUI_Fontcyrillic20_20x20_005B
                        0x080650c0    0x14  Data  Gb  cyrillic20_20x20.o [1]
acGUI_Fontcyrillic20_20x20_005C
                        0x080650d4    0x14  Data  Gb  cyrillic20_20x20.o [1]
acGUI_Fontcyrillic20_20x20_005D
                        0x080650e8    0x14  Data  Gb  cyrillic20_20x20.o [1]
acGUI_Fontcyrillic20_20x20_005E
                        0x080650fc    0x10  Data  Gb  cyrillic20_20x20.o [1]
acGUI_Fontcyrillic20_20x20_005F
                        0x0806510c     0x2  Data  Gb  cyrillic20_20x20.o [1]
acGUI_Fontcyrillic20_20x20_0060
                        0x08065110     0x4  Data  Gb  cyrillic20_20x20.o [1]
acGUI_Fontcyrillic20_20x20_0061
                        0x08065114     0xc  Data  Gb  cyrillic20_20x20.o [1]
acGUI_Fontcyrillic20_20x20_0062
                        0x08065120    0x20  Data  Gb  cyrillic20_20x20.o [1]
acGUI_Fontcyrillic20_20x20_0063
                        0x08065140     0xc  Data  Gb  cyrillic20_20x20.o [1]
acGUI_Fontcyrillic20_20x20_0064
                        0x0806514c    0x20  Data  Gb  cyrillic20_20x20.o [1]
acGUI_Fontcyrillic20_20x20_0065
                        0x0806516c    0x18  Data  Gb  cyrillic20_20x20.o [1]
acGUI_Fontcyrillic20_20x20_0066
                        0x08065184    0x10  Data  Gb  cyrillic20_20x20.o [1]
acGUI_Fontcyrillic20_20x20_0067
                        0x08065194    0x1c  Data  Gb  cyrillic20_20x20.o [1]
acGUI_Fontcyrillic20_20x20_0068
                        0x080651b0    0x10  Data  Gb  cyrillic20_20x20.o [1]
acGUI_Fontcyrillic20_20x20_0069
                        0x080651c0    0x10  Data  Gb  cyrillic20_20x20.o [1]
acGUI_Fontcyrillic20_20x20_006A
                        0x080651d0    0x14  Data  Gb  cyrillic20_20x20.o [1]
acGUI_Fontcyrillic20_20x20_006B
                        0x080651e4    0x20  Data  Gb  cyrillic20_20x20.o [1]
acGUI_Fontcyrillic20_20x20_006C
                        0x08065204    0x10  Data  Gb  cyrillic20_20x20.o [1]
acGUI_Fontcyrillic20_20x20_006D
                        0x08065214    0x18  Data  Gb  cyrillic20_20x20.o [1]
acGUI_Fontcyrillic20_20x20_006E
                        0x0806522c     0xc  Data  Gb  cyrillic20_20x20.o [1]
acGUI_Fontcyrillic20_20x20_006F
                        0x08065238    0x18  Data  Gb  cyrillic20_20x20.o [1]
acGUI_Fontcyrillic20_20x20_0070
                        0x08065250    0x20  Data  Gb  cyrillic20_20x20.o [1]
acGUI_Fontcyrillic20_20x20_0071
                        0x08065270    0x20  Data  Gb  cyrillic20_20x20.o [1]
acGUI_Fontcyrillic20_20x20_0072
                        0x08065290     0xc  Data  Gb  cyrillic20_20x20.o [1]
acGUI_Fontcyrillic20_20x20_0073
                        0x0806529c     0xc  Data  Gb  cyrillic20_20x20.o [1]
acGUI_Fontcyrillic20_20x20_0074
                        0x080652a8    0x10  Data  Gb  cyrillic20_20x20.o [1]
acGUI_Fontcyrillic20_20x20_0075
                        0x080652b8     0xc  Data  Gb  cyrillic20_20x20.o [1]
acGUI_Fontcyrillic20_20x20_0076
                        0x080652c4    0x18  Data  Gb  cyrillic20_20x20.o [1]
acGUI_Fontcyrillic20_20x20_0077
                        0x080652dc    0x18  Data  Gb  cyrillic20_20x20.o [1]
acGUI_Fontcyrillic20_20x20_0078
                        0x080652f4    0x18  Data  Gb  cyrillic20_20x20.o [1]
acGUI_Fontcyrillic20_20x20_0079
                        0x0806530c    0x1c  Data  Gb  cyrillic20_20x20.o [1]
acGUI_Fontcyrillic20_20x20_007A
                        0x08065328     0xc  Data  Gb  cyrillic20_20x20.o [1]
acGUI_Fontcyrillic20_20x20_007B
                        0x08065334    0x28  Data  Gb  cyrillic20_20x20.o [1]
acGUI_Fontcyrillic20_20x20_007C
                        0x0806535c    0x14  Data  Gb  cyrillic20_20x20.o [1]
acGUI_Fontcyrillic20_20x20_007D
                        0x08065370    0x28  Data  Gb  cyrillic20_20x20.o [1]
acGUI_Fontcyrillic20_20x20_007E
                        0x08065398     0xc  Data  Gb  cyrillic20_20x20.o [1]
acGUI_Fontcyrillic20_20x20_00A8
                        0x080653a4     0x2  Data  Gb  cyrillic20_20x20.o [1]
acGUI_Fontcyrillic20_20x20_00AD
                        0x080653a6     0x1  Data  Gb  cyrillic20_20x20.o [1]
acGUI_Fontcyrillic20_20x20_00B0
                        0x080653a8     0x8  Data  Gb  cyrillic20_20x20.o [1]
acGUI_Fontcyrillic20_20x20_00B7
                        0x080653b0     0x2  Data  Gb  cyrillic20_20x20.o [1]
acGUI_Fontcyrillic20_20x20_0400
                        0x080653b4    0x24  Data  Gb  cyrillic20_20x20.o [1]
acGUI_Fontcyrillic20_20x20_0401
                        0x080653d8    0x24  Data  Gb  cyrillic20_20x20.o [1]
acGUI_Fontcyrillic20_20x20_0402
                        0x080653fc    0x1c  Data  Gb  cyrillic20_20x20.o [1]
acGUI_Fontcyrillic20_20x20_0403
                        0x08065418    0x24  Data  Gb  cyrillic20_20x20.o [1]
acGUI_Fontcyrillic20_20x20_0404
                        0x0806543c    0x1c  Data  Gb  cyrillic20_20x20.o [1]
acGUI_Fontcyrillic20_20x20_0405
                        0x08065458    0x1c  Data  Gb  cyrillic20_20x20.o [1]
acGUI_Fontcyrillic20_20x20_0406
                        0x08065474    0x10  Data  Gb  cyrillic20_20x20.o [1]
acGUI_Fontcyrillic20_20x20_0407
                        0x08065484    0x14  Data  Gb  cyrillic20_20x20.o [1]
acGUI_Fontcyrillic20_20x20_0408
                        0x08065498    0x10  Data  Gb  cyrillic20_20x20.o [1]
acGUI_Fontcyrillic20_20x20_0409
                        0x080654a8    0x2c  Data  Gb  cyrillic20_20x20.o [1]
acGUI_Fontcyrillic20_20x20_040A
                        0x080654d4    0x2c  Data  Gb  cyrillic20_20x20.o [1]
acGUI_Fontcyrillic20_20x20_040B
                        0x08065500    0x1c  Data  Gb  cyrillic20_20x20.o [1]
acGUI_Fontcyrillic20_20x20_040C
                        0x0806551c    0x24  Data  Gb  cyrillic20_20x20.o [1]
acGUI_Fontcyrillic20_20x20_040D
                        0x08065540    0x24  Data  Gb  cyrillic20_20x20.o [1]
acGUI_Fontcyrillic20_20x20_040E
                        0x08065564    0x24  Data  Gb  cyrillic20_20x20.o [1]
acGUI_Fontcyrillic20_20x20_040F
                        0x08065588    0x24  Data  Gb  cyrillic20_20x20.o [1]
acGUI_Fontcyrillic20_20x20_0410
                        0x080655ac    0x1c  Data  Gb  cyrillic20_20x20.o [1]
acGUI_Fontcyrillic20_20x20_0411
                        0x080655c8    0x1c  Data  Gb  cyrillic20_20x20.o [1]
acGUI_Fontcyrillic20_20x20_0412
                        0x080655e4    0x1c  Data  Gb  cyrillic20_20x20.o [1]
acGUI_Fontcyrillic20_20x20_0413
                        0x08065600    0x1c  Data  Gb  cyrillic20_20x20.o [1]
acGUI_Fontcyrillic20_20x20_0414
                        0x0806561c    0x24  Data  Gb  cyrillic20_20x20.o [1]
acGUI_Fontcyrillic20_20x20_0415
                        0x08065640    0x1c  Data  Gb  cyrillic20_20x20.o [1]
acGUI_Fontcyrillic20_20x20_0416
                        0x0806565c    0x2c  Data  Gb  cyrillic20_20x20.o [1]
acGUI_Fontcyrillic20_20x20_0417
                        0x08065688    0x1c  Data  Gb  cyrillic20_20x20.o [1]
acGUI_Fontcyrillic20_20x20_0418
                        0x080656a4    0x1c  Data  Gb  cyrillic20_20x20.o [1]
acGUI_Fontcyrillic20_20x20_0419
                        0x080656c0    0x24  Data  Gb  cyrillic20_20x20.o [1]
acGUI_Fontcyrillic20_20x20_041A
                        0x080656e4    0x1c  Data  Gb  cyrillic20_20x20.o [1]
acGUI_Fontcyrillic20_20x20_041B
                        0x08065700    0x1c  Data  Gb  cyrillic20_20x20.o [1]
acGUI_Fontcyrillic20_20x20_041C
                        0x0806571c    0x1c  Data  Gb  cyrillic20_20x20.o [1]
acGUI_Fontcyrillic20_20x20_041D
                        0x08065738    0x1c  Data  Gb  cyrillic20_20x20.o [1]
acGUI_Fontcyrillic20_20x20_041E
                        0x08065754    0x1c  Data  Gb  cyrillic20_20x20.o [1]
acGUI_Fontcyrillic20_20x20_041F
                        0x08065770    0x1c  Data  Gb  cyrillic20_20x20.o [1]
acGUI_Fontcyrillic20_20x20_0420
                        0x0806578c    0x10  Data  Gb  cyrillic20_20x20.o [1]
acGUI_Fontcyrillic20_20x20_0421
                        0x0806579c    0x1c  Data  Gb  cyrillic20_20x20.o [1]
acGUI_Fontcyrillic20_20x20_0422
                        0x080657b8    0x1c  Data  Gb  cyrillic20_20x20.o [1]
acGUI_Fontcyrillic20_20x20_0423
                        0x080657d4    0x1c  Data  Gb  cyrillic20_20x20.o [1]
acGUI_Fontcyrillic20_20x20_0424
                        0x080657f0    0x1c  Data  Gb  cyrillic20_20x20.o [1]
acGUI_Fontcyrillic20_20x20_0425
                        0x0806580c    0x1c  Data  Gb  cyrillic20_20x20.o [1]
acGUI_Fontcyrillic20_20x20_0426
                        0x08065828    0x24  Data  Gb  cyrillic20_20x20.o [1]
acGUI_Fontcyrillic20_20x20_0427
                        0x0806584c    0x1c  Data  Gb  cyrillic20_20x20.o [1]
acGUI_Fontcyrillic20_20x20_0428
                        0x08065868    0x1c  Data  Gb  cyrillic20_20x20.o [1]
acGUI_Fontcyrillic20_20x20_0429
                        0x08065884    0x34  Data  Gb  cyrillic20_20x20.o [1]
acGUI_Fontcyrillic20_20x20_042A
                        0x080658b8    0x1c  Data  Gb  cyrillic20_20x20.o [1]
acGUI_Fontcyrillic20_20x20_042B
                        0x080658d4    0x1c  Data  Gb  cyrillic20_20x20.o [1]
acGUI_Fontcyrillic20_20x20_042C
                        0x080658f0    0x1c  Data  Gb  cyrillic20_20x20.o [1]
acGUI_Fontcyrillic20_20x20_042D
                        0x0806590c    0x1c  Data  Gb  cyrillic20_20x20.o [1]
acGUI_Fontcyrillic20_20x20_042E
                        0x08065928    0x2c  Data  Gb  cyrillic20_20x20.o [1]
acGUI_Fontcyrillic20_20x20_042F
                        0x08065954    0x1c  Data  Gb  cyrillic20_20x20.o [1]
acGUI_Fontcyrillic20_20x20_0430
                        0x08065970     0xc  Data  Gb  cyrillic20_20x20.o [1]
acGUI_Fontcyrillic20_20x20_0431
                        0x0806597c    0x20  Data  Gb  cyrillic20_20x20.o [1]
acGUI_Fontcyrillic20_20x20_0432
                        0x0806599c     0xc  Data  Gb  cyrillic20_20x20.o [1]
acGUI_Fontcyrillic20_20x20_0433
                        0x080659a8     0xc  Data  Gb  cyrillic20_20x20.o [1]
acGUI_Fontcyrillic20_20x20_0434
                        0x080659b4    0x1c  Data  Gb  cyrillic20_20x20.o [1]
acGUI_Fontcyrillic20_20x20_0435
                        0x080659d0    0x18  Data  Gb  cyrillic20_20x20.o [1]
acGUI_Fontcyrillic20_20x20_0436
                        0x080659e8    0x18  Data  Gb  cyrillic20_20x20.o [1]
acGUI_Fontcyrillic20_20x20_0437
                        0x08065a00     0xc  Data  Gb  cyrillic20_20x20.o [1]
acGUI_Fontcyrillic20_20x20_0438
                        0x08065a0c     0xc  Data  Gb  cyrillic20_20x20.o [1]
acGUI_Fontcyrillic20_20x20_0439
                        0x08065a18    0x10  Data  Gb  cyrillic20_20x20.o [1]
acGUI_Fontcyrillic20_20x20_043A
                        0x08065a28    0x18  Data  Gb  cyrillic20_20x20.o [1]
acGUI_Fontcyrillic20_20x20_043B
                        0x08065a40    0x18  Data  Gb  cyrillic20_20x20.o [1]
acGUI_Fontcyrillic20_20x20_043C
                        0x08065a58    0x18  Data  Gb  cyrillic20_20x20.o [1]
acGUI_Fontcyrillic20_20x20_043D
                        0x08065a70     0xc  Data  Gb  cyrillic20_20x20.o [1]
acGUI_Fontcyrillic20_20x20_043E
                        0x08065a7c    0x18  Data  Gb  cyrillic20_20x20.o [1]
acGUI_Fontcyrillic20_20x20_043F
                        0x08065a94     0xc  Data  Gb  cyrillic20_20x20.o [1]
acGUI_Fontcyrillic20_20x20_0440
                        0x08065aa0    0x20  Data  Gb  cyrillic20_20x20.o [1]
acGUI_Fontcyrillic20_20x20_0441
                        0x08065ac0     0xc  Data  Gb  cyrillic20_20x20.o [1]
acGUI_Fontcyrillic20_20x20_0442
                        0x08065acc    0x18  Data  Gb  cyrillic20_20x20.o [1]
acGUI_Fontcyrillic20_20x20_0443
                        0x08065ae4    0x1c  Data  Gb  cyrillic20_20x20.o [1]
acGUI_Fontcyrillic20_20x20_0444
                        0x08065b00    0x28  Data  Gb  cyrillic20_20x20.o [1]
acGUI_Fontcyrillic20_20x20_0445
                        0x08065b28    0x18  Data  Gb  cyrillic20_20x20.o [1]
acGUI_Fontcyrillic20_20x20_0446
                        0x08065b40    0x1c  Data  Gb  cyrillic20_20x20.o [1]
acGUI_Fontcyrillic20_20x20_0447
                        0x08065b5c    0x18  Data  Gb  cyrillic20_20x20.o [1]
acGUI_Fontcyrillic20_20x20_0448
                        0x08065b74    0x18  Data  Gb  cyrillic20_20x20.o [1]
acGUI_Fontcyrillic20_20x20_0449
                        0x08065b8c    0x1c  Data  Gb  cyrillic20_20x20.o [1]
acGUI_Fontcyrillic20_20x20_044A
                        0x08065ba8    0x18  Data  Gb  cyrillic20_20x20.o [1]
acGUI_Fontcyrillic20_20x20_044B
                        0x08065bc0    0x18  Data  Gb  cyrillic20_20x20.o [1]
acGUI_Fontcyrillic20_20x20_044C
                        0x08065bd8     0xc  Data  Gb  cyrillic20_20x20.o [1]
acGUI_Fontcyrillic20_20x20_044D
                        0x08065be4     0xc  Data  Gb  cyrillic20_20x20.o [1]
acGUI_Fontcyrillic20_20x20_044E
                        0x08065bf0    0x18  Data  Gb  cyrillic20_20x20.o [1]
acGUI_Fontcyrillic20_20x20_044F
                        0x08065c08     0xc  Data  Gb  cyrillic20_20x20.o [1]
acGUI_Fontcyrillic20_20x20_0450
                        0x08065c14    0x20  Data  Gb  cyrillic20_20x20.o [1]
acGUI_Fontcyrillic20_20x20_0451
                        0x08065c34    0x1c  Data  Gb  cyrillic20_20x20.o [1]
acGUI_Fontcyrillic20_20x20_0452
                        0x08065c50    0x24  Data  Gb  cyrillic20_20x20.o [1]
acGUI_Fontcyrillic20_20x20_0453
                        0x08065c74    0x10  Data  Gb  cyrillic20_20x20.o [1]
acGUI_Fontcyrillic20_20x20_0454
                        0x08065c84     0xc  Data  Gb  cyrillic20_20x20.o [1]
acGUI_Fontcyrillic20_20x20_0455
                        0x08065c90     0xc  Data  Gb  cyrillic20_20x20.o [1]
acGUI_Fontcyrillic20_20x20_0456
                        0x08065c9c    0x10  Data  Gb  cyrillic20_20x20.o [1]
acGUI_Fontcyrillic20_20x20_0457
                        0x08065cac    0x10  Data  Gb  cyrillic20_20x20.o [1]
acGUI_Fontcyrillic20_20x20_0458
                        0x08065cbc    0x14  Data  Gb  cyrillic20_20x20.o [1]
acGUI_Fontcyrillic20_20x20_0459
                        0x08065cd0    0x18  Data  Gb  cyrillic20_20x20.o [1]
acGUI_Fontcyrillic20_20x20_045A
                        0x08065ce8    0x18  Data  Gb  cyrillic20_20x20.o [1]
acGUI_Fontcyrillic20_20x20_045B
                        0x08065d00    0x20  Data  Gb  cyrillic20_20x20.o [1]
acGUI_Fontcyrillic20_20x20_045C
                        0x08065d20    0x20  Data  Gb  cyrillic20_20x20.o [1]
acGUI_Fontcyrillic20_20x20_045D
                        0x08065d40    0x10  Data  Gb  cyrillic20_20x20.o [1]
acGUI_Fontcyrillic20_20x20_045E
                        0x08065d50    0x24  Data  Gb  cyrillic20_20x20.o [1]
acGUI_Fontcyrillic20_20x20_045F
                        0x08065d74    0x10  Data  Gb  cyrillic20_20x20.o [1]
acGUI_Fontcyrillic20_20x20_0490
                        0x08065d84    0x24  Data  Gb  cyrillic20_20x20.o [1]
acGUI_Fontcyrillic20_20x20_0491
                        0x08065da8    0x10  Data  Gb  cyrillic20_20x20.o [1]
acGUI_Fontcyrillic20_20x20_2015
                        0x08065db8     0x4  Data  Gb  cyrillic20_20x20.o [1]
acGUI_Fontcyrillic20_20x20_2018
                        0x08065dbc     0x8  Data  Gb  cyrillic20_20x20.o [1]
acGUI_Fontcyrillic20_20x20_2019
                        0x08065dc4     0x8  Data  Gb  cyrillic20_20x20.o [1]
acGUI_Fontcyrillic20_20x20_201C
                        0x08065dcc     0x8  Data  Gb  cyrillic20_20x20.o [1]
acGUI_Fontcyrillic20_20x20_201D
                        0x08065dd4     0x8  Data  Gb  cyrillic20_20x20.o [1]
acGUI_Fontcyrillic20_20x20_2025
                        0x08065ddc     0x2  Data  Gb  cyrillic20_20x20.o [1]
acGUI_Fontcyrillic20_20x20_2026
                        0x08065de0     0x4  Data  Gb  cyrillic20_20x20.o [1]
acGUI_Fontcyrillic20_20x20_2032
                        0x08065de4     0x4  Data  Gb  cyrillic20_20x20.o [1]
acGUI_Fontcyrillic20_20x20_2033
                        0x08065de8     0x8  Data  Gb  cyrillic20_20x20.o [1]
acGUI_Fontcyrillic20_20x20_2103
                        0x08065df0    0x20  Data  Gb  cyrillic20_20x20.o [1]
acGUI_Fontcyrillic20_20x20_2109
                        0x08065e10    0x20  Data  Gb  cyrillic20_20x20.o [1]
acGUI_Fontcyrillic20_20x20_2113
                        0x08065e30    0x10  Data  Gb  cyrillic20_20x20.o [1]
acGUI_Fontcyrillic20_20x20_2116
                        0x08065e40    0x2c  Data  Gb  cyrillic20_20x20.o [1]
acGUI_Fontcyrillic20_20x20_2121
                        0x08065e6c    0x30  Data  Gb  cyrillic20_20x20.o [1]
acGUI_Fontcyrillic20_20x20_2122
                        0x08065e9c    0x10  Data  Gb  cyrillic20_20x20.o [1]
acGUI_Fontcyrillic20_20x20_2126
                        0x08065eac    0x1c  Data  Gb  cyrillic20_20x20.o [1]
acGUI_Fontcyrillic20_20x20_212B
                        0x08065ec8    0x24  Data  Gb  cyrillic20_20x20.o [1]
acGUI_Fontcyrillic20_20x20_2153
                        0x08065eec    0x24  Data  Gb  cyrillic20_20x20.o [1]
acGUI_Fontcyrillic20_20x20_2154
                        0x08065f10    0x24  Data  Gb  cyrillic20_20x20.o [1]
acGUI_Fontcyrillic20_20x20_215B
                        0x08065f34    0x24  Data  Gb  cyrillic20_20x20.o [1]
acGUI_Fontcyrillic20_20x20_215C
                        0x08065f58    0x24  Data  Gb  cyrillic20_20x20.o [1]
acGUI_Fontcyrillic20_20x20_215D
                        0x08065f7c    0x24  Data  Gb  cyrillic20_20x20.o [1]
acGUI_Fontcyrillic20_20x20_215E
                        0x08065fa0    0x24  Data  Gb  cyrillic20_20x20.o [1]
acGUI_Fontcyrillic20_20x20_2160
                        0x08065fc4    0x10  Data  Gb  cyrillic20_20x20.o [1]
acGUI_Fontcyrillic20_20x20_2161
                        0x08065fd4    0x10  Data  Gb  cyrillic20_20x20.o [1]
acGUI_Fontcyrillic20_20x20_2162
                        0x08065fe4    0x20  Data  Gb  cyrillic20_20x20.o [1]
acGUI_Fontcyrillic20_20x20_2163
                        0x08066004    0x20  Data  Gb  cyrillic20_20x20.o [1]
acGUI_Fontcyrillic20_20x20_2164
                        0x08066024    0x20  Data  Gb  cyrillic20_20x20.o [1]
acGUI_Fontcyrillic20_20x20_2165
                        0x08066044    0x20  Data  Gb  cyrillic20_20x20.o [1]
acGUI_Fontcyrillic20_20x20_2166
                        0x08066064    0x20  Data  Gb  cyrillic20_20x20.o [1]
acGUI_Fontcyrillic20_20x20_2167
                        0x08066084    0x20  Data  Gb  cyrillic20_20x20.o [1]
acGUI_Fontcyrillic20_20x20_2168
                        0x080660a4    0x20  Data  Gb  cyrillic20_20x20.o [1]
acGUI_Fontcyrillic20_20x20_2169
                        0x080660c4    0x20  Data  Gb  cyrillic20_20x20.o [1]
acGUI_Fontcyrillic20_20x20_2170
                        0x080660e4    0x10  Data  Gb  cyrillic20_20x20.o [1]
acGUI_Fontcyrillic20_20x20_2171
                        0x080660f4    0x10  Data  Gb  cyrillic20_20x20.o [1]
acGUI_Fontcyrillic20_20x20_2172
                        0x08066104    0x20  Data  Gb  cyrillic20_20x20.o [1]
acGUI_Fontcyrillic20_20x20_2173
                        0x08066124    0x20  Data  Gb  cyrillic20_20x20.o [1]
acGUI_Fontcyrillic20_20x20_2174
                        0x08066144     0xc  Data  Gb  cyrillic20_20x20.o [1]
acGUI_Fontcyrillic20_20x20_2175
                        0x08066150    0x20  Data  Gb  cyrillic20_20x20.o [1]
acGUI_Fontcyrillic20_20x20_2176
                        0x08066170    0x20  Data  Gb  cyrillic20_20x20.o [1]
acGUI_Fontcyrillic20_20x20_2177
                        0x08066190    0x20  Data  Gb  cyrillic20_20x20.o [1]
acGUI_Fontcyrillic20_20x20_2178
                        0x080661b0    0x20  Data  Gb  cyrillic20_20x20.o [1]
acGUI_Fontcyrillic20_20x20_2179
                        0x080661d0    0x18  Data  Gb  cyrillic20_20x20.o [1]
acGUI_Fontcyrillic20_20x20_2190
                        0x080661e8    0x18  Data  Gb  cyrillic20_20x20.o [1]
acGUI_Fontcyrillic20_20x20_2191
                        0x08066200    0x14  Data  Gb  cyrillic20_20x20.o [1]
acGUI_Fontcyrillic20_20x20_2192
                        0x08066214    0x18  Data  Gb  cyrillic20_20x20.o [1]
acGUI_Fontcyrillic20_20x20_2193
                        0x0806622c    0x14  Data  Gb  cyrillic20_20x20.o [1]
acGUI_Fontcyrillic20_20x20_2194
                        0x08066240    0x18  Data  Gb  cyrillic20_20x20.o [1]
acGUI_Fontcyrillic20_20x20_2195
                        0x08066258    0x14  Data  Gb  cyrillic20_20x20.o [1]
acGUI_Fontcyrillic20_20x20_2196
                        0x0806626c    0x1c  Data  Gb  cyrillic20_20x20.o [1]
acGUI_Fontcyrillic20_20x20_2197
                        0x08066288    0x1c  Data  Gb  cyrillic20_20x20.o [1]
acGUI_Fontcyrillic20_20x20_2198
                        0x080662a4    0x1c  Data  Gb  cyrillic20_20x20.o [1]
acGUI_Fontcyrillic20_20x20_2199
                        0x080662c0    0x1c  Data  Gb  cyrillic20_20x20.o [1]
acGUI_Fontcyrillic20_20x20_21D2
                        0x080662dc    0x2c  Data  Gb  cyrillic20_20x20.o [1]
acGUI_Fontcyrillic20_20x20_21D4
                        0x08066308    0x24  Data  Gb  cyrillic20_20x20.o [1]
acGUI_Fontcyrillic20_20x20_2200
                        0x0806632c    0x20  Data  Gb  cyrillic20_20x20.o [1]
acGUI_Fontcyrillic20_20x20_2202
                        0x0806634c    0x1c  Data  Gb  cyrillic20_20x20.o [1]
acGUI_Fontcyrillic20_20x20_2203
                        0x08066368    0x1c  Data  Gb  cyrillic20_20x20.o [1]
acGUI_Fontcyrillic20_20x20_2207
                        0x08066384    0x1c  Data  Gb  cyrillic20_20x20.o [1]
acGUI_Fontcyrillic20_20x20_2208
                        0x080663a0    0x18  Data  Gb  cyrillic20_20x20.o [1]
acGUI_Fontcyrillic20_20x20_220B
                        0x080663b8    0x18  Data  Gb  cyrillic20_20x20.o [1]
acGUI_Fontcyrillic20_20x20_220F
                        0x080663d0    0x24  Data  Gb  cyrillic20_20x20.o [1]
acGUI_Fontcyrillic20_20x20_2211
                        0x080663f4    0x24  Data  Gb  cyrillic20_20x20.o [1]
acGUI_Fontcyrillic20_20x20_221A
                        0x08066418    0x24  Data  Gb  cyrillic20_20x20.o [1]
acGUI_Fontcyrillic20_20x20_221D
                        0x0806643c    0x10  Data  Gb  cyrillic20_20x20.o [1]
acGUI_Fontcyrillic20_20x20_221E
                        0x0806644c    0x10  Data  Gb  cyrillic20_20x20.o [1]
acGUI_Fontcyrillic20_20x20_2220
                        0x0806645c    0x1c  Data  Gb  cyrillic20_20x20.o [1]
acGUI_Fontcyrillic20_20x20_2225
                        0x08066478    0x10  Data  Gb  cyrillic20_20x20.o [1]
acGUI_Fontcyrillic20_20x20_2227
                        0x08066488    0x1c  Data  Gb  cyrillic20_20x20.o [1]
acGUI_Fontcyrillic20_20x20_2228
                        0x080664a4    0x1c  Data  Gb  cyrillic20_20x20.o [1]
acGUI_Fontcyrillic20_20x20_2229
                        0x080664c0    0x1c  Data  Gb  cyrillic20_20x20.o [1]
acGUI_Fontcyrillic20_20x20_222A
                        0x080664dc    0x1c  Data  Gb  cyrillic20_20x20.o [1]
acGUI_Fontcyrillic20_20x20_222B
                        0x080664f8    0x14  Data  Gb  cyrillic20_20x20.o [1]
acGUI_Fontcyrillic20_20x20_222C
                        0x0806650c    0x20  Data  Gb  cyrillic20_20x20.o [1]
acGUI_Fontcyrillic20_20x20_222E
                        0x0806652c    0x24  Data  Gb  cyrillic20_20x20.o [1]
acGUI_Fontcyrillic20_20x20_2234
                        0x08066550    0x14  Data  Gb  cyrillic20_20x20.o [1]
acGUI_Fontcyrillic20_20x20_2235
                        0x08066564    0x14  Data  Gb  cyrillic20_20x20.o [1]
acGUI_Fontcyrillic20_20x20_223C
                        0x08066578     0x8  Data  Gb  cyrillic20_20x20.o [1]
acGUI_Fontcyrillic20_20x20_223D
                        0x08066580    0x10  Data  Gb  cyrillic20_20x20.o [1]
acGUI_Fontcyrillic20_20x20_2252
                        0x08066590    0x20  Data  Gb  cyrillic20_20x20.o [1]
acGUI_Fontcyrillic20_20x20_2260
                        0x080665b0    0x14  Data  Gb  cyrillic20_20x20.o [1]
acGUI_Fontcyrillic20_20x20_2261
                        0x080665c4    0x10  Data  Gb  cyrillic20_20x20.o [1]
acGUI_Fontcyrillic20_20x20_2264
                        0x080665d4    0x18  Data  Gb  cyrillic20_20x20.o [1]
acGUI_Fontcyrillic20_20x20_2265
                        0x080665ec    0x18  Data  Gb  cyrillic20_20x20.o [1]
acGUI_Fontcyrillic20_20x20_226A
                        0x08066604    0x30  Data  Gb  cyrillic20_20x20.o [1]
acGUI_Fontcyrillic20_20x20_226B
                        0x08066634    0x30  Data  Gb  cyrillic20_20x20.o [1]
acGUI_Fontcyrillic20_20x20_2282
                        0x08066664    0x18  Data  Gb  cyrillic20_20x20.o [1]
acGUI_Fontcyrillic20_20x20_2283
                        0x0806667c    0x18  Data  Gb  cyrillic20_20x20.o [1]
acGUI_Fontcyrillic20_20x20_2286
                        0x08066694    0x1c  Data  Gb  cyrillic20_20x20.o [1]
acGUI_Fontcyrillic20_20x20_2287
                        0x080666b0    0x1c  Data  Gb  cyrillic20_20x20.o [1]
acGUI_Fontcyrillic20_20x20_2299
                        0x080666cc    0x34  Data  Gb  cyrillic20_20x20.o [1]
acGUI_Fontcyrillic20_20x20_22A5
                        0x08066700    0x18  Data  Gb  cyrillic20_20x20.o [1]
acGUI_Fontcyrillic20_20x20_2460
                        0x08066718    0x38  Data  Gb  cyrillic20_20x20.o [1]
acGUI_Fontcyrillic20_20x20_2461
                        0x08066750    0x38  Data  Gb  cyrillic20_20x20.o [1]
acGUI_Fontcyrillic20_20x20_2462
                        0x08066788    0x38  Data  Gb  cyrillic20_20x20.o [1]
acGUI_Fontcyrillic20_20x20_2463
                        0x080667c0    0x38  Data  Gb  cyrillic20_20x20.o [1]
acGUI_Fontcyrillic20_20x20_2464
                        0x080667f8    0x38  Data  Gb  cyrillic20_20x20.o [1]
acGUI_Fontcyrillic20_20x20_2465
                        0x08066830    0x38  Data  Gb  cyrillic20_20x20.o [1]
acGUI_Fontcyrillic20_20x20_2466
                        0x08066868    0x38  Data  Gb  cyrillic20_20x20.o [1]
acGUI_Fontcyrillic20_20x20_2467
                        0x080668a0    0x38  Data  Gb  cyrillic20_20x20.o [1]
acGUI_Fontcyrillic20_20x20_2468
                        0x080668d8    0x38  Data  Gb  cyrillic20_20x20.o [1]
acGUI_Fontcyrillic20_20x20_2469
                        0x08066910    0x38  Data  Gb  cyrillic20_20x20.o [1]
acGUI_Fontcyrillic20_20x20_246A
                        0x08066948    0x38  Data  Gb  cyrillic20_20x20.o [1]
acGUI_Fontcyrillic20_20x20_246B
                        0x08066980    0x38  Data  Gb  cyrillic20_20x20.o [1]
acGUI_Fontcyrillic20_20x20_246C
                        0x080669b8    0x38  Data  Gb  cyrillic20_20x20.o [1]
acGUI_Fontcyrillic20_20x20_246D
                        0x080669f0    0x38  Data  Gb  cyrillic20_20x20.o [1]
acGUI_Fontcyrillic20_20x20_246E
                        0x08066a28    0x38  Data  Gb  cyrillic20_20x20.o [1]
acGUI_Fontcyrillic20_20x20_2474
                        0x08066a60    0x30  Data  Gb  cyrillic20_20x20.o [1]
acGUI_Fontcyrillic20_20x20_2475
                        0x08066a90    0x30  Data  Gb  cyrillic20_20x20.o [1]
acGUI_Fontcyrillic20_20x20_2476
                        0x08066ac0    0x30  Data  Gb  cyrillic20_20x20.o [1]
acGUI_Fontcyrillic20_20x20_2477
                        0x08066af0    0x30  Data  Gb  cyrillic20_20x20.o [1]
acGUI_Fontcyrillic20_20x20_2478
                        0x08066b20    0x30  Data  Gb  cyrillic20_20x20.o [1]
acGUI_Fontcyrillic20_20x20_2479
                        0x08066b50    0x30  Data  Gb  cyrillic20_20x20.o [1]
acGUI_Fontcyrillic20_20x20_247A
                        0x08066b80    0x30  Data  Gb  cyrillic20_20x20.o [1]
acGUI_Fontcyrillic20_20x20_247B
                        0x08066bb0    0x30  Data  Gb  cyrillic20_20x20.o [1]
acGUI_Fontcyrillic20_20x20_247C
                        0x08066be0    0x30  Data  Gb  cyrillic20_20x20.o [1]
acGUI_Fontcyrillic20_20x20_247D
                        0x08066c10    0x30  Data  Gb  cyrillic20_20x20.o [1]
acGUI_Fontcyrillic20_20x20_247E
                        0x08066c40    0x30  Data  Gb  cyrillic20_20x20.o [1]
acGUI_Fontcyrillic20_20x20_247F
                        0x08066c70    0x30  Data  Gb  cyrillic20_20x20.o [1]
acGUI_Fontcyrillic20_20x20_2480
                        0x08066ca0    0x30  Data  Gb  cyrillic20_20x20.o [1]
acGUI_Fontcyrillic20_20x20_2481
                        0x08066cd0    0x30  Data  Gb  cyrillic20_20x20.o [1]
acGUI_Fontcyrillic20_20x20_2482
                        0x08066d00    0x30  Data  Gb  cyrillic20_20x20.o [1]
acGUI_Fontcyrillic20_20x20_249C
                        0x08066d30    0x30  Data  Gb  cyrillic20_20x20.o [1]
acGUI_Fontcyrillic20_20x20_249D
                        0x08066d60    0x30  Data  Gb  cyrillic20_20x20.o [1]
acGUI_Fontcyrillic20_20x20_249E
                        0x08066d90    0x30  Data  Gb  cyrillic20_20x20.o [1]
acGUI_Fontcyrillic20_20x20_249F
                        0x08066dc0    0x30  Data  Gb  cyrillic20_20x20.o [1]
acGUI_Fontcyrillic20_20x20_24A0
                        0x08066df0    0x30  Data  Gb  cyrillic20_20x20.o [1]
acGUI_Fontcyrillic20_20x20_24A1
                        0x08066e20    0x30  Data  Gb  cyrillic20_20x20.o [1]
acGUI_Fontcyrillic20_20x20_24A2
                        0x08066e50    0x30  Data  Gb  cyrillic20_20x20.o [1]
acGUI_Fontcyrillic20_20x20_24A3
                        0x08066e80    0x30  Data  Gb  cyrillic20_20x20.o [1]
acGUI_Fontcyrillic20_20x20_24A4
                        0x08066eb0    0x30  Data  Gb  cyrillic20_20x20.o [1]
acGUI_Fontcyrillic20_20x20_24A5
                        0x08066ee0    0x30  Data  Gb  cyrillic20_20x20.o [1]
acGUI_Fontcyrillic20_20x20_24A6
                        0x08066f10    0x30  Data  Gb  cyrillic20_20x20.o [1]
acGUI_Fontcyrillic20_20x20_24A7
                        0x08066f40    0x30  Data  Gb  cyrillic20_20x20.o [1]
acGUI_Fontcyrillic20_20x20_24A8
                        0x08066f70    0x30  Data  Gb  cyrillic20_20x20.o [1]
acGUI_Fontcyrillic20_20x20_24A9
                        0x08066fa0    0x30  Data  Gb  cyrillic20_20x20.o [1]
acGUI_Fontcyrillic20_20x20_24AA
                        0x08066fd0    0x30  Data  Gb  cyrillic20_20x20.o [1]
acGUI_Fontcyrillic20_20x20_24AB
                        0x08067000    0x30  Data  Gb  cyrillic20_20x20.o [1]
acGUI_Fontcyrillic20_20x20_24AC
                        0x08067030    0x30  Data  Gb  cyrillic20_20x20.o [1]
acGUI_Fontcyrillic20_20x20_24AD
                        0x08067060    0x30  Data  Gb  cyrillic20_20x20.o [1]
acGUI_Fontcyrillic20_20x20_24AE
                        0x08067090    0x30  Data  Gb  cyrillic20_20x20.o [1]
acGUI_Fontcyrillic20_20x20_24AF
                        0x080670c0    0x30  Data  Gb  cyrillic20_20x20.o [1]
acGUI_Fontcyrillic20_20x20_24B0
                        0x080670f0    0x30  Data  Gb  cyrillic20_20x20.o [1]
acGUI_Fontcyrillic20_20x20_24B1
                        0x08067120    0x30  Data  Gb  cyrillic20_20x20.o [1]
acGUI_Fontcyrillic20_20x20_24B2
                        0x08067150    0x30  Data  Gb  cyrillic20_20x20.o [1]
acGUI_Fontcyrillic20_20x20_24B3
                        0x08067180    0x30  Data  Gb  cyrillic20_20x20.o [1]
acGUI_Fontcyrillic20_20x20_24B4
                        0x080671b0    0x30  Data  Gb  cyrillic20_20x20.o [1]
acGUI_Fontcyrillic20_20x20_24B5
                        0x080671e0    0x30  Data  Gb  cyrillic20_20x20.o [1]
acGUI_Fontcyrillic20_20x20_24D0
                        0x08067210    0x38  Data  Gb  cyrillic20_20x20.o [1]
acGUI_Fontcyrillic20_20x20_24D1
                        0x08067248    0x38  Data  Gb  cyrillic20_20x20.o [1]
acGUI_Fontcyrillic20_20x20_24D2
                        0x08067280    0x38  Data  Gb  cyrillic20_20x20.o [1]
acGUI_Fontcyrillic20_20x20_24D3
                        0x080672b8    0x38  Data  Gb  cyrillic20_20x20.o [1]
acGUI_Fontcyrillic20_20x20_24D4
                        0x080672f0    0x38  Data  Gb  cyrillic20_20x20.o [1]
acGUI_Fontcyrillic20_20x20_24D5
                        0x08067328    0x38  Data  Gb  cyrillic20_20x20.o [1]
acGUI_Fontcyrillic20_20x20_24D6
                        0x08067360    0x38  Data  Gb  cyrillic20_20x20.o [1]
acGUI_Fontcyrillic20_20x20_24D7
                        0x08067398    0x38  Data  Gb  cyrillic20_20x20.o [1]
acGUI_Fontcyrillic20_20x20_24D8
                        0x080673d0    0x38  Data  Gb  cyrillic20_20x20.o [1]
acGUI_Fontcyrillic20_20x20_24D9
                        0x08067408    0x38  Data  Gb  cyrillic20_20x20.o [1]
acGUI_Fontcyrillic20_20x20_24DA
                        0x08067440    0x38  Data  Gb  cyrillic20_20x20.o [1]
acGUI_Fontcyrillic20_20x20_24DB
                        0x08067478    0x38  Data  Gb  cyrillic20_20x20.o [1]
acGUI_Fontcyrillic20_20x20_24DC
                        0x080674b0    0x38  Data  Gb  cyrillic20_20x20.o [1]
acGUI_Fontcyrillic20_20x20_24DD
                        0x080674e8    0x38  Data  Gb  cyrillic20_20x20.o [1]
acGUI_Fontcyrillic20_20x20_24DE
                        0x08067520    0x38  Data  Gb  cyrillic20_20x20.o [1]
acGUI_Fontcyrillic20_20x20_24DF
                        0x08067558    0x38  Data  Gb  cyrillic20_20x20.o [1]
acGUI_Fontcyrillic20_20x20_24E0
                        0x08067590    0x38  Data  Gb  cyrillic20_20x20.o [1]
acGUI_Fontcyrillic20_20x20_24E1
                        0x080675c8    0x38  Data  Gb  cyrillic20_20x20.o [1]
acGUI_Fontcyrillic20_20x20_24E2
                        0x08067600    0x38  Data  Gb  cyrillic20_20x20.o [1]
acGUI_Fontcyrillic20_20x20_24E3
                        0x08067638    0x38  Data  Gb  cyrillic20_20x20.o [1]
acGUI_Fontcyrillic20_20x20_24E4
                        0x08067670    0x38  Data  Gb  cyrillic20_20x20.o [1]
acGUI_Fontcyrillic20_20x20_24E5
                        0x080676a8    0x38  Data  Gb  cyrillic20_20x20.o [1]
acGUI_Fontcyrillic20_20x20_24E6
                        0x080676e0    0x38  Data  Gb  cyrillic20_20x20.o [1]
acGUI_Fontcyrillic20_20x20_24E7
                        0x08067718    0x38  Data  Gb  cyrillic20_20x20.o [1]
acGUI_Fontcyrillic20_20x20_24E8
                        0x08067750    0x38  Data  Gb  cyrillic20_20x20.o [1]
acGUI_Fontcyrillic20_20x20_24E9
                        0x08067788    0x38  Data  Gb  cyrillic20_20x20.o [1]
acGUI_Fontcyrillic20_20x20_2592
                        0x080677c0    0x3c  Data  Gb  cyrillic20_20x20.o [1]
acGUI_Fontcyrillic20_20x20_25A0
                        0x080677fc    0x20  Data  Gb  cyrillic20_20x20.o [1]
acGUI_Fontcyrillic20_20x20_25A1
                        0x0806781c    0x20  Data  Gb  cyrillic20_20x20.o [1]
acGUI_Fontcyrillic20_20x20_25A3
                        0x0806783c    0x20  Data  Gb  cyrillic20_20x20.o [1]
acGUI_Fontcyrillic20_20x20_25A4
                        0x0806785c    0x20  Data  Gb  cyrillic20_20x20.o [1]
acGUI_Fontcyrillic20_20x20_25A5
                        0x0806787c    0x20  Data  Gb  cyrillic20_20x20.o [1]
acGUI_Fontcyrillic20_20x20_25A6
                        0x0806789c    0x20  Data  Gb  cyrillic20_20x20.o [1]
acGUI_Fontcyrillic20_20x20_25A7
                        0x080678bc    0x20  Data  Gb  cyrillic20_20x20.o [1]
acGUI_Fontcyrillic20_20x20_25A8
                        0x080678dc    0x20  Data  Gb  cyrillic20_20x20.o [1]
acGUI_Fontcyrillic20_20x20_25A9
                        0x080678fc    0x20  Data  Gb  cyrillic20_20x20.o [1]
acGUI_Fontcyrillic20_20x20_25B2
                        0x0806791c    0x20  Data  Gb  cyrillic20_20x20.o [1]
acGUI_Fontcyrillic20_20x20_25B3
                        0x0806793c    0x1c  Data  Gb  cyrillic20_20x20.o [1]
acGUI_Fontcyrillic20_20x20_25B6
                        0x08067958    0x20  Data  Gb  cyrillic20_20x20.o [1]
acGUI_Fontcyrillic20_20x20_25B7
                        0x08067978    0x20  Data  Gb  cyrillic20_20x20.o [1]
acGUI_Fontcyrillic20_20x20_25BC
                        0x08067998    0x20  Data  Gb  cyrillic20_20x20.o [1]
acGUI_Fontcyrillic20_20x20_25BD
                        0x080679b8    0x1c  Data  Gb  cyrillic20_20x20.o [1]
acGUI_Fontcyrillic20_20x20_25C0
                        0x080679d4    0x20  Data  Gb  cyrillic20_20x20.o [1]
acGUI_Fontcyrillic20_20x20_25C1
                        0x080679f4    0x20  Data  Gb  cyrillic20_20x20.o [1]
acGUI_Fontcyrillic20_20x20_25C6
                        0x08067a14    0x34  Data  Gb  cyrillic20_20x20.o [1]
acGUI_Fontcyrillic20_20x20_25C7
                        0x08067a48    0x34  Data  Gb  cyrillic20_20x20.o [1]
acGUI_Fontcyrillic20_20x20_25C8
                        0x08067a7c    0x3c  Data  Gb  cyrillic20_20x20.o [1]
acGUI_Fontcyrillic20_20x20_25CB
                        0x08067ab8    0x20  Data  Gb  cyrillic20_20x20.o [1]
acGUI_Fontcyrillic20_20x20_25CE
                        0x08067ad8    0x20  Data  Gb  cyrillic20_20x20.o [1]
acGUI_Fontcyrillic20_20x20_25CF
                        0x08067af8    0x20  Data  Gb  cyrillic20_20x20.o [1]
acGUI_Fontcyrillic20_20x20_25D0
                        0x08067b18    0x34  Data  Gb  cyrillic20_20x20.o [1]
acGUI_Fontcyrillic20_20x20_25D1
                        0x08067b4c    0x34  Data  Gb  cyrillic20_20x20.o [1]
acGUI_Fontcyrillic20_20x20_3001
                        0x08067b80     0x4  Data  Gb  cyrillic20_20x20.o [1]
acGUI_Fontcyrillic20_20x20_3002
                        0x08067b84     0x8  Data  Gb  cyrillic20_20x20.o [1]
acGUI_Fontcyrillic20_20x20_3003
                        0x08067b8c     0x8  Data  Gb  cyrillic20_20x20.o [1]
acGUI_Fontcyrillic20_20x20_FFE0
                        0x08067b94    0x24  Data  Gb  cyrillic20_20x20.o [1]
acGUI_Fontcyrillic20_20x20_FFE1
                        0x08067bb8    0x20  Data  Gb  cyrillic20_20x20.o [1]
acGUI_Fontcyrillic20_20x20_FFE5
                        0x08067bd8    0x20  Data  Gb  cyrillic20_20x20.o [1]
acGUI_Fontcyrillic_24x24_0020
                        0x0805acc4    0x18  Data  Gb  cyrillic_24x24.o [1]
acGUI_Fontcyrillic_24x24_0021
                        0x0805acdc    0x10  Data  Gb  cyrillic_24x24.o [1]
acGUI_Fontcyrillic_24x24_0022
                        0x0805acec     0x8  Data  Gb  cyrillic_24x24.o [1]
acGUI_Fontcyrillic_24x24_0023
                        0x0805acf4    0x20  Data  Gb  cyrillic_24x24.o [1]
acGUI_Fontcyrillic_24x24_0024
                        0x0805ad14    0x2c  Data  Gb  cyrillic_24x24.o [1]
acGUI_Fontcyrillic_24x24_0025
                        0x0805ad40    0x30  Data  Gb  cyrillic_24x24.o [1]
acGUI_Fontcyrillic_24x24_0026
                        0x0805ad70    0x20  Data  Gb  cyrillic_24x24.o [1]
acGUI_Fontcyrillic_24x24_0027
                        0x0805ad90     0x8  Data  Gb  cyrillic_24x24.o [1]
acGUI_Fontcyrillic_24x24_0028
                        0x0805ad98    0x18  Data  Gb  cyrillic_24x24.o [1]
acGUI_Fontcyrillic_24x24_0029
                        0x0805adb0    0x18  Data  Gb  cyrillic_24x24.o [1]
acGUI_Fontcyrillic_24x24_002A
                        0x0805adc8    0x14  Data  Gb  cyrillic_24x24.o [1]
acGUI_Fontcyrillic_24x24_002B
                        0x0805addc    0x1c  Data  Gb  cyrillic_24x24.o [1]
acGUI_Fontcyrillic_24x24_002C
                        0x0805adf8     0x8  Data  Gb  cyrillic_24x24.o [1]
acGUI_Fontcyrillic_24x24_002D
                        0x0805ae00     0x2  Data  Gb  cyrillic_24x24.o [1]
acGUI_Fontcyrillic_24x24_002E
                        0x0805ae04     0x4  Data  Gb  cyrillic_24x24.o [1]
acGUI_Fontcyrillic_24x24_002F
                        0x0805ae08    0x28  Data  Gb  cyrillic_24x24.o [1]
acGUI_Fontcyrillic_24x24_0030
                        0x0805ae30    0x20  Data  Gb  cyrillic_24x24.o [1]
acGUI_Fontcyrillic_24x24_0031
                        0x0805ae50    0x10  Data  Gb  cyrillic_24x24.o [1]
acGUI_Fontcyrillic_24x24_0032
                        0x0805ae60    0x20  Data  Gb  cyrillic_24x24.o [1]
acGUI_Fontcyrillic_24x24_0033
                        0x0805ae80    0x20  Data  Gb  cyrillic_24x24.o [1]
acGUI_Fontcyrillic_24x24_0034
                        0x0805aea0    0x20  Data  Gb  cyrillic_24x24.o [1]
acGUI_Fontcyrillic_24x24_0035
                        0x0805aec0    0x20  Data  Gb  cyrillic_24x24.o [1]
acGUI_Fontcyrillic_24x24_0036
                        0x0805aee0    0x20  Data  Gb  cyrillic_24x24.o [1]
acGUI_Fontcyrillic_24x24_0037
                        0x0805af00    0x20  Data  Gb  cyrillic_24x24.o [1]
acGUI_Fontcyrillic_24x24_0038
                        0x0805af20    0x20  Data  Gb  cyrillic_24x24.o [1]
acGUI_Fontcyrillic_24x24_0039
                        0x0805af40    0x20  Data  Gb  cyrillic_24x24.o [1]
acGUI_Fontcyrillic_24x24_003A
                        0x0805af60     0xc  Data  Gb  cyrillic_24x24.o [1]
acGUI_Fontcyrillic_24x24_003B
                        0x0805af6c    0x10  Data  Gb  cyrillic_24x24.o [1]
acGUI_Fontcyrillic_24x24_003C
                        0x0805af7c    0x18  Data  Gb  cyrillic_24x24.o [1]
acGUI_Fontcyrillic_24x24_003D
                        0x0805af94    0x10  Data  Gb  cyrillic_24x24.o [1]
acGUI_Fontcyrillic_24x24_003E
                        0x0805afa4    0x18  Data  Gb  cyrillic_24x24.o [1]
acGUI_Fontcyrillic_24x24_003F
                        0x0805afbc    0x20  Data  Gb  cyrillic_24x24.o [1]
acGUI_Fontcyrillic_24x24_0040
                        0x0805afdc    0x3c  Data  Gb  cyrillic_24x24.o [1]
acGUI_Fontcyrillic_24x24_0041
                        0x0805b018    0x20  Data  Gb  cyrillic_24x24.o [1]
acGUI_Fontcyrillic_24x24_0042
                        0x0805b038    0x20  Data  Gb  cyrillic_24x24.o [1]
acGUI_Fontcyrillic_24x24_0043
                        0x0805b058    0x20  Data  Gb  cyrillic_24x24.o [1]
acGUI_Fontcyrillic_24x24_0044
                        0x0805b078    0x20  Data  Gb  cyrillic_24x24.o [1]
acGUI_Fontcyrillic_24x24_0045
                        0x0805b098    0x20  Data  Gb  cyrillic_24x24.o [1]
acGUI_Fontcyrillic_24x24_0046
                        0x0805b0b8    0x20  Data  Gb  cyrillic_24x24.o [1]
acGUI_Fontcyrillic_24x24_0047
                        0x0805b0d8    0x20  Data  Gb  cyrillic_24x24.o [1]
acGUI_Fontcyrillic_24x24_0048
                        0x0805b0f8    0x20  Data  Gb  cyrillic_24x24.o [1]
acGUI_Fontcyrillic_24x24_0049
                        0x0805b118    0x10  Data  Gb  cyrillic_24x24.o [1]
acGUI_Fontcyrillic_24x24_004A
                        0x0805b128    0x10  Data  Gb  cyrillic_24x24.o [1]
acGUI_Fontcyrillic_24x24_004B
                        0x0805b138    0x20  Data  Gb  cyrillic_24x24.o [1]
acGUI_Fontcyrillic_24x24_004C
                        0x0805b158    0x20  Data  Gb  cyrillic_24x24.o [1]
acGUI_Fontcyrillic_24x24_004D
                        0x0805b178    0x20  Data  Gb  cyrillic_24x24.o [1]
acGUI_Fontcyrillic_24x24_004E
                        0x0805b198    0x20  Data  Gb  cyrillic_24x24.o [1]
acGUI_Fontcyrillic_24x24_004F
                        0x0805b1b8    0x20  Data  Gb  cyrillic_24x24.o [1]
acGUI_Fontcyrillic_24x24_0050
                        0x0805b1d8    0x20  Data  Gb  cyrillic_24x24.o [1]
acGUI_Fontcyrillic_24x24_0051
                        0x0805b1f8    0x28  Data  Gb  cyrillic_24x24.o [1]
acGUI_Fontcyrillic_24x24_0052
                        0x0805b220    0x20  Data  Gb  cyrillic_24x24.o [1]
acGUI_Fontcyrillic_24x24_0053
                        0x0805b240    0x20  Data  Gb  cyrillic_24x24.o [1]
acGUI_Fontcyrillic_24x24_0054
                        0x0805b260    0x20  Data  Gb  cyrillic_24x24.o [1]
acGUI_Fontcyrillic_24x24_0055
                        0x0805b280    0x20  Data  Gb  cyrillic_24x24.o [1]
acGUI_Fontcyrillic_24x24_0056
                        0x0805b2a0    0x20  Data  Gb  cyrillic_24x24.o [1]
acGUI_Fontcyrillic_24x24_0057
                        0x0805b2c0    0x30  Data  Gb  cyrillic_24x24.o [1]
acGUI_Fontcyrillic_24x24_0058
                        0x0805b2f0    0x20  Data  Gb  cyrillic_24x24.o [1]
acGUI_Fontcyrillic_24x24_0059
                        0x0805b310    0x20  Data  Gb  cyrillic_24x24.o [1]
acGUI_Fontcyrillic_24x24_005A
                        0x0805b330    0x20  Data  Gb  cyrillic_24x24.o [1]
acGUI_Fontcyrillic_24x24_005B
                        0x0805b350    0x18  Data  Gb  cyrillic_24x24.o [1]
acGUI_Fontcyrillic_24x24_005C
                        0x0805b368    0x28  Data  Gb  cyrillic_24x24.o [1]
acGUI_Fontcyrillic_24x24_005D
                        0x0805b390    0x18  Data  Gb  cyrillic_24x24.o [1]
acGUI_Fontcyrillic_24x24_005E
                        0x0805b3a8    0x14  Data  Gb  cyrillic_24x24.o [1]
acGUI_Fontcyrillic_24x24_005F
                        0x0805b3bc     0x2  Data  Gb  cyrillic_24x24.o [1]
acGUI_Fontcyrillic_24x24_0060
                        0x0805b3c0     0x4  Data  Gb  cyrillic_24x24.o [1]
acGUI_Fontcyrillic_24x24_0061
                        0x0805b3c4    0x18  Data  Gb  cyrillic_24x24.o [1]
acGUI_Fontcyrillic_24x24_0062
                        0x0805b3dc    0x24  Data  Gb  cyrillic_24x24.o [1]
acGUI_Fontcyrillic_24x24_0063
                        0x0805b400    0x18  Data  Gb  cyrillic_24x24.o [1]
acGUI_Fontcyrillic_24x24_0064
                        0x0805b418    0x24  Data  Gb  cyrillic_24x24.o [1]
acGUI_Fontcyrillic_24x24_0065
                        0x0805b43c    0x18  Data  Gb  cyrillic_24x24.o [1]
acGUI_Fontcyrillic_24x24_0066
                        0x0805b454    0x14  Data  Gb  cyrillic_24x24.o [1]
acGUI_Fontcyrillic_24x24_0067
                        0x0805b468    0x20  Data  Gb  cyrillic_24x24.o [1]
acGUI_Fontcyrillic_24x24_0068
                        0x0805b488    0x24  Data  Gb  cyrillic_24x24.o [1]
acGUI_Fontcyrillic_24x24_0069
                        0x0805b4ac    0x10  Data  Gb  cyrillic_24x24.o [1]
acGUI_Fontcyrillic_24x24_006A
                        0x0805b4bc    0x14  Data  Gb  cyrillic_24x24.o [1]
acGUI_Fontcyrillic_24x24_006B
                        0x0805b4d0    0x24  Data  Gb  cyrillic_24x24.o [1]
acGUI_Fontcyrillic_24x24_006C
                        0x0805b4f4    0x14  Data  Gb  cyrillic_24x24.o [1]
acGUI_Fontcyrillic_24x24_006D
                        0x0805b508    0x24  Data  Gb  cyrillic_24x24.o [1]
acGUI_Fontcyrillic_24x24_006E
                        0x0805b52c    0x18  Data  Gb  cyrillic_24x24.o [1]
acGUI_Fontcyrillic_24x24_006F
                        0x0805b544    0x18  Data  Gb  cyrillic_24x24.o [1]
acGUI_Fontcyrillic_24x24_0070
                        0x0805b55c    0x20  Data  Gb  cyrillic_24x24.o [1]
acGUI_Fontcyrillic_24x24_0071
                        0x0805b57c    0x20  Data  Gb  cyrillic_24x24.o [1]
acGUI_Fontcyrillic_24x24_0072
                        0x0805b59c     0xc  Data  Gb  cyrillic_24x24.o [1]
acGUI_Fontcyrillic_24x24_0073
                        0x0805b5a8    0x18  Data  Gb  cyrillic_24x24.o [1]
acGUI_Fontcyrillic_24x24_0074
                        0x0805b5c0    0x10  Data  Gb  cyrillic_24x24.o [1]
acGUI_Fontcyrillic_24x24_0075
                        0x0805b5d0    0x18  Data  Gb  cyrillic_24x24.o [1]
acGUI_Fontcyrillic_24x24_0076
                        0x0805b5e8    0x18  Data  Gb  cyrillic_24x24.o [1]
acGUI_Fontcyrillic_24x24_0077
                        0x0805b600    0x18  Data  Gb  cyrillic_24x24.o [1]
acGUI_Fontcyrillic_24x24_0078
                        0x0805b618    0x18  Data  Gb  cyrillic_24x24.o [1]
acGUI_Fontcyrillic_24x24_0079
                        0x0805b630    0x20  Data  Gb  cyrillic_24x24.o [1]
acGUI_Fontcyrillic_24x24_007A
                        0x0805b650    0x18  Data  Gb  cyrillic_24x24.o [1]
acGUI_Fontcyrillic_24x24_007B
                        0x0805b668    0x2c  Data  Gb  cyrillic_24x24.o [1]
acGUI_Fontcyrillic_24x24_007C
                        0x0805b694    0x18  Data  Gb  cyrillic_24x24.o [1]
acGUI_Fontcyrillic_24x24_007D
                        0x0805b6ac    0x2c  Data  Gb  cyrillic_24x24.o [1]
acGUI_Fontcyrillic_24x24_007E
                        0x0805b6d8     0xc  Data  Gb  cyrillic_24x24.o [1]
acGUI_Fontcyrillic_24x24_00A1
                        0x0805b6e4    0x14  Data  Gb  cyrillic_24x24.o [1]
acGUI_Fontcyrillic_24x24_00A4
                        0x0805b6f8    0x18  Data  Gb  cyrillic_24x24.o [1]
acGUI_Fontcyrillic_24x24_00A7
                        0x0805b710    0x30  Data  Gb  cyrillic_24x24.o [1]
acGUI_Fontcyrillic_24x24_00A8
                        0x0805b740     0x2  Data  Gb  cyrillic_24x24.o [1]
acGUI_Fontcyrillic_24x24_00AA
                        0x0805b744    0x18  Data  Gb  cyrillic_24x24.o [1]
acGUI_Fontcyrillic_24x24_00AD
                        0x0805b75c     0x2  Data  Gb  cyrillic_24x24.o [1]
acGUI_Fontcyrillic_24x24_00AE
                        0x0805b760    0x3c  Data  Gb  cyrillic_24x24.o [1]
acGUI_Fontcyrillic_24x24_00B0
                        0x0805b79c    0x14  Data  Gb  cyrillic_24x24.o [1]
acGUI_Fontcyrillic_24x24_00B1
                        0x0805b7b0    0x20  Data  Gb  cyrillic_24x24.o [1]
acGUI_Fontcyrillic_24x24_00B2
                        0x0805b7d0    0x18  Data  Gb  cyrillic_24x24.o [1]
acGUI_Fontcyrillic_24x24_00B3
                        0x0805b7e8    0x18  Data  Gb  cyrillic_24x24.o [1]
acGUI_Fontcyrillic_24x24_00B4
                        0x0805b800     0x4  Data  Gb  cyrillic_24x24.o [1]
acGUI_Fontcyrillic_24x24_00B6
                        0x0805b804    0x2c  Data  Gb  cyrillic_24x24.o [1]
acGUI_Fontcyrillic_24x24_00B7
                        0x0805b830     0x4  Data  Gb  cyrillic_24x24.o [1]
acGUI_Fontcyrillic_24x24_00B8
                        0x0805b834     0x8  Data  Gb  cyrillic_24x24.o [1]
acGUI_Fontcyrillic_24x24_00B9
                        0x0805b83c     0xc  Data  Gb  cyrillic_24x24.o [1]
acGUI_Fontcyrillic_24x24_00BA
                        0x0805b848    0x18  Data  Gb  cyrillic_24x24.o [1]
acGUI_Fontcyrillic_24x24_00BC
                        0x0805b860    0x38  Data  Gb  cyrillic_24x24.o [1]
acGUI_Fontcyrillic_24x24_00BD
                        0x0805b898    0x38  Data  Gb  cyrillic_24x24.o [1]
acGUI_Fontcyrillic_24x24_00BE
                        0x0805b8d0    0x38  Data  Gb  cyrillic_24x24.o [1]
acGUI_Fontcyrillic_24x24_00BF
                        0x0805b908    0x24  Data  Gb  cyrillic_24x24.o [1]
acGUI_Fontcyrillic_24x24_00C6
                        0x0805b92c    0x38  Data  Gb  cyrillic_24x24.o [1]
acGUI_Fontcyrillic_24x24_00D0
                        0x0805b964    0x38  Data  Gb  cyrillic_24x24.o [1]
acGUI_Fontcyrillic_24x24_00D7
                        0x0805b99c    0x1c  Data  Gb  cyrillic_24x24.o [1]
acGUI_Fontcyrillic_24x24_00D8
                        0x0805b9b8    0x3c  Data  Gb  cyrillic_24x24.o [1]
acGUI_Fontcyrillic_24x24_00DE
                        0x0805b9f4    0x24  Data  Gb  cyrillic_24x24.o [1]
acGUI_Fontcyrillic_24x24_00DF
                        0x0805ba18    0x28  Data  Gb  cyrillic_24x24.o [1]
acGUI_Fontcyrillic_24x24_00E6
                        0x0805ba40    0x28  Data  Gb  cyrillic_24x24.o [1]
acGUI_Fontcyrillic_24x24_00F0
                        0x0805ba68    0x24  Data  Gb  cyrillic_24x24.o [1]
acGUI_Fontcyrillic_24x24_00F7
                        0x0805ba8c    0x1c  Data  Gb  cyrillic_24x24.o [1]
acGUI_Fontcyrillic_24x24_00F8
                        0x0805baa8    0x20  Data  Gb  cyrillic_24x24.o [1]
acGUI_Fontcyrillic_24x24_00FE
                        0x0805bac8    0x30  Data  Gb  cyrillic_24x24.o [1]
acGUI_Fontcyrillic_24x24_0111
                        0x0805baf8    0x28  Data  Gb  cyrillic_24x24.o [1]
acGUI_Fontcyrillic_24x24_0126
                        0x0805bb20    0x38  Data  Gb  cyrillic_24x24.o [1]
acGUI_Fontcyrillic_24x24_0127
                        0x0805bb58    0x28  Data  Gb  cyrillic_24x24.o [1]
acGUI_Fontcyrillic_24x24_0131
                        0x0805bb80    0x10  Data  Gb  cyrillic_24x24.o [1]
acGUI_Fontcyrillic_24x24_0132
                        0x0805bb90    0x38  Data  Gb  cyrillic_24x24.o [1]
acGUI_Fontcyrillic_24x24_0133
                        0x0805bbc8    0x30  Data  Gb  cyrillic_24x24.o [1]
acGUI_Fontcyrillic_24x24_0138
                        0x0805bbf8    0x1c  Data  Gb  cyrillic_24x24.o [1]
acGUI_Fontcyrillic_24x24_013F
                        0x0805bc14    0x24  Data  Gb  cyrillic_24x24.o [1]
acGUI_Fontcyrillic_24x24_0140
                        0x0805bc38    0x14  Data  Gb  cyrillic_24x24.o [1]
acGUI_Fontcyrillic_24x24_0141
                        0x0805bc4c    0x24  Data  Gb  cyrillic_24x24.o [1]
acGUI_Fontcyrillic_24x24_0142
                        0x0805bc70    0x14  Data  Gb  cyrillic_24x24.o [1]
acGUI_Fontcyrillic_24x24_0149
                        0x0805bc84    0x28  Data  Gb  cyrillic_24x24.o [1]
acGUI_Fontcyrillic_24x24_014A
                        0x0805bcac    0x30  Data  Gb  cyrillic_24x24.o [1]
acGUI_Fontcyrillic_24x24_014B
                        0x0805bcdc    0x24  Data  Gb  cyrillic_24x24.o [1]
acGUI_Fontcyrillic_24x24_0152
                        0x0805bd00    0x38  Data  Gb  cyrillic_24x24.o [1]
acGUI_Fontcyrillic_24x24_0153
                        0x0805bd38    0x28  Data  Gb  cyrillic_24x24.o [1]
acGUI_Fontcyrillic_24x24_0166
                        0x0805bd60    0x24  Data  Gb  cyrillic_24x24.o [1]
acGUI_Fontcyrillic_24x24_0167
                        0x0805bd84    0x14  Data  Gb  cyrillic_24x24.o [1]
acGUI_Fontcyrillic_24x24_02C7
                        0x0805bd98     0x4  Data  Gb  cyrillic_24x24.o [1]
acGUI_Fontcyrillic_24x24_02D8
                        0x0805bd9c     0x8  Data  Gb  cyrillic_24x24.o [1]
acGUI_Fontcyrillic_24x24_02D9
                        0x0805bda4     0x2  Data  Gb  cyrillic_24x24.o [1]
acGUI_Fontcyrillic_24x24_02DA
                        0x0805bda8     0x8  Data  Gb  cyrillic_24x24.o [1]
acGUI_Fontcyrillic_24x24_02DB
                        0x0805bdb0     0x8  Data  Gb  cyrillic_24x24.o [1]
acGUI_Fontcyrillic_24x24_02DD
                        0x0805bdb8     0x8  Data  Gb  cyrillic_24x24.o [1]
acGUI_Fontcyrillic_24x24_0391
                        0x0805bdc0    0x24  Data  Gb  cyrillic_24x24.o [1]
acGUI_Fontcyrillic_24x24_0392
                        0x0805bde4    0x24  Data  Gb  cyrillic_24x24.o [1]
acGUI_Fontcyrillic_24x24_0393
                        0x0805be08    0x24  Data  Gb  cyrillic_24x24.o [1]
acGUI_Fontcyrillic_24x24_0394
                        0x0805be2c    0x38  Data  Gb  cyrillic_24x24.o [1]
acGUI_Fontcyrillic_24x24_0395
                        0x0805be64    0x24  Data  Gb  cyrillic_24x24.o [1]
acGUI_Fontcyrillic_24x24_0396
                        0x0805be88    0x24  Data  Gb  cyrillic_24x24.o [1]
acGUI_Fontcyrillic_24x24_0397
                        0x0805beac    0x24  Data  Gb  cyrillic_24x24.o [1]
acGUI_Fontcyrillic_24x24_0398
                        0x0805bed0    0x38  Data  Gb  cyrillic_24x24.o [1]
acGUI_Fontcyrillic_24x24_0399
                        0x0805bf08    0x14  Data  Gb  cyrillic_24x24.o [1]
acGUI_Fontcyrillic_24x24_039A
                        0x0805bf1c    0x24  Data  Gb  cyrillic_24x24.o [1]
acGUI_Fontcyrillic_24x24_039B
                        0x0805bf40    0x24  Data  Gb  cyrillic_24x24.o [1]
acGUI_Fontcyrillic_24x24_039C
                        0x0805bf64    0x24  Data  Gb  cyrillic_24x24.o [1]
acGUI_Fontcyrillic_24x24_039D
                        0x0805bf88    0x24  Data  Gb  cyrillic_24x24.o [1]
acGUI_Fontcyrillic_24x24_039E
                        0x0805bfac    0x24  Data  Gb  cyrillic_24x24.o [1]
acGUI_Fontcyrillic_24x24_039F
                        0x0805bfd0    0x38  Data  Gb  cyrillic_24x24.o [1]
acGUI_Fontcyrillic_24x24_03A0
                        0x0805c008    0x24  Data  Gb  cyrillic_24x24.o [1]
acGUI_Fontcyrillic_24x24_03A1
                        0x0805c02c    0x24  Data  Gb  cyrillic_24x24.o [1]
acGUI_Fontcyrillic_24x24_03A3
                        0x0805c050    0x24  Data  Gb  cyrillic_24x24.o [1]
acGUI_Fontcyrillic_24x24_03A4
                        0x0805c074    0x24  Data  Gb  cyrillic_24x24.o [1]
acGUI_Fontcyrillic_24x24_03A5
                        0x0805c098    0x24  Data  Gb  cyrillic_24x24.o [1]
acGUI_Fontcyrillic_24x24_03A6
                        0x0805c0bc    0x24  Data  Gb  cyrillic_24x24.o [1]
acGUI_Fontcyrillic_24x24_03A7
                        0x0805c0e0    0x24  Data  Gb  cyrillic_24x24.o [1]
acGUI_Fontcyrillic_24x24_03A8
                        0x0805c104    0x24  Data  Gb  cyrillic_24x24.o [1]
acGUI_Fontcyrillic_24x24_03A9
                        0x0805c128    0x38  Data  Gb  cyrillic_24x24.o [1]
acGUI_Fontcyrillic_24x24_03B1
                        0x0805c160    0x1c  Data  Gb  cyrillic_24x24.o [1]
acGUI_Fontcyrillic_24x24_03B2
                        0x0805c17c    0x30  Data  Gb  cyrillic_24x24.o [1]
acGUI_Fontcyrillic_24x24_03B3
                        0x0805c1ac    0x24  Data  Gb  cyrillic_24x24.o [1]
acGUI_Fontcyrillic_24x24_03B4
                        0x0805c1d0    0x28  Data  Gb  cyrillic_24x24.o [1]
acGUI_Fontcyrillic_24x24_03B5
                        0x0805c1f8    0x1c  Data  Gb  cyrillic_24x24.o [1]
acGUI_Fontcyrillic_24x24_03B6
                        0x0805c214    0x30  Data  Gb  cyrillic_24x24.o [1]
acGUI_Fontcyrillic_24x24_03B7
                        0x0805c244    0x24  Data  Gb  cyrillic_24x24.o [1]
acGUI_Fontcyrillic_24x24_03B8
                        0x0805c268    0x28  Data  Gb  cyrillic_24x24.o [1]
acGUI_Fontcyrillic_24x24_03B9
                        0x0805c290    0x10  Data  Gb  cyrillic_24x24.o [1]
acGUI_Fontcyrillic_24x24_03BA
                        0x0805c2a0    0x1c  Data  Gb  cyrillic_24x24.o [1]
acGUI_Fontcyrillic_24x24_03BB
                        0x0805c2bc    0x28  Data  Gb  cyrillic_24x24.o [1]
acGUI_Fontcyrillic_24x24_03BC
                        0x0805c2e4    0x24  Data  Gb  cyrillic_24x24.o [1]
acGUI_Fontcyrillic_24x24_03BD
                        0x0805c308    0x1c  Data  Gb  cyrillic_24x24.o [1]
acGUI_Fontcyrillic_24x24_03BE
                        0x0805c324    0x30  Data  Gb  cyrillic_24x24.o [1]
acGUI_Fontcyrillic_24x24_03BF
                        0x0805c354    0x1c  Data  Gb  cyrillic_24x24.o [1]
acGUI_Fontcyrillic_24x24_03C0
                        0x0805c370    0x1c  Data  Gb  cyrillic_24x24.o [1]
acGUI_Fontcyrillic_24x24_03C1
                        0x0805c38c    0x24  Data  Gb  cyrillic_24x24.o [1]
acGUI_Fontcyrillic_24x24_03C3
                        0x0805c3b0    0x1c  Data  Gb  cyrillic_24x24.o [1]
acGUI_Fontcyrillic_24x24_03C4
                        0x0805c3cc    0x1c  Data  Gb  cyrillic_24x24.o [1]
acGUI_Fontcyrillic_24x24_03C5
                        0x0805c3e8    0x1c  Data  Gb  cyrillic_24x24.o [1]
acGUI_Fontcyrillic_24x24_03C6
                        0x0805c404    0x38  Data  Gb  cyrillic_24x24.o [1]
acGUI_Fontcyrillic_24x24_03C7
                        0x0805c43c    0x24  Data  Gb  cyrillic_24x24.o [1]
acGUI_Fontcyrillic_24x24_03C8
                        0x0805c460    0x24  Data  Gb  cyrillic_24x24.o [1]
acGUI_Fontcyrillic_24x24_03C9
                        0x0805c484    0x1c  Data  Gb  cyrillic_24x24.o [1]
acGUI_Fontcyrillic_24x24_0400
                        0x0805c4a0    0x28  Data  Gb  cyrillic_24x24.o [1]
acGUI_Fontcyrillic_24x24_0401
                        0x0805c4c8    0x28  Data  Gb  cyrillic_24x24.o [1]
acGUI_Fontcyrillic_24x24_0402
                        0x0805c4f0    0x20  Data  Gb  cyrillic_24x24.o [1]
acGUI_Fontcyrillic_24x24_0403
                        0x0805c510    0x28  Data  Gb  cyrillic_24x24.o [1]
acGUI_Fontcyrillic_24x24_0404
                        0x0805c538    0x20  Data  Gb  cyrillic_24x24.o [1]
acGUI_Fontcyrillic_24x24_0405
                        0x0805c558    0x20  Data  Gb  cyrillic_24x24.o [1]
acGUI_Fontcyrillic_24x24_0406
                        0x0805c578    0x10  Data  Gb  cyrillic_24x24.o [1]
acGUI_Fontcyrillic_24x24_0407
                        0x0805c588    0x14  Data  Gb  cyrillic_24x24.o [1]
acGUI_Fontcyrillic_24x24_0408
                        0x0805c59c    0x10  Data  Gb  cyrillic_24x24.o [1]
acGUI_Fontcyrillic_24x24_0409
                        0x0805c5ac    0x30  Data  Gb  cyrillic_24x24.o [1]
acGUI_Fontcyrillic_24x24_040A
                        0x0805c5dc    0x30  Data  Gb  cyrillic_24x24.o [1]
acGUI_Fontcyrillic_24x24_040B
                        0x0805c60c    0x20  Data  Gb  cyrillic_24x24.o [1]
acGUI_Fontcyrillic_24x24_040C
                        0x0805c62c    0x28  Data  Gb  cyrillic_24x24.o [1]
acGUI_Fontcyrillic_24x24_040D
                        0x0805c654    0x28  Data  Gb  cyrillic_24x24.o [1]
acGUI_Fontcyrillic_24x24_040E
                        0x0805c67c    0x28  Data  Gb  cyrillic_24x24.o [1]
acGUI_Fontcyrillic_24x24_040F
                        0x0805c6a4    0x28  Data  Gb  cyrillic_24x24.o [1]
acGUI_Fontcyrillic_24x24_0410
                        0x0805c6cc    0x20  Data  Gb  cyrillic_24x24.o [1]
acGUI_Fontcyrillic_24x24_0411
                        0x0805c6ec    0x20  Data  Gb  cyrillic_24x24.o [1]
acGUI_Fontcyrillic_24x24_0412
                        0x0805c70c    0x20  Data  Gb  cyrillic_24x24.o [1]
acGUI_Fontcyrillic_24x24_0413
                        0x0805c72c    0x20  Data  Gb  cyrillic_24x24.o [1]
acGUI_Fontcyrillic_24x24_0414
                        0x0805c74c    0x28  Data  Gb  cyrillic_24x24.o [1]
acGUI_Fontcyrillic_24x24_0415
                        0x0805c774    0x20  Data  Gb  cyrillic_24x24.o [1]
acGUI_Fontcyrillic_24x24_0416
                        0x0805c794    0x30  Data  Gb  cyrillic_24x24.o [1]
acGUI_Fontcyrillic_24x24_0417
                        0x0805c7c4    0x20  Data  Gb  cyrillic_24x24.o [1]
acGUI_Fontcyrillic_24x24_0418
                        0x0805c7e4    0x20  Data  Gb  cyrillic_24x24.o [1]
acGUI_Fontcyrillic_24x24_0419
                        0x0805c804    0x28  Data  Gb  cyrillic_24x24.o [1]
acGUI_Fontcyrillic_24x24_041A
                        0x0805c82c    0x20  Data  Gb  cyrillic_24x24.o [1]
acGUI_Fontcyrillic_24x24_041B
                        0x0805c84c    0x20  Data  Gb  cyrillic_24x24.o [1]
acGUI_Fontcyrillic_24x24_041C
                        0x0805c86c    0x20  Data  Gb  cyrillic_24x24.o [1]
acGUI_Fontcyrillic_24x24_041D
                        0x0805c88c    0x20  Data  Gb  cyrillic_24x24.o [1]
acGUI_Fontcyrillic_24x24_041E
                        0x0805c8ac    0x20  Data  Gb  cyrillic_24x24.o [1]
acGUI_Fontcyrillic_24x24_041F
                        0x0805c8cc    0x20  Data  Gb  cyrillic_24x24.o [1]
acGUI_Fontcyrillic_24x24_0420
                        0x0805c8ec    0x20  Data  Gb  cyrillic_24x24.o [1]
acGUI_Fontcyrillic_24x24_0421
                        0x0805c90c    0x20  Data  Gb  cyrillic_24x24.o [1]
acGUI_Fontcyrillic_24x24_0422
                        0x0805c92c    0x20  Data  Gb  cyrillic_24x24.o [1]
acGUI_Fontcyrillic_24x24_0423
                        0x0805c94c    0x20  Data  Gb  cyrillic_24x24.o [1]
acGUI_Fontcyrillic_24x24_0424
                        0x0805c96c    0x20  Data  Gb  cyrillic_24x24.o [1]
acGUI_Fontcyrillic_24x24_0425
                        0x0805c98c    0x20  Data  Gb  cyrillic_24x24.o [1]
acGUI_Fontcyrillic_24x24_0426
                        0x0805c9ac    0x28  Data  Gb  cyrillic_24x24.o [1]
acGUI_Fontcyrillic_24x24_0427
                        0x0805c9d4    0x20  Data  Gb  cyrillic_24x24.o [1]
acGUI_Fontcyrillic_24x24_0428
                        0x0805c9f4    0x30  Data  Gb  cyrillic_24x24.o [1]
acGUI_Fontcyrillic_24x24_0429
                        0x0805ca24    0x3c  Data  Gb  cyrillic_24x24.o [1]
acGUI_Fontcyrillic_24x24_042A
                        0x0805ca60    0x20  Data  Gb  cyrillic_24x24.o [1]
acGUI_Fontcyrillic_24x24_042B
                        0x0805ca80    0x20  Data  Gb  cyrillic_24x24.o [1]
acGUI_Fontcyrillic_24x24_042C
                        0x0805caa0    0x20  Data  Gb  cyrillic_24x24.o [1]
acGUI_Fontcyrillic_24x24_042D
                        0x0805cac0    0x20  Data  Gb  cyrillic_24x24.o [1]
acGUI_Fontcyrillic_24x24_042E
                        0x0805cae0    0x30  Data  Gb  cyrillic_24x24.o [1]
acGUI_Fontcyrillic_24x24_042F
                        0x0805cb10    0x20  Data  Gb  cyrillic_24x24.o [1]
acGUI_Fontcyrillic_24x24_0430
                        0x0805cb30    0x18  Data  Gb  cyrillic_24x24.o [1]
acGUI_Fontcyrillic_24x24_0431
                        0x0805cb48    0x24  Data  Gb  cyrillic_24x24.o [1]
acGUI_Fontcyrillic_24x24_0432
                        0x0805cb6c    0x18  Data  Gb  cyrillic_24x24.o [1]
acGUI_Fontcyrillic_24x24_0433
                        0x0805cb84    0x18  Data  Gb  cyrillic_24x24.o [1]
acGUI_Fontcyrillic_24x24_0434
                        0x0805cb9c    0x20  Data  Gb  cyrillic_24x24.o [1]
acGUI_Fontcyrillic_24x24_0435
                        0x0805cbbc    0x18  Data  Gb  cyrillic_24x24.o [1]
acGUI_Fontcyrillic_24x24_0436
                        0x0805cbd4    0x18  Data  Gb  cyrillic_24x24.o [1]
acGUI_Fontcyrillic_24x24_0437
                        0x0805cbec    0x18  Data  Gb  cyrillic_24x24.o [1]
acGUI_Fontcyrillic_24x24_0438
                        0x0805cc04    0x18  Data  Gb  cyrillic_24x24.o [1]
acGUI_Fontcyrillic_24x24_0439
                        0x0805cc1c    0x20  Data  Gb  cyrillic_24x24.o [1]
acGUI_Fontcyrillic_24x24_043A
                        0x0805cc3c    0x18  Data  Gb  cyrillic_24x24.o [1]
acGUI_Fontcyrillic_24x24_043B
                        0x0805cc54    0x18  Data  Gb  cyrillic_24x24.o [1]
acGUI_Fontcyrillic_24x24_043C
                        0x0805cc6c    0x18  Data  Gb  cyrillic_24x24.o [1]
acGUI_Fontcyrillic_24x24_043D
                        0x0805cc84    0x18  Data  Gb  cyrillic_24x24.o [1]
acGUI_Fontcyrillic_24x24_043E
                        0x0805cc9c    0x18  Data  Gb  cyrillic_24x24.o [1]
acGUI_Fontcyrillic_24x24_043F
                        0x0805ccb4    0x18  Data  Gb  cyrillic_24x24.o [1]
acGUI_Fontcyrillic_24x24_0440
                        0x0805cccc    0x20  Data  Gb  cyrillic_24x24.o [1]
acGUI_Fontcyrillic_24x24_0441
                        0x0805ccec    0x18  Data  Gb  cyrillic_24x24.o [1]
acGUI_Fontcyrillic_24x24_0442
                        0x0805cd04    0x18  Data  Gb  cyrillic_24x24.o [1]
acGUI_Fontcyrillic_24x24_0443
                        0x0805cd1c    0x20  Data  Gb  cyrillic_24x24.o [1]
acGUI_Fontcyrillic_24x24_0444
                        0x0805cd3c    0x2c  Data  Gb  cyrillic_24x24.o [1]
acGUI_Fontcyrillic_24x24_0445
                        0x0805cd68    0x18  Data  Gb  cyrillic_24x24.o [1]
acGUI_Fontcyrillic_24x24_0446
                        0x0805cd80    0x20  Data  Gb  cyrillic_24x24.o [1]
acGUI_Fontcyrillic_24x24_0447
                        0x0805cda0    0x18  Data  Gb  cyrillic_24x24.o [1]
acGUI_Fontcyrillic_24x24_0448
                        0x0805cdb8    0x18  Data  Gb  cyrillic_24x24.o [1]
acGUI_Fontcyrillic_24x24_0449
                        0x0805cdd0    0x20  Data  Gb  cyrillic_24x24.o [1]
acGUI_Fontcyrillic_24x24_044A
                        0x0805cdf0    0x18  Data  Gb  cyrillic_24x24.o [1]
acGUI_Fontcyrillic_24x24_044B
                        0x0805ce08    0x18  Data  Gb  cyrillic_24x24.o [1]
acGUI_Fontcyrillic_24x24_044C
                        0x0805ce20    0x18  Data  Gb  cyrillic_24x24.o [1]
acGUI_Fontcyrillic_24x24_044D
                        0x0805ce38    0x18  Data  Gb  cyrillic_24x24.o [1]
acGUI_Fontcyrillic_24x24_044E
                        0x0805ce50    0x18  Data  Gb  cyrillic_24x24.o [1]
acGUI_Fontcyrillic_24x24_044F
                        0x0805ce68    0x18  Data  Gb  cyrillic_24x24.o [1]
acGUI_Fontcyrillic_24x24_0450
                        0x0805ce80    0x24  Data  Gb  cyrillic_24x24.o [1]
acGUI_Fontcyrillic_24x24_0451
                        0x0805cea4    0x20  Data  Gb  cyrillic_24x24.o [1]
acGUI_Fontcyrillic_24x24_0452
                        0x0805cec4    0x2c  Data  Gb  cyrillic_24x24.o [1]
acGUI_Fontcyrillic_24x24_0453
                        0x0805cef0    0x24  Data  Gb  cyrillic_24x24.o [1]
acGUI_Fontcyrillic_24x24_0454
                        0x0805cf14     0xc  Data  Gb  cyrillic_24x24.o [1]
acGUI_Fontcyrillic_24x24_0455
                        0x0805cf20    0x18  Data  Gb  cyrillic_24x24.o [1]
acGUI_Fontcyrillic_24x24_0456
                        0x0805cf38    0x10  Data  Gb  cyrillic_24x24.o [1]
acGUI_Fontcyrillic_24x24_0457
                        0x0805cf48    0x10  Data  Gb  cyrillic_24x24.o [1]
acGUI_Fontcyrillic_24x24_0458
                        0x0805cf58    0x14  Data  Gb  cyrillic_24x24.o [1]
acGUI_Fontcyrillic_24x24_0459
                        0x0805cf6c    0x24  Data  Gb  cyrillic_24x24.o [1]
acGUI_Fontcyrillic_24x24_045A
                        0x0805cf90    0x18  Data  Gb  cyrillic_24x24.o [1]
acGUI_Fontcyrillic_24x24_045B
                        0x0805cfa8    0x24  Data  Gb  cyrillic_24x24.o [1]
acGUI_Fontcyrillic_24x24_045C
                        0x0805cfcc    0x24  Data  Gb  cyrillic_24x24.o [1]
acGUI_Fontcyrillic_24x24_045D
                        0x0805cff0    0x24  Data  Gb  cyrillic_24x24.o [1]
acGUI_Fontcyrillic_24x24_045E
                        0x0805d014    0x28  Data  Gb  cyrillic_24x24.o [1]
acGUI_Fontcyrillic_24x24_045F
                        0x0805d03c    0x20  Data  Gb  cyrillic_24x24.o [1]
acGUI_Fontcyrillic_24x24_0490
                        0x0805d05c    0x28  Data  Gb  cyrillic_24x24.o [1]
acGUI_Fontcyrillic_24x24_0491
                        0x0805d084    0x10  Data  Gb  cyrillic_24x24.o [1]
acGUI_Fontcyrillic_24x24_2015
                        0x0805d094     0x8  Data  Gb  cyrillic_24x24.o [1]
acGUI_Fontcyrillic_24x24_2018
                        0x0805d09c     0x8  Data  Gb  cyrillic_24x24.o [1]
acGUI_Fontcyrillic_24x24_2019
                        0x0805d0a4     0x8  Data  Gb  cyrillic_24x24.o [1]
acGUI_Fontcyrillic_24x24_201C
                        0x0805d0ac    0x10  Data  Gb  cyrillic_24x24.o [1]
acGUI_Fontcyrillic_24x24_201D
                        0x0805d0bc    0x10  Data  Gb  cyrillic_24x24.o [1]
acGUI_Fontcyrillic_24x24_2020
                        0x0805d0cc    0x24  Data  Gb  cyrillic_24x24.o [1]
acGUI_Fontcyrillic_24x24_2021
                        0x0805d0f0    0x24  Data  Gb  cyrillic_24x24.o [1]
acGUI_Fontcyrillic_24x24_2026
                        0x0805d114     0x4  Data  Gb  cyrillic_24x24.o [1]
acGUI_Fontcyrillic_24x24_2030
                        0x0805d118    0x5c  Data  Gb  cyrillic_24x24.o [1]
acGUI_Fontcyrillic_24x24_2032
                        0x0805d174     0x8  Data  Gb  cyrillic_24x24.o [1]
acGUI_Fontcyrillic_24x24_2033
                        0x0805d17c    0x10  Data  Gb  cyrillic_24x24.o [1]
acGUI_Fontcyrillic_24x24_2074
                        0x0805d18c    0x18  Data  Gb  cyrillic_24x24.o [1]
acGUI_Fontcyrillic_24x24_207F
                        0x0805d1a4    0x18  Data  Gb  cyrillic_24x24.o [1]
acGUI_Fontcyrillic_24x24_20AC
                        0x0805d1bc    0x24  Data  Gb  cyrillic_24x24.o [1]
acGUI_Fontcyrillic_24x24_2103
                        0x0805d1e0    0x3c  Data  Gb  cyrillic_24x24.o [1]
acGUI_Fontcyrillic_24x24_2113
                        0x0805d21c    0x24  Data  Gb  cyrillic_24x24.o [1]
acGUI_Fontcyrillic_24x24_2116
                        0x0805d240    0x38  Data  Gb  cyrillic_24x24.o [1]
acGUI_Fontcyrillic_24x24_2122
                        0x0805d278    0x18  Data  Gb  cyrillic_24x24.o [1]
acGUI_Fontcyrillic_24x24_2126
                        0x0805d290    0x38  Data  Gb  cyrillic_24x24.o [1]
acGUI_Fontcyrillic_24x24_212B
                        0x0805d2c8    0x2c  Data  Gb  cyrillic_24x24.o [1]
acGUI_Fontcyrillic_24x24_2153
                        0x0805d2f4    0x44  Data  Gb  cyrillic_24x24.o [1]
acGUI_Fontcyrillic_24x24_2154
                        0x0805d338    0x44  Data  Gb  cyrillic_24x24.o [1]
acGUI_Fontcyrillic_24x24_215B
                        0x0805d37c    0x38  Data  Gb  cyrillic_24x24.o [1]
acGUI_Fontcyrillic_24x24_215C
                        0x0805d3b4    0x38  Data  Gb  cyrillic_24x24.o [1]
acGUI_Fontcyrillic_24x24_215D
                        0x0805d3ec    0x38  Data  Gb  cyrillic_24x24.o [1]
acGUI_Fontcyrillic_24x24_215E
                        0x0805d424    0x38  Data  Gb  cyrillic_24x24.o [1]
acGUI_Fontcyrillic_24x24_2160
                        0x0805d45c    0x14  Data  Gb  cyrillic_24x24.o [1]
acGUI_Fontcyrillic_24x24_2161
                        0x0805d470    0x24  Data  Gb  cyrillic_24x24.o [1]
acGUI_Fontcyrillic_24x24_2162
                        0x0805d494    0x24  Data  Gb  cyrillic_24x24.o [1]
acGUI_Fontcyrillic_24x24_2163
                        0x0805d4b8    0x24  Data  Gb  cyrillic_24x24.o [1]
acGUI_Fontcyrillic_24x24_2164
                        0x0805d4dc    0x24  Data  Gb  cyrillic_24x24.o [1]
acGUI_Fontcyrillic_24x24_2165
                        0x0805d500    0x24  Data  Gb  cyrillic_24x24.o [1]
acGUI_Fontcyrillic_24x24_2166
                        0x0805d524    0x38  Data  Gb  cyrillic_24x24.o [1]
acGUI_Fontcyrillic_24x24_2167
                        0x0805d55c    0x38  Data  Gb  cyrillic_24x24.o [1]
acGUI_Fontcyrillic_24x24_2168
                        0x0805d594    0x24  Data  Gb  cyrillic_24x24.o [1]
acGUI_Fontcyrillic_24x24_2169
                        0x0805d5b8    0x24  Data  Gb  cyrillic_24x24.o [1]
acGUI_Fontcyrillic_24x24_2170
                        0x0805d5dc    0x14  Data  Gb  cyrillic_24x24.o [1]
acGUI_Fontcyrillic_24x24_2171
                        0x0805d5f0    0x24  Data  Gb  cyrillic_24x24.o [1]
acGUI_Fontcyrillic_24x24_2172
                        0x0805d614    0x24  Data  Gb  cyrillic_24x24.o [1]
acGUI_Fontcyrillic_24x24_2173
                        0x0805d638    0x24  Data  Gb  cyrillic_24x24.o [1]
acGUI_Fontcyrillic_24x24_2174
                        0x0805d65c    0x1c  Data  Gb  cyrillic_24x24.o [1]
acGUI_Fontcyrillic_24x24_2175
                        0x0805d678    0x24  Data  Gb  cyrillic_24x24.o [1]
acGUI_Fontcyrillic_24x24_2176
                        0x0805d69c    0x38  Data  Gb  cyrillic_24x24.o [1]
acGUI_Fontcyrillic_24x24_2177
                        0x0805d6d4    0x38  Data  Gb  cyrillic_24x24.o [1]
acGUI_Fontcyrillic_24x24_2178
                        0x0805d70c    0x24  Data  Gb  cyrillic_24x24.o [1]
acGUI_Fontcyrillic_24x24_2179
                        0x0805d730    0x1c  Data  Gb  cyrillic_24x24.o [1]
acGUI_Fontcyrillic_24x24_2202
                        0x0805d74c    0x24  Data  Gb  cyrillic_24x24.o [1]
acGUI_Fontcyrillic_24x24_220F
                        0x0805d770    0x28  Data  Gb  cyrillic_24x24.o [1]
acGUI_Fontcyrillic_24x24_2211
                        0x0805d798    0x28  Data  Gb  cyrillic_24x24.o [1]
acGUI_Fontcyrillic_24x24_221A
                        0x0805d7c0    0x48  Data  Gb  cyrillic_24x24.o [1]
acGUI_Fontcyrillic_24x24_221E
                        0x0805d808    0x24  Data  Gb  cyrillic_24x24.o [1]
acGUI_Fontcyrillic_24x24_222B
                        0x0805d82c    0x30  Data  Gb  cyrillic_24x24.o [1]
acGUI_Fontcyrillic_24x24_2260
                        0x0805d85c    0x20  Data  Gb  cyrillic_24x24.o [1]
acGUI_Fontcyrillic_24x24_2261
                        0x0805d87c    0x18  Data  Gb  cyrillic_24x24.o [1]
acGUI_Fontcyrillic_24x24_2264
                        0x0805d894    0x24  Data  Gb  cyrillic_24x24.o [1]
acGUI_Fontcyrillic_24x24_2265
                        0x0805d8b8    0x24  Data  Gb  cyrillic_24x24.o [1]
acGUI_Fontcyrillic_24x24_2500
                        0x0805d8dc     0x8  Data  Gb  cyrillic_24x24.o [1]
acGUI_Fontcyrillic_24x24_2502
                        0x0805d8e4    0x1c  Data  Gb  cyrillic_24x24.o [1]
acGUI_Fontcyrillic_24x24_250C
                        0x0805d900    0x1c  Data  Gb  cyrillic_24x24.o [1]
acGUI_Fontcyrillic_24x24_2510
                        0x0805d91c    0x1c  Data  Gb  cyrillic_24x24.o [1]
acGUI_Fontcyrillic_24x24_2514
                        0x0805d938    0x20  Data  Gb  cyrillic_24x24.o [1]
acGUI_Fontcyrillic_24x24_2518
                        0x0805d958    0x20  Data  Gb  cyrillic_24x24.o [1]
acGUI_Fontcyrillic_24x24_25A1
                        0x0805d978    0x18  Data  Gb  cyrillic_24x24.o [1]
acGUI_Fontcyrillic_24x24_25CF
                        0x0805d990    0x14  Data  Gb  cyrillic_24x24.o [1]
acGUI_Fontcyrillic_24x24_266A
                        0x0805d9a4    0x20  Data  Gb  cyrillic_24x24.o [1]
acGUI_Fontcyrillic_24x24_3380
                        0x0805d9c4    0x40  Data  Gb  cyrillic_24x24.o [1]
acGUI_Fontcyrillic_24x24_3381
                        0x0805da04    0x38  Data  Gb  cyrillic_24x24.o [1]
acGUI_Fontcyrillic_24x24_3382
                        0x0805da3c    0x40  Data  Gb  cyrillic_24x24.o [1]
acGUI_Fontcyrillic_24x24_3383
                        0x0805da7c    0x38  Data  Gb  cyrillic_24x24.o [1]
acGUI_Fontcyrillic_24x24_3384
                        0x0805dab4    0x38  Data  Gb  cyrillic_24x24.o [1]
acGUI_Fontcyrillic_24x24_3388
                        0x0805daec    0x38  Data  Gb  cyrillic_24x24.o [1]
acGUI_Fontcyrillic_24x24_3389
                        0x0805db24    0x3c  Data  Gb  cyrillic_24x24.o [1]
acGUI_Fontcyrillic_24x24_338A
                        0x0805db60    0x40  Data  Gb  cyrillic_24x24.o [1]
acGUI_Fontcyrillic_24x24_338B
                        0x0805dba0    0x38  Data  Gb  cyrillic_24x24.o [1]
acGUI_Fontcyrillic_24x24_338C
                        0x0805dbd8    0x40  Data  Gb  cyrillic_24x24.o [1]
acGUI_Fontcyrillic_24x24_338D
                        0x0805dc18    0x30  Data  Gb  cyrillic_24x24.o [1]
acGUI_Fontcyrillic_24x24_338E
                        0x0805dc48    0x30  Data  Gb  cyrillic_24x24.o [1]
acGUI_Fontcyrillic_24x24_338F
                        0x0805dc78    0x40  Data  Gb  cyrillic_24x24.o [1]
acGUI_Fontcyrillic_24x24_3390
                        0x0805dcb8    0x38  Data  Gb  cyrillic_24x24.o [1]
acGUI_Fontcyrillic_24x24_3391
                        0x0805dcf0    0x38  Data  Gb  cyrillic_24x24.o [1]
acGUI_Fontcyrillic_24x24_3392
                        0x0805dd28    0x38  Data  Gb  cyrillic_24x24.o [1]
acGUI_Fontcyrillic_24x24_3393
                        0x0805dd60    0x38  Data  Gb  cyrillic_24x24.o [1]
acGUI_Fontcyrillic_24x24_3394
                        0x0805dd98    0x38  Data  Gb  cyrillic_24x24.o [1]
acGUI_Fontcyrillic_24x24_3395
                        0x0805ddd0    0x3c  Data  Gb  cyrillic_24x24.o [1]
acGUI_Fontcyrillic_24x24_3396
                        0x0805de0c    0x38  Data  Gb  cyrillic_24x24.o [1]
acGUI_Fontcyrillic_24x24_3397
                        0x0805de44    0x38  Data  Gb  cyrillic_24x24.o [1]
acGUI_Fontcyrillic_24x24_3398
                        0x0805de7c    0x38  Data  Gb  cyrillic_24x24.o [1]
acGUI_Fontcyrillic_24x24_3399
                        0x0805deb4    0x38  Data  Gb  cyrillic_24x24.o [1]
acGUI_Fontcyrillic_24x24_339A
                        0x0805deec    0x24  Data  Gb  cyrillic_24x24.o [1]
acGUI_Fontcyrillic_24x24_339B
                        0x0805df10    0x2c  Data  Gb  cyrillic_24x24.o [1]
acGUI_Fontcyrillic_24x24_339C
                        0x0805df3c    0x24  Data  Gb  cyrillic_24x24.o [1]
acGUI_Fontcyrillic_24x24_339D
                        0x0805df60    0x24  Data  Gb  cyrillic_24x24.o [1]
acGUI_Fontcyrillic_24x24_339E
                        0x0805df84    0x38  Data  Gb  cyrillic_24x24.o [1]
acGUI_Fontcyrillic_24x24_339F
                        0x0805dfbc    0x38  Data  Gb  cyrillic_24x24.o [1]
acGUI_Fontcyrillic_24x24_33A0
                        0x0805dff4    0x38  Data  Gb  cyrillic_24x24.o [1]
acGUI_Fontcyrillic_24x24_33A1
                        0x0805e02c    0x34  Data  Gb  cyrillic_24x24.o [1]
acGUI_Fontcyrillic_24x24_33A2
                        0x0805e060    0x38  Data  Gb  cyrillic_24x24.o [1]
acGUI_Fontcyrillic_24x24_33A3
                        0x0805e098    0x38  Data  Gb  cyrillic_24x24.o [1]
acGUI_Fontcyrillic_24x24_33A4
                        0x0805e0d0    0x38  Data  Gb  cyrillic_24x24.o [1]
acGUI_Fontcyrillic_24x24_33A5
                        0x0805e108    0x34  Data  Gb  cyrillic_24x24.o [1]
acGUI_Fontcyrillic_24x24_33A6
                        0x0805e13c    0x38  Data  Gb  cyrillic_24x24.o [1]
acGUI_Fontcyrillic_24x24_33A7
                        0x0805e174    0x44  Data  Gb  cyrillic_24x24.o [1]
acGUI_Fontcyrillic_24x24_33A8
                        0x0805e1b8    0x44  Data  Gb  cyrillic_24x24.o [1]
acGUI_Fontcyrillic_24x24_33A9
                        0x0805e1fc    0x38  Data  Gb  cyrillic_24x24.o [1]
acGUI_Fontcyrillic_24x24_33AA
                        0x0805e234    0x38  Data  Gb  cyrillic_24x24.o [1]
acGUI_Fontcyrillic_24x24_33AB
                        0x0805e26c    0x38  Data  Gb  cyrillic_24x24.o [1]
acGUI_Fontcyrillic_24x24_33AC
                        0x0805e2a4    0x38  Data  Gb  cyrillic_24x24.o [1]
acGUI_Fontcyrillic_24x24_33AD
                        0x0805e2dc    0x38  Data  Gb  cyrillic_24x24.o [1]
acGUI_Fontcyrillic_24x24_33AE
                        0x0805e314    0x44  Data  Gb  cyrillic_24x24.o [1]
acGUI_Fontcyrillic_24x24_33AF
                        0x0805e358    0x44  Data  Gb  cyrillic_24x24.o [1]
acGUI_Fontcyrillic_24x24_33B0
                        0x0805e39c    0x30  Data  Gb  cyrillic_24x24.o [1]
acGUI_Fontcyrillic_24x24_33B1
                        0x0805e3cc    0x24  Data  Gb  cyrillic_24x24.o [1]
acGUI_Fontcyrillic_24x24_33B2
                        0x0805e3f0    0x2c  Data  Gb  cyrillic_24x24.o [1]
acGUI_Fontcyrillic_24x24_33B3
                        0x0805e41c    0x24  Data  Gb  cyrillic_24x24.o [1]
acGUI_Fontcyrillic_24x24_33B4
                        0x0805e440    0x40  Data  Gb  cyrillic_24x24.o [1]
acGUI_Fontcyrillic_24x24_33B5
                        0x0805e480    0x38  Data  Gb  cyrillic_24x24.o [1]
acGUI_Fontcyrillic_24x24_33B6
                        0x0805e4b8    0x3c  Data  Gb  cyrillic_24x24.o [1]
acGUI_Fontcyrillic_24x24_33B7
                        0x0805e4f4    0x38  Data  Gb  cyrillic_24x24.o [1]
acGUI_Fontcyrillic_24x24_33B8
                        0x0805e52c    0x38  Data  Gb  cyrillic_24x24.o [1]
acGUI_Fontcyrillic_24x24_33B9
                        0x0805e564    0x38  Data  Gb  cyrillic_24x24.o [1]
acGUI_Fontcyrillic_24x24_33BA
                        0x0805e59c    0x40  Data  Gb  cyrillic_24x24.o [1]
acGUI_Fontcyrillic_24x24_33BB
                        0x0805e5dc    0x38  Data  Gb  cyrillic_24x24.o [1]
acGUI_Fontcyrillic_24x24_33BC
                        0x0805e614    0x40  Data  Gb  cyrillic_24x24.o [1]
acGUI_Fontcyrillic_24x24_33BD
                        0x0805e654    0x38  Data  Gb  cyrillic_24x24.o [1]
acGUI_Fontcyrillic_24x24_33BE
                        0x0805e68c    0x38  Data  Gb  cyrillic_24x24.o [1]
acGUI_Fontcyrillic_24x24_33BF
                        0x0805e6c4    0x38  Data  Gb  cyrillic_24x24.o [1]
acGUI_Fontcyrillic_24x24_33C0
                        0x0805e6fc    0x38  Data  Gb  cyrillic_24x24.o [1]
acGUI_Fontcyrillic_24x24_33C1
                        0x0805e734    0x38  Data  Gb  cyrillic_24x24.o [1]
acGUI_Fontcyrillic_24x24_33C3
                        0x0805e76c    0x40  Data  Gb  cyrillic_24x24.o [1]
acGUI_Fontcyrillic_24x24_33C4
                        0x0805e7ac    0x28  Data  Gb  cyrillic_24x24.o [1]
acGUI_Fontcyrillic_24x24_33C5
                        0x0805e7d4    0x38  Data  Gb  cyrillic_24x24.o [1]
acGUI_Fontcyrillic_24x24_33C6
                        0x0805e80c    0x40  Data  Gb  cyrillic_24x24.o [1]
acGUI_Fontcyrillic_24x24_33C8
                        0x0805e84c    0x38  Data  Gb  cyrillic_24x24.o [1]
acGUI_Fontcyrillic_24x24_33C9
                        0x0805e884    0x40  Data  Gb  cyrillic_24x24.o [1]
acGUI_Fontcyrillic_24x24_33CA
                        0x0805e8c4    0x38  Data  Gb  cyrillic_24x24.o [1]
acGUI_Fontcyrillic_24x24_33CF
                        0x0805e8fc    0x38  Data  Gb  cyrillic_24x24.o [1]
acGUI_Fontcyrillic_24x24_33D0
                        0x0805e934    0x24  Data  Gb  cyrillic_24x24.o [1]
acGUI_Fontcyrillic_24x24_33D3
                        0x0805e958    0x38  Data  Gb  cyrillic_24x24.o [1]
acGUI_Fontcyrillic_24x24_33D6
                        0x0805e990    0x38  Data  Gb  cyrillic_24x24.o [1]
acGUI_Fontcyrillic_24x24_33DB
                        0x0805e9c8    0x24  Data  Gb  cyrillic_24x24.o [1]
acGUI_Fontcyrillic_24x24_33DC
                        0x0805e9ec    0x38  Data  Gb  cyrillic_24x24.o [1]
acGUI_Fontcyrillic_24x24_33DD
                        0x0805ea24    0x38  Data  Gb  cyrillic_24x24.o [1]
acGUI_Fontcyrillic_24x24_FFE0
                        0x0805ea5c    0x2c  Data  Gb  cyrillic_24x24.o [1]
acGUI_Fontcyrillic_24x24_FFE1
                        0x0805ea88    0x24  Data  Gb  cyrillic_24x24.o [1]
acGUI_Fontcyrillic_24x24_FFE5
                        0x0805eaac    0x24  Data  Gb  cyrillic_24x24.o [1]
acGUI_Fontcyrillic_24x24_FFE6
                        0x0805ead0    0x38  Data  Gb  cyrillic_24x24.o [1]
acSystemEventMainMsg    0x200017f0    0x54  Data  Gb  GuiData.o [1]
acSystemEventSettingChange
                        0x20001c78    0x30  Data  Gb  GuiData.o [1]
acSystemEventSettingChangeSmall
                        0x20000870   0x600  Data  Gb  GuiData.o [1]
acSystemEventStatusChange
                        0x20001aa8    0x3c  Data  Gb  GuiData.o [1]
acSystemEventStatusChangeSmall
                        0x20000000   0x870  Data  Gb  GuiData.o [1]
acSystemEventSystemChange
                        0x20001f84    0x18  Data  Gb  GuiData.o [1]
acSystemEventSystemChangeSmall
                        0x20000e70   0x2a0  Data  Gb  GuiData.o [1]
atoi                    0x0807f9a5     0x2  Code  Gb  iar_Stoulx.o [4]
auchCRCHi               0x0806be78   0x100  Data  Gb  GuiData.o [1]
auchCRCLo               0x0806bf78   0x100  Data  Gb  GuiData.o [1]
bEventSend              0x20016f74     0x4  Data  Gb  GuiData.o [1]
bUpdateFirst            0x20001cad     0x1  Data  Lc  AcbMccbControl.o [1]
bcd2i                   0x08074b9f    0x10  Code  Lc  main.o [1]
bmacbmcc_control_btn_selected
                        0x0801f1a0    0x14  Data  Gb  Image.o [1]
bmacbmccb_control_btn_normal
                        0x0801dbf4    0x14  Data  Gb  Image.o [1]
bmacbmccb_control_normal_ch
                        0x08029d88    0x14  Data  Gb  Image.o [1]
bmacbmccb_control_selected_ch
                        0x0802af90    0x14  Data  Gb  Image.o [1]
bmbtn_IOset_normal      0x0801aa7c    0x14  Data  Gb  Image.o [1]
bmbtn_IOset_normal_ch   0x0802bcdc    0x14  Data  Gb  Image.o [1]
bmbtn_IOset_selected    0x08019ecc    0x14  Data  Gb  Image.o [1]
bmbtn_IOset_selected_ch
                        0x0802ca98    0x14  Data  Gb  Image.o [1]
bmbtn_IOstatus_normal   0x0801c770    0x14  Data  Gb  Image.o [1]
bmbtn_IOstatus_normal_ch
                        0x08022144    0x14  Data  Gb  Image.o [1]
bmbtn_IOstatus_selected
                        0x0801b940    0x14  Data  Gb  Image.o [1]
bmbtn_IOstatus_selected_ch
                        0x08022f54    0x14  Data  Gb  Image.o [1]
bmbtn_events_normal     0x0801430c    0x14  Data  Gb  Image.o [1]
bmbtn_events_normal_ch  0x080286ec    0x14  Data  Gb  Image.o [1]
bmbtn_events_selected   0x08013c10    0x14  Data  Gb  Image.o [1]
bmbtn_events_selected_ch
                        0x08028bd8    0x14  Data  Gb  Image.o [1]
bmbtn_hwset_normal      0x0800d784    0x14  Data  Gb  Image.o [1]
bmbtn_hwset_normal_ch   0x080213c4    0x14  Data  Gb  Image.o [1]
bmbtn_hwset_selected    0x0800cca8    0x14  Data  Gb  Image.o [1]
bmbtn_hwset_selected_ch
                        0x0802071c    0x14  Data  Gb  Image.o [1]
bmbtn_measurement_normal
                        0x0800fc44    0x14  Data  Gb  Image.o [1]
bmbtn_measurement_normal_ch
                        0x08023b54    0x14  Data  Gb  Image.o [1]
bmbtn_measurement_selected
                        0x0800ea74    0x14  Data  Gb  Image.o [1]
bmbtn_measurement_selected_ch
                        0x080247bc    0x14  Data  Gb  Image.o [1]
bmbtn_relayset_normal   0x080134b8    0x14  Data  Gb  Image.o [1]
bmbtn_relayset_normal_ch
                        0x080270f0    0x14  Data  Gb  Image.o [1]
bmbtn_relayset_selected
                        0x08012720    0x14  Data  Gb  Image.o [1]
bmbtn_relayset_selected_ch
                        0x080281b8    0x14  Data  Gb  Image.o [1]
bmbtn_systeminfo_normal
                        0x080118bc    0x14  Data  Gb  Image.o [1]
bmbtn_systeminfo_normal_ch
                        0x08025398    0x14  Data  Gb  Image.o [1]
bmbtn_systeminfo_selected
                        0x08010ae4    0x14  Data  Gb  Image.o [1]
bmbtn_systeminfo_selected_ch
                        0x0802602c    0x14  Data  Gb  Image.o [1]
bmcontrol_btn_normal_ch
                        0x0802d72c    0x14  Data  Gb  Image.o [1]
bmcontrol_btn_selected_ch
                        0x0802e3a4    0x14  Data  Gb  Image.o [1]
bmcontrol_normal        0x08016114    0x14  Data  Gb  Image.o [1]
bmcontrol_selected      0x08015254    0x14  Data  Gb  Image.o [1]
bmicon_succeeded        0x0801f9f4    0x14  Data  Gb  Image.o [1]
cPtAngle                0x0806be6c     0xc  Data  Gb  GuiData.o [1]
colorOffFillColor       0x20001cb0     0xc  Data  Lc  AcbMccbControl.o [1]
colorOffTextColor       0x20001cbc     0xc  Data  Lc  AcbMccbControl.o [1]
commTimer               0x200163f8     0x4  Data  Lc  MainMenu.o [1]
date_set_pos            0x20001f24    0x18  Data  Gb  GuiData.o [1]
date_set_updown_pos     0x200021e4     0xc  Data  Gb  GuiData.o [1]
deviceDescription       0x20016ab4    0x3c  Data  Lc  Setup.o [1]
diStatus                0x2001686c    0x30  Data  Gb  MLinkOverview.o [1]
digits                  0x0807f9b0    0x28  Data  Lc  iar_Stoulx.o [4]
doStatus                0x2001684c    0x20  Data  Gb  MLinkOverview.o [1]
emWin_LCD_Init          0x08078ccf    0x98  Code  Gb  LCD.o [3]
embOS_TraceAPI_SYSVIEW  0x08097e20    0x5c  Data  Gb  SEGGER_SYSVIEW_embOS.o [1]
exit                    0x080980ab     0x4  Code  Gb  exit.o [4]
floor                   0x08089219          Code  Gb  floor.o [5]
floorl                  0x08089219          Code  Gb  floor.o [5]
fputc                   0x08073bfd    0x16  Code  Gb  main.o [1]
gAcbType                0x20016f48     0x8  Data  Gb  GuiData.o [1]
gAmpareFrame            0x2001682c    0x20  Data  Gb  MainMenu.o [1]
gCommErrorCount         0x2001664c    0x20  Data  Gb  main.o [1]
gCommOldStatus          0x20016d64    0x20  Data  Gb  main.o [1]
gCommStatus             0x20015a98    0x20  Data  Gb  main.o [1]
gDateTime               0x20002184     0xc  Data  Gb  GuiData.o [1]
gDebug                  0x20015a55     0x1  Data  Gb  main.o [1]
gDescription            0x20016420    0x88  Data  Gb  GuiData.o [1]
gDeviceCount            0x200022d8     0x2  Data  Gb  GuiData.o [1]
gDeviceIndex            0x2001700a     0x2  Data  Gb  GuiData.o [1]
gDeviceTypeAll          0x20016d84    0x20  Data  Gb  main.o [1]
gFaultEventIndex        0x20016e94    0x10  Data  Gb  main.o [1]
gFaultEventReaded       0x20016ec4    0x10  Data  Gb  main.o [1]
gFaultEventTotalCount   0x20016eb4    0x10  Data  Gb  main.o [1]
gGroupOffset            0x20016ed4    0x10  Data  Gb  main.o [1]
gLnValue                0x2001680c    0x20  Data  Lc  MainMenu.o [1]
gLnrValue               0x200163b8    0x20  Data  Lc  MainMenu.o [1]
gLocalPols              0x20016608     0x4  Data  Lc  AcbMccbMeasurement.o [1]
gLrValue                0x20016398    0x20  Data  Lc  MainMenu.o [1]
gNPHASE_PROTECTION_Value
                        0x200163d8    0x20  Data  Lc  MainMenu.o [1]
gOldFaultEventIndex     0x20016cfc    0x10  Data  Gb  main.o [1]
gPols                   0x20016d44    0x20  Data  Gb  GuiData.o [1]
gProductName            0x20015ee4   0x1e0  Data  Gb  main.o [1]
gReadIndex              0x20017008     0x2  Data  Gb  GuiData.o [1]
gReturnToScreen         0x20016f68     0x4  Data  Gb  GuiData.o [1]
gSavingModeCounter      0x20016f60     0x4  Data  Gb  GuiData.o [1]
gScreenSwitchingCounter
                        0x20016f64     0x4  Data  Gb  GuiData.o [1]
gStatusSendEnd          0x2001700c     0x2  Data  Gb  GuiData.o [1]
gSystemEventIndex       0x20016e84    0x10  Data  Gb  main.o [1]
gSystemEventTotalCount  0x20016ea4    0x10  Data  Gb  main.o [1]
gTimeSyncDay            0x20016388     0x1  Data  Lc  MainMenu.o [1]
g_AddressRecv           0x20017019     0x1  Data  Gb  main.o [1]
g_bRecvAllDone          0x20016f80     0x4  Data  Gb  main.o [1]
g_bRecvVariable         0x20015edc     0x4  Data  Gb  main.o [1]
g_functionCode          0x20015ed6     0x1  Data  Gb  main.o [1]
g_modbusAddress         0x20015ed5     0x1  Data  Gb  main.o [1]
g_modbusRxBuff          0x20015cd4   0x200  Data  Gb  main.o [1]
g_modbusRxDone          0x20015ed4     0x1  Data  Gb  main.o [1]
g_modbusRxError         0x20015a51     0x1  Data  Gb  main.o [1]
g_modbusRxIndex         0x20015a50     0x1  Data  Gb  main.o [1]
g_modbusSlaveRxBuff     0x200160c4    0x14  Data  Gb  main.o [1]
g_modbusSlaveRxError    0x20015a53     0x1  Data  Gb  main.o [1]
g_modbusSlaveRxIndex    0x20015a52     0x1  Data  Gb  main.o [1]
g_nStatusNoUpdate       0x20016f7c     0x4  Data  Gb  main.o [1]
g_startAddr             0x2001700e     0x2  Data  Gb  main.o [1]
g_subFunction           0x20017018     0x1  Data  Gb  main.o [1]
g_wModbusWaitLen        0x20015ed8     0x2  Data  Gb  main.o [1]
g_waitReceiveLen        0x20017010     0x2  Data  Gb  main.o [1]
gbInMainMenu            0x20017000     0x2  Data  Gb  GuiData.o [1]
gbSavingMode            0x20016394     0x2  Data  Lc  MainMenu.o [1]
gbSettingTime           0x20016f84     0x4  Data  Gb  main.o [1]
gbSlaveSend             0x20015a56     0x1  Data  Gb  main.o [1]
hardwarVersion          0x20016c34    0x34  Data  Gb  main.o [1]
hdma_usart1_rx          0x2001666c    0x60  Data  Gb  main.o [1]
hdma_usart1_tx          0x200166cc    0x60  Data  Gb  main.o [1]
hdma_usart2_rx          0x2001672c    0x60  Data  Gb  main.o [1]
hdma_usart2_tx          0x2001678c    0x60  Data  Gb  main.o [1]
hi2c2                   0x20016900    0x54  Data  Lc  main.o [1]
hspi3                   0x2000ff2c    0x58  Data  Gb  main.o [1]
htim2                   0x20016af0    0x3c  Data  Gb  stm32f4xx_it.o [1]
htim4                   0x2000ff84    0x3c  Data  Gb  main.o [1]
huart1                  0x20015a58    0x40  Data  Gb  main.o [1]
huart2                  0x2001660c    0x40  Data  Gb  main.o [1]
huart6                  0x20016a34    0x40  Data  Gb  main.o [1]
i2bcd                   0x08074b8d    0x12  Code  Lc  main.o [1]
isspace                 0x08088e09    0x14  Code  Gb  isspace.o [4]
ldexp                   0x08086b8d          Code  Gb  ldexp.o [5]
ldexpl                  0x08086b8d          Code  Gb  ldexp.o [5]
localFloor              0x08082479    0x2c  Code  Lc  AcbMccbMeasurement.o [1]
localeconv              0x080867ed     0x4  Code  Gb  xlocale_c.o [4]
mLinkMode               0x20016ee4    0x10  Data  Gb  main.o [1]
mLinkSBO                0x20016ef4    0x10  Data  Gb  main.o [1]
main                    0x080741d3   0x470  Code  Gb  main.o [1]
main::StackEmWin        0x2000ffc8  0x4000  Data  Lc  main.o [1]
main::StackReceive      0x20014024  0x1000  Data  Lc  main.o [1]
main::TCBEMWIN          0x20013fc8    0x5c  Data  Lc  main.o [1]
main::TCBRECEIVE        0x20015024    0x5c  Data  Lc  main.o [1]
masterSendTick          0x20015ee0     0x4  Data  Gb  main.o [1]
memchr                  0x08086859          Code  Gb  memchr.o [7]
memcpy                  0x080981e1     0xc  Code  Gb  memcpy.o [7]
memset                  0x08098175    0x14  Code  Gb  memset.o [7]
nCurrIndex              0x20017006     0x2  Data  Gb  GuiData.o [1]
nDoSetting              0x20001ca8     0x4  Data  Lc  AcbMccbControl.o [1]
nEventIndex             0x20017002     0x2  Data  Gb  GuiData.o [1]
nEventTotal             0x20017004     0x2  Data  Gb  GuiData.o [1]
nMenuPos                0x20016f70     0x4  Data  Gb  GuiData.o [1]
nPfDisplay              0x200165a4     0x2  Data  Lc  AcbMccbMeasurement.o [1]
nRemote                 0x20001cae     0x1  Data  Lc  AcbMccbControl.o [1]
nSendStep               0x20016f78     0x4  Data  Gb  main.o [1]
nTrio                   0x20001caf     0x1  Data  Lc  AcbMccbControl.o [1]
ndigs                   0x0807f9d8    0x28  Data  Lc  iar_Stoulx.o [4]
obuf                    0x20016954    0x50  Data  Lc  xfiles.o [4]
pFlash                  0x20016da4    0x20  Data  Gb  stm32f4xx_hal_flash.o [1]
printf                  0x0807ab41    0x28  Code  Gb  printf.o [4]
productCode             0x20016c00    0x34  Data  Gb  main.o [1]
putchar                 0x08098155     0xc  Code  Gb  putchar.o [4]
readTimeTimer           0x200163fc     0x4  Data  Lc  MainMenu.o [1]
rectAcbBox              0x20002278     0x8  Data  Gb  GuiData.o [1]
rectAcbStatus           0x20002108    0x10  Data  Gb  GuiData.o [1]
rectDate                0x20002260     0x8  Data  Gb  GuiData.o [1]
rectDesc                0x20002268     0x8  Data  Gb  GuiData.o [1]
rectLocal               0x20002250     0x8  Data  Gb  GuiData.o [1]
rectMccbBox             0x20002280     0x8  Data  Gb  GuiData.o [1]
rectMccbStatus          0x20001f3c    0x18  Data  Gb  GuiData.o [1]
rectMode                0x20002258     0x8  Data  Gb  GuiData.o [1]
round                   0x08072949          Code  Gb  round.o [5]
roundl                  0x08072949          Code  Gb  round.o [5]
rx6_data                0x20015a57     0x1  Data  Gb  main.o [1]
scalbln                 0x08086b8d          Code  Gb  ldexp.o [5]
scalblnl                0x08086b8d          Code  Gb  ldexp.o [5]
scalbn                  0x08086b8d          Code  Gb  ldexp.o [5]
scalbnl                 0x08086b8d          Code  Gb  ldexp.o [5]
scale                   0x080796cf    0x46  Code  Lc  xprintffull.o [4]
sec_hand                0x20016ffc     0x4  Data  Lc  xfail_s.o [4]
sendFlag                0x20015a54     0x1  Data  Gb  main.o [1]
serialNo                0x20016bcc    0x34  Data  Gb  main.o [1]
setup_speed             0x0806be5c    0x10  Data  Gb  GuiData.o [1]
softwareVersion         0x20016c68    0x34  Data  Gb  main.o [1]
sprintf                 0x08071471    0x40  Code  Gb  sprintf.o [4]
statusSendStep          0x20016f6c     0x4  Data  Gb  GuiData.o [1]
strchr                  0x080867fd          Code  Gb  strchr.o [7]
strcpy                  0x08075169          Code  Gb  strcpy.o [7]
strlen                  0x08073bc5          Code  Gb  strlen.o [7]
tolower                 0x08088e1d    0x14  Code  Gb  tolower.o [4]
uart1LastNDTR           0x20015ab8     0x4  Data  Lc  main.o [1]
uart1_dma_rx_buff       0x20015ac0    0x14  Data  Gb  main.o [1]
uart2LastNDTR           0x20015abc     0x4  Data  Lc  main.o [1]
uart2_dma_rx_buff       0x20015ad4   0x200  Data  Gb  main.o [1]
uwTick                  0x20016f94     0x4  Data  Gb  stm32f4xx_hal.o [1]


[1] = D:\STM32F4\NewIHM8Git\EWARM\NewIHM8\Obj
[2] = command line
[3] = STemWin540_CM4_OS_IAR.a
[4] = dl7M_tlf.a
[5] = m7M_tls.a
[6] = os7m_tlv_dp.a
[7] = rt7M_tl.a
[8] = shb_l.a

  127 174 bytes of readonly  code memory
  450 159 bytes of readonly  data memory
   96 289 bytes of readwrite data memory

Errors: none
Warnings: 1
